Compact unwind info with 4 pages and 24 global opcodes

0x00000b64: Compressed page with 554 entries and 4 local opcodes
  0x00000b64: CFA=reg29: reg31=reg29+16 reg19=[CFA+16] reg20=[CFA+24] reg21=[CFA+32] reg22=[CFA+40] reg30=[CFA+8] reg29=[CFA]
  0x0000147c: CFA=reg29: reg31=reg29+16 reg19=[CFA+16] reg20=[CFA+24] reg21=[CFA+32] reg22=[CFA+40] reg23=[CFA+48] reg24=[CFA+56] reg25=[CFA+64] reg26=[CFA+72] reg30=[CFA+8] reg29=[CFA]
  0x000015a4: CFA=reg29: reg31=reg29+16 reg19=[CFA+16] reg20=[CFA+24] reg21=[CFA+32] reg22=[CFA+40] reg23=[CFA+48] reg24=[CFA+56] reg30=[CFA+8] reg29=[CFA]
  0x00001784: CFA=reg29: reg31=reg29+16 reg19=[CFA+16] reg20=[CFA+24] reg21=[CFA+32] reg22=[CFA+40] reg30=[CFA+8] reg29=[CFA]
  0x0000190c: CFA=reg29: reg31=reg29+16 reg19=[CFA+16] reg20=[CFA+24] reg21=[CFA+32] reg22=[CFA+40] reg23=[CFA+48] reg24=[CFA+56] reg25=[CFA+64] reg26=[CFA+72] reg27=[CFA+80] reg28=[CFA+88] reg30=[CFA+8] reg29=[CFA]
  0x000023e0: CFA=reg29: reg31=reg29+16 reg19=[CFA+16] reg20=[CFA+24] reg21=[CFA+32] reg22=[CFA+40] reg23=[CFA+48] reg24=[CFA+56] reg30=[CFA+8] reg29=[CFA]
  0x000024d8: CFA=reg29: reg31=reg29+16 reg19=[CFA+16] reg20=[CFA+24] reg21=[CFA+32] reg22=[CFA+40] reg23=[CFA+48] reg24=[CFA+56] reg25=[CFA+64] reg26=[CFA+72] reg27=[CFA+80] reg28=[CFA+88] reg30=[CFA+8] reg29=[CFA]
  0x00002608: CFA=reg29: reg31=reg29+16 reg19=[CFA+16] reg20=[CFA+24] reg21=[CFA+32] reg22=[CFA+40] reg23=[CFA+48] reg24=[CFA+56] reg30=[CFA+8] reg29=[CFA]
  0x0000271c: CFA=reg31
  0x0000277c: CFA=reg29: reg31=reg29+16 reg19=[CFA+16] reg20=[CFA+24] reg21=[CFA+32] reg22=[CFA+40] reg30=[CFA+8] reg29=[CFA]
  0x00002a3c: CFA=reg31
  0x00002a68: CFA=reg29: reg31=reg29+16 reg19=[CFA+16] reg20=[CFA+24] reg30=[CFA+8] reg29=[CFA]
  0x00002aa0: CFA=reg29: reg31=reg29+16 reg19=[CFA+16] reg20=[CFA+24] reg30=[CFA+8] reg29=[CFA]
  0x00002b00: CFA=reg29: reg31=reg29+16 reg19=[CFA+16] reg20=[CFA+24] reg21=[CFA+32] reg22=[CFA+40] reg30=[CFA+8] reg29=[CFA]
  0x00002bd4: CFA=reg31
  0x00002bdc: CFA=reg29: reg31=reg29+16 reg19=[CFA+16] reg20=[CFA+24] reg21=[CFA+32] reg22=[CFA+40] reg30=[CFA+8] reg29=[CFA]
  0x00002d08: CFA=reg29: reg31=reg29+16 reg19=[CFA+16] reg20=[CFA+24] reg30=[CFA+8] reg29=[CFA]
  0x00002da8: CFA=reg29: reg31=reg29+16 reg19=[CFA+16] reg20=[CFA+24] reg21=[CFA+32] reg22=[CFA+40] reg23=[CFA+48] reg24=[CFA+56] reg25=[CFA+64] reg26=[CFA+72] reg27=[CFA+80] reg28=[CFA+88] reg30=[CFA+8] reg29=[CFA]
  0x00002ed8: CFA=reg29: reg31=reg29+16 reg19=[CFA+16] reg20=[CFA+24] reg30=[CFA+8] reg29=[CFA]
  0x00002fbc: CFA=reg31
  0x00003000: CFA=reg29: reg31=reg29+16 reg19=[CFA+16] reg20=[CFA+24] reg30=[CFA+8] reg29=[CFA]
  0x0000303c: CFA=reg31
  0x00003068: CFA=reg29: reg31=reg29+16 reg19=[CFA+16] reg20=[CFA+24] reg21=[CFA+32] reg22=[CFA+40] reg23=[CFA+48] reg24=[CFA+56] reg30=[CFA+8] reg29=[CFA]
  0x00003194: CFA=reg29: reg31=reg29+16 reg19=[CFA+16] reg20=[CFA+24] reg30=[CFA+8] reg29=[CFA]
  0x0000321c: CFA=reg29: reg31=reg29+16 reg19=[CFA+16] reg20=[CFA+24] reg21=[CFA+32] reg22=[CFA+40] reg23=[CFA+48] reg24=[CFA+56] reg30=[CFA+8] reg29=[CFA]
  0x00003384: CFA=reg31
  0x0000338c: CFA=reg29: reg31=reg29+16 reg19=[CFA+16] reg20=[CFA+24] reg21=[CFA+32] reg22=[CFA+40] reg30=[CFA+8] reg29=[CFA]
  0x00003454: CFA=reg31
  0x00003468: CFA=reg29: reg31=reg29+16 reg19=[CFA+16] reg20=[CFA+24] reg21=[CFA+32] reg22=[CFA+40] reg30=[CFA+8] reg29=[CFA]
  0x00003784: CFA=reg29: reg31=reg29+16 reg19=[CFA+16] reg20=[CFA+24] reg30=[CFA+8] reg29=[CFA]
  0x000037e4: CFA=reg29: reg31=reg29+16 reg19=[CFA+16] reg20=[CFA+24] reg21=[CFA+32] reg22=[CFA+40] reg23=[CFA+48] reg24=[CFA+56] reg30=[CFA+8] reg29=[CFA]
  0x00003890: CFA=reg29: reg31=reg29+16 reg19=[CFA+16] reg20=[CFA+24] reg21=[CFA+32] reg22=[CFA+40] reg23=[CFA+48] reg24=[CFA+56] reg30=[CFA+8] reg29=[CFA]
  0x00003be0: CFA=reg31
  0x00003be4: CFA=reg29: reg31=reg29+16 reg19=[CFA+16] reg20=[CFA+24] reg21=[CFA+32] reg22=[CFA+40] reg23=[CFA+48] reg24=[CFA+56] reg25=[CFA+64] reg26=[CFA+72] reg30=[CFA+8] reg29=[CFA]
  0x00003de8: CFA=reg31
  0x00003e04: CFA=reg29: reg31=reg29+16 reg19=[CFA+16] reg20=[CFA+24] reg30=[CFA+8] reg29=[CFA]
  0x00003e84: CFA=reg29: reg31=reg29+16 reg19=[CFA+16] reg20=[CFA+24] reg30=[CFA+8] reg29=[CFA]
  0x00003f0c: CFA=reg29: reg31=reg29+16 reg19=[CFA+16] reg20=[CFA+24] reg30=[CFA+8] reg29=[CFA]
  0x00003f60: CFA=reg29: reg31=reg29+16 reg19=[CFA+16] reg20=[CFA+24] reg21=[CFA+32] reg22=[CFA+40] reg23=[CFA+48] reg24=[CFA+56] reg30=[CFA+8] reg29=[CFA]
  0x00004064: CFA=reg31
  0x00004084: CFA=reg29: reg31=reg29+16 reg19=[CFA+16] reg20=[CFA+24] reg30=[CFA+8] reg29=[CFA]
  0x000040dc: CFA=reg31
  0x000040f4: CFA=reg29: reg31=reg29+16 reg19=[CFA+16] reg20=[CFA+24] reg21=[CFA+32] reg22=[CFA+40] reg23=[CFA+48] reg24=[CFA+56] reg30=[CFA+8] reg29=[CFA]
  0x000041c8: CFA=reg29: reg31=reg29+16 reg19=[CFA+16] reg20=[CFA+24] reg30=[CFA+8] reg29=[CFA]
  0x00004264: CFA=reg29: reg31=reg29+16 reg19=[CFA+16] reg20=[CFA+24] reg21=[CFA+32] reg22=[CFA+40] reg23=[CFA+48] reg24=[CFA+56] reg30=[CFA+8] reg29=[CFA]
  0x0000431c: CFA=reg29: reg31=reg29+16 reg19=[CFA+16] reg20=[CFA+24] reg30=[CFA+8] reg29=[CFA]
  0x00004370: CFA=reg29: reg31=reg29+16 reg19=[CFA+16] reg20=[CFA+24] reg21=[CFA+32] reg22=[CFA+40] reg23=[CFA+48] reg24=[CFA+56] reg25=[CFA+64] reg26=[CFA+72] reg30=[CFA+8] reg29=[CFA]
  0x00004534: CFA=reg29: reg31=reg29+16 reg19=[CFA+16] reg20=[CFA+24] reg21=[CFA+32] reg22=[CFA+40] reg30=[CFA+8] reg29=[CFA]
  0x000046dc: CFA=reg31
  0x000046f8: CFA=reg29: reg31=reg29+16 reg19=[CFA+16] reg20=[CFA+24] reg21=[CFA+32] reg22=[CFA+40] reg30=[CFA+8] reg29=[CFA]
  0x000047a4: CFA=reg29: reg31=reg29+16 reg19=[CFA+16] reg20=[CFA+24] reg30=[CFA+8] reg29=[CFA]
  0x000047ec: CFA=reg29: reg31=reg29+16 reg19=[CFA+16] reg20=[CFA+24] reg21=[CFA+32] reg22=[CFA+40] reg23=[CFA+48] reg24=[CFA+56] reg30=[CFA+8] reg29=[CFA]
  0x00004cc4: CFA=reg29: reg31=reg29+16 reg19=[CFA+16] reg20=[CFA+24] reg21=[CFA+32] reg22=[CFA+40] reg30=[CFA+8] reg29=[CFA]
  0x00004e40: CFA=reg29: reg31=reg29+16 reg19=[CFA+16] reg20=[CFA+24] reg30=[CFA+8] reg29=[CFA]
  0x00004e84: CFA=reg31
  0x00004e9c: CFA=reg29: reg31=reg29+16 reg19=[CFA+16] reg20=[CFA+24] reg21=[CFA+32] reg22=[CFA+40] reg30=[CFA+8] reg29=[CFA]
  0x00004f18: CFA=reg31
  0x00004f38: CFA=reg29: reg31=reg29+16 reg19=[CFA+16] reg20=[CFA+24] reg21=[CFA+32] reg22=[CFA+40] reg23=[CFA+48] reg24=[CFA+56] reg30=[CFA+8] reg29=[CFA]
  0x00005104: CFA=reg29: reg31=reg29+16 reg19=[CFA+16] reg20=[CFA+24] reg21=[CFA+32] reg22=[CFA+40] reg23=[CFA+48] reg24=[CFA+56] reg25=[CFA+64] reg26=[CFA+72] reg27=[CFA+80] reg28=[CFA+88] reg30=[CFA+8] reg29=[CFA]
  0x00005234: CFA=reg29: reg31=reg29+16 reg19=[CFA+16] reg20=[CFA+24] reg21=[CFA+32] reg22=[CFA+40] reg30=[CFA+8] reg29=[CFA]
  0x00005340: CFA=reg29: reg31=reg29+16 reg19=[CFA+16] reg20=[CFA+24] reg21=[CFA+32] reg22=[CFA+40] reg23=[CFA+48] reg24=[CFA+56] reg30=[CFA+8] reg29=[CFA]
  0x00005438: CFA=reg31
  0x0000545c: CFA=reg29: reg31=reg29+16 reg19=[CFA+16] reg20=[CFA+24] reg21=[CFA+32] reg22=[CFA+40] reg30=[CFA+8] reg29=[CFA]
  0x00005568: CFA=reg29: reg31=reg29+16 reg19=[CFA+16] reg20=[CFA+24] reg30=[CFA+8] reg29=[CFA]
  0x000055a4: CFA=reg29: reg31=reg29+16 reg19=[CFA+16] reg20=[CFA+24] reg21=[CFA+32] reg22=[CFA+40] reg23=[CFA+48] reg24=[CFA+56] reg25=[CFA+64] reg26=[CFA+72] reg27=[CFA+80] reg28=[CFA+88] reg30=[CFA+8] reg29=[CFA]
  0x00005804: CFA=reg29: reg31=reg29+16 reg19=[CFA+16] reg20=[CFA+24] reg21=[CFA+32] reg22=[CFA+40] reg30=[CFA+8] reg29=[CFA]
  0x0000588c: CFA=reg29: reg31=reg29+16 reg19=[CFA+16] reg20=[CFA+24] reg21=[CFA+32] reg22=[CFA+40] reg23=[CFA+48] reg24=[CFA+56] reg25=[CFA+64] reg26=[CFA+72] reg27=[CFA+80] reg28=[CFA+88] reg30=[CFA+8] reg29=[CFA]
  0x000059c0: CFA=reg29: reg31=reg29+16 reg19=[CFA+16] reg20=[CFA+24] reg21=[CFA+32] reg22=[CFA+40] reg30=[CFA+8] reg29=[CFA]
  0x00005b70: CFA=reg31
  0x00005bec: CFA=reg29: reg31=reg29+16 reg19=[CFA+16] reg20=[CFA+24] reg21=[CFA+32] reg22=[CFA+40] reg23=[CFA+48] reg24=[CFA+56] reg25=[CFA+64] reg26=[CFA+72] reg27=[CFA+80] reg28=[CFA+88] reg30=[CFA+8] reg29=[CFA]
  0x000066bc: CFA=reg29: reg31=reg29+16 reg19=[CFA+16] reg20=[CFA+24] reg21=[CFA+32] reg22=[CFA+40] reg23=[CFA+48] reg24=[CFA+56] reg25=[CFA+64] reg26=[CFA+72] reg27=[CFA+80] reg28=[CFA+88] reg30=[CFA+8] reg29=[CFA]
  0x00006c88: CFA=reg29: reg31=reg29+16 reg19=[CFA+16] reg20=[CFA+24] reg21=[CFA+32] reg22=[CFA+40] reg23=[CFA+48] reg24=[CFA+56] reg25=[CFA+64] reg26=[CFA+72] reg27=[CFA+80] reg28=[CFA+88] reg14=[CFA+96] reg15=[CFA+104] reg30=[CFA+8] reg29=[CFA]
  0x00006fd0: CFA=reg29: reg31=reg29+16 reg19=[CFA+16] reg20=[CFA+24] reg21=[CFA+32] reg22=[CFA+40] reg23=[CFA+48] reg24=[CFA+56] reg25=[CFA+64] reg26=[CFA+72] reg27=[CFA+80] reg28=[CFA+88] reg14=[CFA+96] reg15=[CFA+104] reg30=[CFA+8] reg29=[CFA]
  0x00007318: CFA=reg29: reg31=reg29+16 reg19=[CFA+16] reg20=[CFA+24] reg21=[CFA+32] reg22=[CFA+40] reg23=[CFA+48] reg24=[CFA+56] reg25=[CFA+64] reg26=[CFA+72] reg27=[CFA+80] reg28=[CFA+88] reg30=[CFA+8] reg29=[CFA]
  0x0000750c: CFA=reg29: reg31=reg29+16 reg19=[CFA+16] reg20=[CFA+24] reg21=[CFA+32] reg22=[CFA+40] reg23=[CFA+48] reg24=[CFA+56] reg25=[CFA+64] reg26=[CFA+72] reg27=[CFA+80] reg28=[CFA+88] reg30=[CFA+8] reg29=[CFA]
  0x000076a4: CFA=reg31
  0x000076a8: CFA=reg29: reg31=reg29+16 reg19=[CFA+16] reg20=[CFA+24] reg21=[CFA+32] reg22=[CFA+40] reg23=[CFA+48] reg24=[CFA+56] reg25=[CFA+64] reg26=[CFA+72] reg27=[CFA+80] reg28=[CFA+88] reg30=[CFA+8] reg29=[CFA]
  0x00007a08: CFA=reg29: reg31=reg29+16 reg19=[CFA+16] reg20=[CFA+24] reg21=[CFA+32] reg22=[CFA+40] reg23=[CFA+48] reg24=[CFA+56] reg25=[CFA+64] reg26=[CFA+72] reg27=[CFA+80] reg28=[CFA+88] reg30=[CFA+8] reg29=[CFA]
  0x0000843c: CFA=reg29: reg31=reg29+16 reg19=[CFA+16] reg20=[CFA+24] reg21=[CFA+32] reg22=[CFA+40] reg23=[CFA+48] reg24=[CFA+56] reg25=[CFA+64] reg26=[CFA+72] reg27=[CFA+80] reg28=[CFA+88] reg30=[CFA+8] reg29=[CFA]
  0x00008ad0: CFA=reg31
  0x00008ae4: CFA=reg29: reg31=reg29+16 reg19=[CFA+16] reg20=[CFA+24] reg21=[CFA+32] reg22=[CFA+40] reg30=[CFA+8] reg29=[CFA]
  0x00008cc4: CFA=reg29: reg31=reg29+16 reg19=[CFA+16] reg20=[CFA+24] reg21=[CFA+32] reg22=[CFA+40] reg30=[CFA+8] reg29=[CFA]
  0x00008ea8: CFA=reg29: reg31=reg29+16 reg30=[CFA+8] reg29=[CFA]
  0x0000ac30: CFA=reg29: reg31=reg29+16 reg19=[CFA+16] reg20=[CFA+24] reg21=[CFA+32] reg22=[CFA+40] reg30=[CFA+8] reg29=[CFA]
  0x0000acb4: CFA=reg29: reg31=reg29+16 reg19=[CFA+16] reg20=[CFA+24] reg21=[CFA+32] reg22=[CFA+40] reg23=[CFA+48] reg24=[CFA+56] reg25=[CFA+64] reg26=[CFA+72] reg30=[CFA+8] reg29=[CFA]
  0x0000ada8: CFA=reg29: reg31=reg29+16 reg19=[CFA+16] reg20=[CFA+24] reg30=[CFA+8] reg29=[CFA]
  0x0000ae08: CFA=reg29: reg31=reg29+16 reg19=[CFA+16] reg20=[CFA+24] reg21=[CFA+32] reg22=[CFA+40] reg30=[CFA+8] reg29=[CFA]
  0x0000ae78: CFA=reg29: reg31=reg29+16 reg19=[CFA+16] reg20=[CFA+24] reg21=[CFA+32] reg22=[CFA+40] reg30=[CFA+8] reg29=[CFA]
  0x0000af18: CFA=reg29: reg31=reg29+16 reg19=[CFA+16] reg20=[CFA+24] reg21=[CFA+32] reg22=[CFA+40] reg23=[CFA+48] reg24=[CFA+56] reg25=[CFA+64] reg26=[CFA+72] reg27=[CFA+80] reg28=[CFA+88] reg30=[CFA+8] reg29=[CFA]
  0x0000cd08: CFA=reg29: reg31=reg29+16 reg30=[CFA+8] reg29=[CFA]
  0x0000d220: CFA=reg29: reg31=reg29+16 reg19=[CFA+16] reg20=[CFA+24] reg21=[CFA+32] reg22=[CFA+40] reg23=[CFA+48] reg24=[CFA+56] reg25=[CFA+64] reg26=[CFA+72] reg27=[CFA+80] reg28=[CFA+88] reg30=[CFA+8] reg29=[CFA]
  0x0000ddf4: CFA=reg29: reg31=reg29+16 reg30=[CFA+8] reg29=[CFA]
  0x0000df38: CFA=reg31
  0x0000dfec: CFA=reg29: reg31=reg29+16 reg30=[CFA+8] reg29=[CFA]
  0x0000e12c: CFA=reg31
  0x0000e318: CFA=reg29: reg31=reg29+16 reg19=[CFA+16] reg20=[CFA+24] reg21=[CFA+32] reg22=[CFA+40] reg30=[CFA+8] reg29=[CFA]
  0x0000e4c4: CFA=reg29: reg31=reg29+16 reg19=[CFA+16] reg20=[CFA+24] reg21=[CFA+32] reg22=[CFA+40] reg30=[CFA+8] reg29=[CFA]
  0x0000e680: CFA=reg29: reg31=reg29+16 reg19=[CFA+16] reg20=[CFA+24] reg21=[CFA+32] reg22=[CFA+40] reg23=[CFA+48] reg24=[CFA+56] reg30=[CFA+8] reg29=[CFA]
  0x0000e850: CFA=reg29: reg31=reg29+16 reg19=[CFA+16] reg20=[CFA+24] reg21=[CFA+32] reg22=[CFA+40] reg23=[CFA+48] reg24=[CFA+56] reg25=[CFA+64] reg26=[CFA+72] reg27=[CFA+80] reg28=[CFA+88] reg30=[CFA+8] reg29=[CFA]
  0x0000ead0: CFA=reg29: reg31=reg29+16 reg19=[CFA+16] reg20=[CFA+24] reg21=[CFA+32] reg22=[CFA+40] reg30=[CFA+8] reg29=[CFA]
  0x0000eca4: CFA=reg29: reg31=reg29+16 reg19=[CFA+16] reg20=[CFA+24] reg21=[CFA+32] reg22=[CFA+40] reg23=[CFA+48] reg24=[CFA+56] reg30=[CFA+8] reg29=[CFA]
  0x0000ee3c: CFA=reg29: reg31=reg29+16 reg19=[CFA+16] reg20=[CFA+24] reg21=[CFA+32] reg22=[CFA+40] reg23=[CFA+48] reg24=[CFA+56] reg27=[CFA+64] reg28=[CFA+72] reg30=[CFA+8] reg29=[CFA]
  0x0000efd4: CFA=reg29: reg31=reg29+16 reg19=[CFA+16] reg20=[CFA+24] reg21=[CFA+32] reg22=[CFA+40] reg23=[CFA+48] reg24=[CFA+56] reg25=[CFA+64] reg26=[CFA+72] reg27=[CFA+80] reg28=[CFA+88] reg30=[CFA+8] reg29=[CFA]
  0x0000f4f8: CFA=reg29: reg31=reg29+16 reg19=[CFA+16] reg20=[CFA+24] reg21=[CFA+32] reg22=[CFA+40] reg23=[CFA+48] reg24=[CFA+56] reg25=[CFA+64] reg26=[CFA+72] reg30=[CFA+8] reg29=[CFA]
  0x0000f7b4: CFA=reg29: reg31=reg29+16 reg19=[CFA+16] reg20=[CFA+24] reg21=[CFA+32] reg22=[CFA+40] reg23=[CFA+48] reg24=[CFA+56] reg27=[CFA+64] reg28=[CFA+72] reg30=[CFA+8] reg29=[CFA]
  0x0000f94c: CFA=reg29: reg31=reg29+16 reg19=[CFA+16] reg20=[CFA+24] reg21=[CFA+32] reg22=[CFA+40] reg23=[CFA+48] reg24=[CFA+56] reg27=[CFA+64] reg28=[CFA+72] reg30=[CFA+8] reg29=[CFA]
  0x0000fae4: (check eh_frame FDE 0x14)
  0x0000fb4c: (check eh_frame FDE 0x34)
  0x0000fbe8: (check eh_frame FDE 0x5c)
  0x0000fbf0: CFA=reg29: reg31=reg29+16 reg19=[CFA+16] reg20=[CFA+24] reg21=[CFA+32] reg22=[CFA+40] reg23=[CFA+48] reg24=[CFA+56] reg30=[CFA+8] reg29=[CFA]
  0x0000ffac: CFA=reg29: reg31=reg29+16 reg19=[CFA+16] reg20=[CFA+24] reg30=[CFA+8] reg29=[CFA]
  0x00010090: CFA=reg29: reg31=reg29+16 reg19=[CFA+16] reg20=[CFA+24] reg21=[CFA+32] reg22=[CFA+40] reg23=[CFA+48] reg24=[CFA+56] reg25=[CFA+64] reg26=[CFA+72] reg27=[CFA+80] reg28=[CFA+88] reg30=[CFA+8] reg29=[CFA]
  0x000105c0: CFA=reg29: reg31=reg29+16 reg19=[CFA+16] reg20=[CFA+24] reg21=[CFA+32] reg22=[CFA+40] reg30=[CFA+8] reg29=[CFA]
  0x000106b8: CFA=reg29: reg31=reg29+16 reg19=[CFA+16] reg20=[CFA+24] reg30=[CFA+8] reg29=[CFA]
  0x00010850: CFA=reg29: reg31=reg29+16 reg19=[CFA+16] reg20=[CFA+24] reg21=[CFA+32] reg22=[CFA+40] reg23=[CFA+48] reg24=[CFA+56] reg25=[CFA+64] reg26=[CFA+72] reg27=[CFA+80] reg28=[CFA+88] reg30=[CFA+8] reg29=[CFA]
  0x00010b94: CFA=reg31
  0x00010bdc: CFA=reg29: reg31=reg29+16 reg19=[CFA+16] reg20=[CFA+24] reg21=[CFA+32] reg22=[CFA+40] reg30=[CFA+8] reg29=[CFA]
  0x00010d78: CFA=reg29: reg31=reg29+16 reg19=[CFA+16] reg20=[CFA+24] reg30=[CFA+8] reg29=[CFA]
  0x00010dc0: CFA=reg31
  0x00010dd0: CFA=reg29: reg31=reg29+16 reg19=[CFA+16] reg20=[CFA+24] reg30=[CFA+8] reg29=[CFA]
  0x00010eb0: CFA=reg29: reg31=reg29+16 reg19=[CFA+16] reg20=[CFA+24] reg21=[CFA+32] reg22=[CFA+40] reg30=[CFA+8] reg29=[CFA]
  0x00010fd4: CFA=reg29: reg31=reg29+16 reg19=[CFA+16] reg20=[CFA+24] reg21=[CFA+32] reg22=[CFA+40] reg23=[CFA+48] reg24=[CFA+56] reg30=[CFA+8] reg29=[CFA]
  0x000110b0: CFA=reg29: reg31=reg29+16 reg19=[CFA+16] reg20=[CFA+24] reg21=[CFA+32] reg22=[CFA+40] reg30=[CFA+8] reg29=[CFA]
  0x00011144: CFA=reg31
  0x0001114c: CFA=reg29: reg31=reg29+16 reg19=[CFA+16] reg20=[CFA+24] reg21=[CFA+32] reg22=[CFA+40] reg30=[CFA+8] reg29=[CFA]
  0x000112b8: CFA=reg31
  0x000112d0: CFA=reg29: reg31=reg29+16 reg19=[CFA+16] reg20=[CFA+24] reg21=[CFA+32] reg22=[CFA+40] reg23=[CFA+48] reg24=[CFA+56] reg30=[CFA+8] reg29=[CFA]
  0x00011500: CFA=reg29: reg31=reg29+16 reg19=[CFA+16] reg20=[CFA+24] reg21=[CFA+32] reg22=[CFA+40] reg30=[CFA+8] reg29=[CFA]
  0x0001159c: CFA=reg31
  0x000115a4: CFA=reg29: reg31=reg29+16 reg19=[CFA+16] reg20=[CFA+24] reg30=[CFA+8] reg29=[CFA]
  0x00011758: CFA=reg31
  0x00011768: CFA=reg29: reg31=reg29+16 reg19=[CFA+16] reg20=[CFA+24] reg21=[CFA+32] reg22=[CFA+40] reg30=[CFA+8] reg29=[CFA]
  0x00011864: CFA=reg29: reg31=reg29+16 reg19=[CFA+16] reg20=[CFA+24] reg30=[CFA+8] reg29=[CFA]
  0x00011944: CFA=reg31
  0x00011954: CFA=reg29: reg31=reg29+16 reg19=[CFA+16] reg20=[CFA+24] reg21=[CFA+32] reg22=[CFA+40] reg30=[CFA+8] reg29=[CFA]
  0x00011a74: CFA=reg29: reg31=reg29+16 reg19=[CFA+16] reg20=[CFA+24] reg30=[CFA+8] reg29=[CFA]
  0x00011b10: CFA=reg29: reg31=reg29+16 reg19=[CFA+16] reg20=[CFA+24] reg21=[CFA+32] reg22=[CFA+40] reg30=[CFA+8] reg29=[CFA]
  0x00011b68: CFA=reg31
  0x00011b78: CFA=reg29: reg31=reg29+16 reg19=[CFA+16] reg20=[CFA+24] reg21=[CFA+32] reg22=[CFA+40] reg30=[CFA+8] reg29=[CFA]
  0x00011fa4: CFA=reg29: reg31=reg29+16 reg19=[CFA+16] reg20=[CFA+24] reg30=[CFA+8] reg29=[CFA]
  0x00012288: CFA=reg31
  0x000122c0: CFA=reg29: reg31=reg29+16 reg30=[CFA+8] reg29=[CFA]
  0x00012458: CFA=reg31
  0x0001246c: CFA=reg29: reg31=reg29+16 reg19=[CFA+16] reg20=[CFA+24] reg30=[CFA+8] reg29=[CFA]
  0x00012674: CFA=reg29: reg31=reg29+16 reg19=[CFA+16] reg20=[CFA+24] reg21=[CFA+32] reg22=[CFA+40] reg30=[CFA+8] reg29=[CFA]
  0x00012778: CFA=reg31
  0x000127bc: CFA=reg29: reg31=reg29+16 reg19=[CFA+16] reg20=[CFA+24] reg21=[CFA+32] reg22=[CFA+40] reg30=[CFA+8] reg29=[CFA]
  0x00012bbc: CFA=reg31
  0x00012bd4: CFA=reg29: reg31=reg29+16 reg19=[CFA+16] reg20=[CFA+24] reg21=[CFA+32] reg22=[CFA+40] reg30=[CFA+8] reg29=[CFA]
  0x00012c9c: CFA=reg29: reg31=reg29+16 reg19=[CFA+16] reg20=[CFA+24] reg21=[CFA+32] reg22=[CFA+40] reg23=[CFA+48] reg24=[CFA+56] reg30=[CFA+8] reg29=[CFA]
  0x00012df0: CFA=reg31
  0x00012e4c: CFA=reg29: reg31=reg29+16 reg19=[CFA+16] reg20=[CFA+24] reg21=[CFA+32] reg22=[CFA+40] reg23=[CFA+48] reg24=[CFA+56] reg30=[CFA+8] reg29=[CFA]
  0x00012fc8: CFA=reg29: reg31=reg29+16 reg19=[CFA+16] reg20=[CFA+24] reg30=[CFA+8] reg29=[CFA]
  0x000130f0: CFA=reg31
  0x00013130: CFA=reg29: reg31=reg29+16 reg19=[CFA+16] reg20=[CFA+24] reg21=[CFA+32] reg22=[CFA+40] reg23=[CFA+48] reg24=[CFA+56] reg25=[CFA+64] reg26=[CFA+72] reg27=[CFA+80] reg28=[CFA+88] reg30=[CFA+8] reg29=[CFA]
  0x00014650: CFA=reg29: reg31=reg29+16 reg19=[CFA+16] reg20=[CFA+24] reg21=[CFA+32] reg22=[CFA+40] reg23=[CFA+48] reg24=[CFA+56] reg30=[CFA+8] reg29=[CFA]
  0x000147a4: CFA=reg29: reg31=reg29+16 reg19=[CFA+16] reg20=[CFA+24] reg21=[CFA+32] reg22=[CFA+40] reg30=[CFA+8] reg29=[CFA]
  0x000148b4: CFA=reg29: reg31=reg29+16 reg19=[CFA+16] reg20=[CFA+24] reg21=[CFA+32] reg22=[CFA+40] reg23=[CFA+48] reg24=[CFA+56] reg25=[CFA+64] reg26=[CFA+72] reg27=[CFA+80] reg28=[CFA+88] reg30=[CFA+8] reg29=[CFA]
  0x00014b04: CFA=reg29: reg31=reg29+16 reg19=[CFA+16] reg20=[CFA+24] reg21=[CFA+32] reg22=[CFA+40] reg23=[CFA+48] reg24=[CFA+56] reg25=[CFA+64] reg26=[CFA+72] reg30=[CFA+8] reg29=[CFA]
  0x00014cb0: CFA=reg29: reg31=reg29+16 reg19=[CFA+16] reg20=[CFA+24] reg21=[CFA+32] reg22=[CFA+40] reg30=[CFA+8] reg29=[CFA]
  0x00014dd4: CFA=reg29: reg31=reg29+16 reg19=[CFA+16] reg20=[CFA+24] reg30=[CFA+8] reg29=[CFA]
  0x00014eb4: CFA=reg29: reg31=reg29+16 reg19=[CFA+16] reg20=[CFA+24] reg21=[CFA+32] reg22=[CFA+40] reg30=[CFA+8] reg29=[CFA]
  0x00015018: CFA=reg29: reg31=reg29+16 reg30=[CFA+8] reg29=[CFA]
  0x00015044: CFA=reg29: reg31=reg29+16 reg19=[CFA+16] reg20=[CFA+24] reg21=[CFA+32] reg22=[CFA+40] reg23=[CFA+48] reg24=[CFA+56] reg25=[CFA+64] reg26=[CFA+72] reg30=[CFA+8] reg29=[CFA]
  0x000151e4: CFA=reg31
  0x000151f4: CFA=reg29: reg31=reg29+16 reg19=[CFA+16] reg20=[CFA+24] reg21=[CFA+32] reg22=[CFA+40] reg23=[CFA+48] reg24=[CFA+56] reg30=[CFA+8] reg29=[CFA]
  0x000152ec: CFA=reg29: reg31=reg29+16 reg19=[CFA+16] reg20=[CFA+24] reg21=[CFA+32] reg22=[CFA+40] reg30=[CFA+8] reg29=[CFA]
  0x0001547c: CFA=reg29: reg31=reg29+16 reg19=[CFA+16] reg20=[CFA+24] reg21=[CFA+32] reg22=[CFA+40] reg30=[CFA+8] reg29=[CFA]
  0x0001562c: CFA=reg29: reg31=reg29+16 reg30=[CFA+8] reg29=[CFA]
  0x00015670: CFA=reg29: reg31=reg29+16 reg19=[CFA+16] reg20=[CFA+24] reg30=[CFA+8] reg29=[CFA]
  0x000156f4: CFA=reg29: reg31=reg29+16 reg19=[CFA+16] reg20=[CFA+24] reg21=[CFA+32] reg22=[CFA+40] reg23=[CFA+48] reg24=[CFA+56] reg25=[CFA+64] reg26=[CFA+72] reg30=[CFA+8] reg29=[CFA]
  0x00015924: CFA=reg29: reg31=reg29+16 reg19=[CFA+16] reg20=[CFA+24] reg21=[CFA+32] reg22=[CFA+40] reg23=[CFA+48] reg24=[CFA+56] reg30=[CFA+8] reg29=[CFA]
  0x000159a4: CFA=reg29: reg31=reg29+16 reg19=[CFA+16] reg20=[CFA+24] reg21=[CFA+32] reg22=[CFA+40] reg30=[CFA+8] reg29=[CFA]
  0x00015aa0: CFA=reg31
  0x00015aa8: CFA=reg29: reg31=reg29+16 reg19=[CFA+16] reg20=[CFA+24] reg21=[CFA+32] reg22=[CFA+40] reg30=[CFA+8] reg29=[CFA]
  0x00015b70: CFA=reg29: reg31=reg29+16 reg30=[CFA+8] reg29=[CFA]
  0x00015c28: CFA=reg29: reg31=reg29+16 reg19=[CFA+16] reg20=[CFA+24] reg21=[CFA+32] reg22=[CFA+40] reg23=[CFA+48] reg24=[CFA+56] reg30=[CFA+8] reg29=[CFA]
  0x00016458: CFA=reg29: reg31=reg29+16 reg30=[CFA+8] reg29=[CFA]
  0x000164dc: CFA=reg29: reg31=reg29+16 reg19=[CFA+16] reg20=[CFA+24] reg21=[CFA+32] reg22=[CFA+40] reg23=[CFA+48] reg24=[CFA+56] reg25=[CFA+64] reg26=[CFA+72] reg27=[CFA+80] reg28=[CFA+88] reg30=[CFA+8] reg29=[CFA]
  0x00016ddc: CFA=reg31
  0x00016e10: CFA=reg29: reg31=reg29+16 reg19=[CFA+16] reg20=[CFA+24] reg30=[CFA+8] reg29=[CFA]
  0x00016e94: CFA=reg31
  0x00016eb4: CFA=reg29: reg31=reg29+16 reg30=[CFA+8] reg29=[CFA]
  0x00016ff4: CFA=reg29: reg31=reg29+16 reg19=[CFA+16] reg20=[CFA+24] reg21=[CFA+32] reg22=[CFA+40] reg23=[CFA+48] reg24=[CFA+56] reg25=[CFA+64] reg26=[CFA+72] reg27=[CFA+80] reg28=[CFA+88] reg30=[CFA+8] reg29=[CFA]
  0x00017288: CFA=reg29: reg31=reg29+16 reg30=[CFA+8] reg29=[CFA]
  0x000172c8: CFA=reg29: reg31=reg29+16 reg19=[CFA+16] reg20=[CFA+24] reg21=[CFA+32] reg22=[CFA+40] reg30=[CFA+8] reg29=[CFA]
  0x00017408: CFA=reg29: reg31=reg29+16 reg30=[CFA+8] reg29=[CFA]
  0x0001744c: CFA=reg29: reg31=reg29+16 reg19=[CFA+16] reg20=[CFA+24] reg21=[CFA+32] reg22=[CFA+40] reg23=[CFA+48] reg24=[CFA+56] reg25=[CFA+64] reg26=[CFA+72] reg30=[CFA+8] reg29=[CFA]
  0x000176b0: CFA=reg29: reg31=reg29+16 reg19=[CFA+16] reg20=[CFA+24] reg21=[CFA+32] reg22=[CFA+40] reg30=[CFA+8] reg29=[CFA]
  0x00017724: CFA=reg31
  0x00017738: CFA=reg29: reg31=reg29+16 reg19=[CFA+16] reg20=[CFA+24] reg21=[CFA+32] reg22=[CFA+40] reg23=[CFA+48] reg24=[CFA+56] reg30=[CFA+8] reg29=[CFA]
  0x000178cc: CFA=reg31+288
  0x000179dc: CFA=reg29: reg31=reg29+16 reg19=[CFA+16] reg20=[CFA+24] reg30=[CFA+8] reg29=[CFA]
  0x00017a58: CFA=reg29: reg31=reg29+16 reg19=[CFA+16] reg20=[CFA+24] reg21=[CFA+32] reg22=[CFA+40] reg30=[CFA+8] reg29=[CFA]
  0x00017afc: CFA=reg29: reg31=reg29+16 reg19=[CFA+16] reg20=[CFA+24] reg30=[CFA+8] reg29=[CFA]
  0x00017b58: CFA=reg29: reg31=reg29+16 reg19=[CFA+16] reg20=[CFA+24] reg21=[CFA+32] reg22=[CFA+40] reg23=[CFA+48] reg24=[CFA+56] reg30=[CFA+8] reg29=[CFA]
  0x00017c50: CFA=reg29: reg31=reg29+16 reg19=[CFA+16] reg20=[CFA+24] reg21=[CFA+32] reg22=[CFA+40] reg30=[CFA+8] reg29=[CFA]
  0x00017cfc: CFA=reg29: reg31=reg29+16 reg19=[CFA+16] reg20=[CFA+24] reg21=[CFA+32] reg22=[CFA+40] reg30=[CFA+8] reg29=[CFA]
  0x00017dbc: CFA=reg29: reg31=reg29+16 reg19=[CFA+16] reg20=[CFA+24] reg21=[CFA+32] reg22=[CFA+40] reg30=[CFA+8] reg29=[CFA]
  0x00017e68: CFA=reg31
  0x00017ed4: CFA=reg29: reg31=reg29+16 reg19=[CFA+16] reg20=[CFA+24] reg21=[CFA+32] reg22=[CFA+40] reg23=[CFA+48] reg24=[CFA+56] reg25=[CFA+64] reg26=[CFA+72] reg30=[CFA+8] reg29=[CFA]
  0x00017f6c: CFA=reg29: reg31=reg29+16 reg19=[CFA+16] reg20=[CFA+24] reg21=[CFA+32] reg22=[CFA+40] reg23=[CFA+48] reg24=[CFA+56] reg30=[CFA+8] reg29=[CFA]
  0x00018040: CFA=reg29: reg31=reg29+16 reg19=[CFA+16] reg20=[CFA+24] reg21=[CFA+32] reg22=[CFA+40] reg23=[CFA+48] reg24=[CFA+56] reg25=[CFA+64] reg26=[CFA+72] reg27=[CFA+80] reg28=[CFA+88] reg30=[CFA+8] reg29=[CFA]
  0x0001925c: CFA=reg29: reg31=reg29+16 reg19=[CFA+16] reg20=[CFA+24] reg21=[CFA+32] reg22=[CFA+40] reg23=[CFA+48] reg24=[CFA+56] reg25=[CFA+64] reg26=[CFA+72] reg27=[CFA+80] reg28=[CFA+88] reg30=[CFA+8] reg29=[CFA]
  0x0001946c: CFA=reg29: reg31=reg29+16 reg19=[CFA+16] reg20=[CFA+24] reg30=[CFA+8] reg29=[CFA]
  0x00019508: CFA=reg29: reg31=reg29+16 reg19=[CFA+16] reg20=[CFA+24] reg21=[CFA+32] reg22=[CFA+40] reg30=[CFA+8] reg29=[CFA]
  0x000196b0: CFA=reg29: reg31=reg29+16 reg19=[CFA+16] reg20=[CFA+24] reg30=[CFA+8] reg29=[CFA]
  0x00019744: CFA=reg29: reg31=reg29+16 reg19=[CFA+16] reg20=[CFA+24] reg30=[CFA+8] reg29=[CFA]
  0x000197c4: CFA=reg31
  0x00019834: CFA=reg29: reg31=reg29+16 reg19=[CFA+16] reg20=[CFA+24] reg30=[CFA+8] reg29=[CFA]
  0x0001989c: CFA=reg29: reg31=reg29+16 reg19=[CFA+16] reg20=[CFA+24] reg21=[CFA+32] reg22=[CFA+40] reg23=[CFA+48] reg24=[CFA+56] reg25=[CFA+64] reg26=[CFA+72] reg27=[CFA+80] reg28=[CFA+88] reg30=[CFA+8] reg29=[CFA]
  0x00019d9c: CFA=reg31
  0x00019da0: CFA=reg29: reg31=reg29+16 reg19=[CFA+16] reg20=[CFA+24] reg21=[CFA+32] reg22=[CFA+40] reg23=[CFA+48] reg24=[CFA+56] reg30=[CFA+8] reg29=[CFA]
  0x0001a194: CFA=reg31
  0x0001a1ac: CFA=reg29: reg31=reg29+16 reg19=[CFA+16] reg20=[CFA+24] reg21=[CFA+32] reg22=[CFA+40] reg23=[CFA+48] reg24=[CFA+56] reg25=[CFA+64] reg26=[CFA+72] reg27=[CFA+80] reg28=[CFA+88] reg30=[CFA+8] reg29=[CFA]
  0x0001ab4c: CFA=reg29: reg31=reg29+16 reg19=[CFA+16] reg20=[CFA+24] reg30=[CFA+8] reg29=[CFA]
  0x0001accc: CFA=reg29: reg31=reg29+16 reg19=[CFA+16] reg20=[CFA+24] reg21=[CFA+32] reg22=[CFA+40] reg23=[CFA+48] reg24=[CFA+56] reg25=[CFA+64] reg26=[CFA+72] reg30=[CFA+8] reg29=[CFA]
  0x0001afbc: CFA=reg29: reg31=reg29+16 reg19=[CFA+16] reg20=[CFA+24] reg21=[CFA+32] reg22=[CFA+40] reg23=[CFA+48] reg24=[CFA+56] reg25=[CFA+64] reg26=[CFA+72] reg27=[CFA+80] reg28=[CFA+88] reg30=[CFA+8] reg29=[CFA]
  0x0001b300: CFA=reg29: reg31=reg29+16 reg19=[CFA+16] reg20=[CFA+24] reg21=[CFA+32] reg22=[CFA+40] reg23=[CFA+48] reg24=[CFA+56] reg25=[CFA+64] reg26=[CFA+72] reg27=[CFA+80] reg28=[CFA+88] reg14=[CFA+96] reg15=[CFA+104] reg30=[CFA+8] reg29=[CFA]
  0x0001e750: CFA=reg29: reg31=reg29+16 reg19=[CFA+16] reg20=[CFA+24] reg21=[CFA+32] reg22=[CFA+40] reg23=[CFA+48] reg24=[CFA+56] reg25=[CFA+64] reg26=[CFA+72] reg27=[CFA+80] reg28=[CFA+88] reg14=[CFA+96] reg15=[CFA+104] reg30=[CFA+8] reg29=[CFA]
  0x0001f8b4: CFA=reg31
  0x0001f8c8: CFA=reg29: reg31=reg29+16 reg19=[CFA+16] reg20=[CFA+24] reg30=[CFA+8] reg29=[CFA]
  0x0001f924: CFA=reg29: reg31=reg29+16 reg19=[CFA+16] reg20=[CFA+24] reg30=[CFA+8] reg29=[CFA]
  0x0001f9a8: CFA=reg31
  0x0001f9ac: CFA=reg29: reg31=reg29+16 reg19=[CFA+16] reg20=[CFA+24] reg21=[CFA+32] reg22=[CFA+40] reg23=[CFA+48] reg24=[CFA+56] reg25=[CFA+64] reg26=[CFA+72] reg27=[CFA+80] reg28=[CFA+88] reg30=[CFA+8] reg29=[CFA]
  0x0001fe04: CFA=reg29: reg31=reg29+16 reg19=[CFA+16] reg20=[CFA+24] reg21=[CFA+32] reg22=[CFA+40] reg30=[CFA+8] reg29=[CFA]
  0x0001fe88: CFA=reg29: reg31=reg29+16 reg19=[CFA+16] reg20=[CFA+24] reg21=[CFA+32] reg22=[CFA+40] reg23=[CFA+48] reg24=[CFA+56] reg25=[CFA+64] reg26=[CFA+72] reg27=[CFA+80] reg28=[CFA+88] reg14=[CFA+96] reg15=[CFA+104] reg30=[CFA+8] reg29=[CFA]
  0x0002090c: CFA=reg29: reg31=reg29+16 reg19=[CFA+16] reg20=[CFA+24] reg21=[CFA+32] reg22=[CFA+40] reg23=[CFA+48] reg24=[CFA+56] reg25=[CFA+64] reg26=[CFA+72] reg30=[CFA+8] reg29=[CFA]
  0x00020a4c: CFA=reg29: reg31=reg29+16 reg19=[CFA+16] reg20=[CFA+24] reg21=[CFA+32] reg22=[CFA+40] reg23=[CFA+48] reg24=[CFA+56] reg25=[CFA+64] reg26=[CFA+72] reg27=[CFA+80] reg28=[CFA+88] reg30=[CFA+8] reg29=[CFA]
  0x00021420: CFA=reg29: reg31=reg29+16 reg19=[CFA+16] reg20=[CFA+24] reg21=[CFA+32] reg22=[CFA+40] reg23=[CFA+48] reg24=[CFA+56] reg25=[CFA+64] reg26=[CFA+72] reg27=[CFA+80] reg28=[CFA+88] reg30=[CFA+8] reg29=[CFA]
  0x000218c0: CFA=reg29: reg31=reg29+16 reg19=[CFA+16] reg20=[CFA+24] reg21=[CFA+32] reg22=[CFA+40] reg23=[CFA+48] reg24=[CFA+56] reg25=[CFA+64] reg26=[CFA+72] reg27=[CFA+80] reg28=[CFA+88] reg30=[CFA+8] reg29=[CFA]
  0x00021a1c: CFA=reg29: reg31=reg29+16 reg19=[CFA+16] reg20=[CFA+24] reg21=[CFA+32] reg22=[CFA+40] reg23=[CFA+48] reg24=[CFA+56] reg25=[CFA+64] reg26=[CFA+72] reg27=[CFA+80] reg28=[CFA+88] reg30=[CFA+8] reg29=[CFA]
  0x00021c24: CFA=reg29: reg31=reg29+16 reg19=[CFA+16] reg20=[CFA+24] reg21=[CFA+32] reg22=[CFA+40] reg23=[CFA+48] reg24=[CFA+56] reg25=[CFA+64] reg26=[CFA+72] reg27=[CFA+80] reg28=[CFA+88] reg30=[CFA+8] reg29=[CFA]
  0x00021e2c: CFA=reg29: reg31=reg29+16 reg19=[CFA+16] reg20=[CFA+24] reg21=[CFA+32] reg22=[CFA+40] reg23=[CFA+48] reg24=[CFA+56] reg30=[CFA+8] reg29=[CFA]
  0x0002206c: CFA=reg29: reg31=reg29+16 reg19=[CFA+16] reg20=[CFA+24] reg21=[CFA+32] reg22=[CFA+40] reg23=[CFA+48] reg24=[CFA+56] reg25=[CFA+64] reg26=[CFA+72] reg27=[CFA+80] reg28=[CFA+88] reg30=[CFA+8] reg29=[CFA]
  0x00022c4c: CFA=reg29: reg31=reg29+16 reg19=[CFA+16] reg20=[CFA+24] reg21=[CFA+32] reg22=[CFA+40] reg30=[CFA+8] reg29=[CFA]
  0x00022d14: CFA=reg31
  0x00022d1c: CFA=reg29: reg31=reg29+16 reg19=[CFA+16] reg20=[CFA+24] reg30=[CFA+8] reg29=[CFA]
  0x00022d40: CFA=reg29: reg31=reg29+16 reg19=[CFA+16] reg20=[CFA+24] reg21=[CFA+32] reg22=[CFA+40] reg23=[CFA+48] reg24=[CFA+56] reg30=[CFA+8] reg29=[CFA]
  0x00022dc0: CFA=reg29: reg31=reg29+16 reg19=[CFA+16] reg20=[CFA+24] reg21=[CFA+32] reg22=[CFA+40] reg23=[CFA+48] reg24=[CFA+56] reg25=[CFA+64] reg26=[CFA+72] reg30=[CFA+8] reg29=[CFA]
  0x00022f24: CFA=reg31
  0x00022f38: CFA=reg29: reg31=reg29+16 reg19=[CFA+16] reg20=[CFA+24] reg21=[CFA+32] reg22=[CFA+40] reg30=[CFA+8] reg29=[CFA]
  0x00022fb0: CFA=reg29: reg31=reg29+16 reg19=[CFA+16] reg20=[CFA+24] reg21=[CFA+32] reg22=[CFA+40] reg23=[CFA+48] reg24=[CFA+56] reg25=[CFA+64] reg26=[CFA+72] reg27=[CFA+80] reg28=[CFA+88] reg14=[CFA+96] reg15=[CFA+104] reg30=[CFA+8] reg29=[CFA]
  0x0002379c: CFA=reg29: reg31=reg29+16 reg19=[CFA+16] reg20=[CFA+24] reg21=[CFA+32] reg22=[CFA+40] reg23=[CFA+48] reg24=[CFA+56] reg25=[CFA+64] reg26=[CFA+72] reg27=[CFA+80] reg28=[CFA+88] reg30=[CFA+8] reg29=[CFA]
  0x00023bac: CFA=reg29: reg31=reg29+16 reg19=[CFA+16] reg20=[CFA+24] reg21=[CFA+32] reg22=[CFA+40] reg23=[CFA+48] reg24=[CFA+56] reg25=[CFA+64] reg26=[CFA+72] reg30=[CFA+8] reg29=[CFA]
  0x00023d1c: CFA=reg29: reg31=reg29+16 reg19=[CFA+16] reg20=[CFA+24] reg30=[CFA+8] reg29=[CFA]
  0x00023d4c: CFA=reg29: reg31=reg29+16 reg19=[CFA+16] reg20=[CFA+24] reg21=[CFA+32] reg22=[CFA+40] reg23=[CFA+48] reg24=[CFA+56] reg25=[CFA+64] reg26=[CFA+72] reg27=[CFA+80] reg28=[CFA+88] reg30=[CFA+8] reg29=[CFA]
  0x000241e0: CFA=reg31
  0x000241f8: CFA=reg29: reg31=reg29+16 reg19=[CFA+16] reg20=[CFA+24] reg21=[CFA+32] reg22=[CFA+40] reg23=[CFA+48] reg24=[CFA+56] reg25=[CFA+64] reg26=[CFA+72] reg30=[CFA+8] reg29=[CFA]
  0x00024304: CFA=reg29: reg31=reg29+16 reg19=[CFA+16] reg20=[CFA+24] reg21=[CFA+32] reg22=[CFA+40] reg30=[CFA+8] reg29=[CFA]
  0x0002441c: CFA=reg29: reg31=reg29+16 reg19=[CFA+16] reg20=[CFA+24] reg21=[CFA+32] reg22=[CFA+40] reg23=[CFA+48] reg24=[CFA+56] reg25=[CFA+64] reg26=[CFA+72] reg27=[CFA+80] reg28=[CFA+88] reg30=[CFA+8] reg29=[CFA]
  0x000284ac: CFA=reg29: reg31=reg29+16 reg19=[CFA+16] reg20=[CFA+24] reg21=[CFA+32] reg22=[CFA+40] reg23=[CFA+48] reg24=[CFA+56] reg25=[CFA+64] reg26=[CFA+72] reg27=[CFA+80] reg28=[CFA+88] reg30=[CFA+8] reg29=[CFA]
  0x00028bc0: CFA=reg29: reg31=reg29+16 reg19=[CFA+16] reg20=[CFA+24] reg21=[CFA+32] reg22=[CFA+40] reg23=[CFA+48] reg24=[CFA+56] reg25=[CFA+64] reg26=[CFA+72] reg27=[CFA+80] reg28=[CFA+88] reg14=[CFA+96] reg15=[CFA+104] reg30=[CFA+8] reg29=[CFA]
  0x00029418: CFA=reg29: reg31=reg29+16 reg19=[CFA+16] reg20=[CFA+24] reg21=[CFA+32] reg22=[CFA+40] reg23=[CFA+48] reg24=[CFA+56] reg25=[CFA+64] reg26=[CFA+72] reg27=[CFA+80] reg28=[CFA+88] reg30=[CFA+8] reg29=[CFA]
  0x00029a30: CFA=reg29: reg31=reg29+16 reg19=[CFA+16] reg20=[CFA+24] reg21=[CFA+32] reg22=[CFA+40] reg23=[CFA+48] reg24=[CFA+56] reg25=[CFA+64] reg26=[CFA+72] reg27=[CFA+80] reg28=[CFA+88] reg30=[CFA+8] reg29=[CFA]
  0x0002a30c: CFA=reg31
  0x0002a324: CFA=reg29: reg31=reg29+16 reg19=[CFA+16] reg20=[CFA+24] reg21=[CFA+32] reg22=[CFA+40] reg23=[CFA+48] reg24=[CFA+56] reg25=[CFA+64] reg26=[CFA+72] reg27=[CFA+80] reg28=[CFA+88] reg30=[CFA+8] reg29=[CFA]
  0x0002a508: CFA=reg31
  0x0002a674: CFA=reg29: reg31=reg29+16 reg19=[CFA+16] reg20=[CFA+24] reg21=[CFA+32] reg22=[CFA+40] reg23=[CFA+48] reg24=[CFA+56] reg25=[CFA+64] reg26=[CFA+72] reg30=[CFA+8] reg29=[CFA]
  0x0002a788: CFA=reg29: reg31=reg29+16 reg30=[CFA+8] reg29=[CFA]
  0x0002a7ac: CFA=reg29: reg31=reg29+16 reg19=[CFA+16] reg20=[CFA+24] reg30=[CFA+8] reg29=[CFA]
  0x0002a7f8: CFA=reg31
  0x0002a80c: CFA=reg29: reg31=reg29+16 reg19=[CFA+16] reg20=[CFA+24] reg21=[CFA+32] reg22=[CFA+40] reg23=[CFA+48] reg24=[CFA+56] reg30=[CFA+8] reg29=[CFA]
  0x0002ac00: CFA=reg29: reg31=reg29+16 reg19=[CFA+16] reg20=[CFA+24] reg21=[CFA+32] reg22=[CFA+40] reg23=[CFA+48] reg24=[CFA+56] reg25=[CFA+64] reg26=[CFA+72] reg27=[CFA+80] reg28=[CFA+88] reg30=[CFA+8] reg29=[CFA]
  0x0002bdf8: CFA=reg29: reg31=reg29+16 reg19=[CFA+16] reg20=[CFA+24] reg30=[CFA+8] reg29=[CFA]
  0x0002be78: CFA=reg29: reg31=reg29+16 reg19=[CFA+16] reg20=[CFA+24] reg30=[CFA+8] reg29=[CFA]
  0x0002bed0: CFA=reg29: reg31=reg29+16 reg19=[CFA+16] reg20=[CFA+24] reg21=[CFA+32] reg22=[CFA+40] reg30=[CFA+8] reg29=[CFA]
  0x0002bfe4: CFA=reg31
  0x0002c008: CFA=reg29: reg31=reg29+16 reg19=[CFA+16] reg20=[CFA+24] reg30=[CFA+8] reg29=[CFA]
  0x0002c08c: CFA=reg31
  0x0002c090: CFA=reg29: reg31=reg29+16 reg19=[CFA+16] reg20=[CFA+24] reg21=[CFA+32] reg22=[CFA+40] reg23=[CFA+48] reg24=[CFA+56] reg25=[CFA+64] reg26=[CFA+72] reg27=[CFA+80] reg28=[CFA+88] reg14=[CFA+96] reg15=[CFA+104] reg30=[CFA+8] reg29=[CFA]
  0x0002c740: CFA=reg31
  0x0002c760: CFA=reg29: reg31=reg29+16 reg30=[CFA+8] reg29=[CFA]
  0x0002c7ac: CFA=reg31
  0x0002c814: CFA=reg29: reg31=reg29+16 reg19=[CFA+16] reg20=[CFA+24] reg21=[CFA+32] reg22=[CFA+40] reg23=[CFA+48] reg24=[CFA+56] reg30=[CFA+8] reg29=[CFA]
  0x0002c980: CFA=reg29: reg31=reg29+16 reg30=[CFA+8] reg29=[CFA]
  0x0002c9cc: CFA=reg29: reg31=reg29+16 reg19=[CFA+16] reg20=[CFA+24] reg21=[CFA+32] reg22=[CFA+40] reg23=[CFA+48] reg24=[CFA+56] reg25=[CFA+64] reg26=[CFA+72] reg27=[CFA+80] reg28=[CFA+88] reg30=[CFA+8] reg29=[CFA]
  0x0002cd0c: CFA=reg31
  0x0002cd2c: CFA=reg29: reg31=reg29+16 reg30=[CFA+8] reg29=[CFA]
  0x0002ce5c: CFA=reg29: reg31=reg29+16 reg19=[CFA+16] reg20=[CFA+24] reg21=[CFA+32] reg22=[CFA+40] reg30=[CFA+8] reg29=[CFA]
  0x0002d018: CFA=reg29: reg31=reg29+16 reg19=[CFA+16] reg20=[CFA+24] reg21=[CFA+32] reg22=[CFA+40] reg23=[CFA+48] reg24=[CFA+56] reg25=[CFA+64] reg26=[CFA+72] reg30=[CFA+8] reg29=[CFA]
  0x0002d1c8: CFA=reg29: reg31=reg29+16 reg19=[CFA+16] reg20=[CFA+24] reg21=[CFA+32] reg22=[CFA+40] reg30=[CFA+8] reg29=[CFA]
  0x0002d2e4: CFA=reg29: reg31=reg29+16 reg30=[CFA+8] reg29=[CFA]
  0x0002d324: CFA=reg31
  0x0002d328: CFA=reg29: reg31=reg29+16 reg19=[CFA+16] reg20=[CFA+24] reg21=[CFA+32] reg22=[CFA+40] reg30=[CFA+8] reg29=[CFA]
  0x0002d4c0: CFA=reg29: reg31=reg29+16 reg30=[CFA+8] reg29=[CFA]
  0x0002d544: CFA=reg29: reg31=reg29+16 reg19=[CFA+16] reg20=[CFA+24] reg21=[CFA+32] reg22=[CFA+40] reg30=[CFA+8] reg29=[CFA]
  0x0002d644: CFA=reg31
  0x0002d64c: CFA=reg29: reg31=reg29+16 reg30=[CFA+8] reg29=[CFA]
  0x0002d6d0: CFA=reg29: reg31=reg29+16 reg19=[CFA+16] reg20=[CFA+24] reg21=[CFA+32] reg22=[CFA+40] reg23=[CFA+48] reg24=[CFA+56] reg25=[CFA+64] reg26=[CFA+72] reg30=[CFA+8] reg29=[CFA]
  0x0002d7d0: CFA=reg31
  0x0002d7d8: CFA=reg29: reg31=reg29+16 reg30=[CFA+8] reg29=[CFA]
  0x0002d81c: CFA=reg29: reg31=reg29+16 reg19=[CFA+16] reg20=[CFA+24] reg21=[CFA+32] reg22=[CFA+40] reg23=[CFA+48] reg24=[CFA+56] reg25=[CFA+64] reg26=[CFA+72] reg27=[CFA+80] reg28=[CFA+88] reg30=[CFA+8] reg29=[CFA]
  0x0002e05c: CFA=reg29: reg31=reg29+16 reg19=[CFA+16] reg20=[CFA+24] reg21=[CFA+32] reg22=[CFA+40] reg23=[CFA+48] reg24=[CFA+56] reg30=[CFA+8] reg29=[CFA]
  0x0002e450: CFA=reg31
  0x0002e4a4: CFA=reg29: reg31=reg29+16 reg19=[CFA+16] reg20=[CFA+24] reg21=[CFA+32] reg22=[CFA+40] reg23=[CFA+48] reg24=[CFA+56] reg30=[CFA+8] reg29=[CFA]
  0x0002e678: CFA=reg29: reg31=reg29+16 reg19=[CFA+16] reg20=[CFA+24] reg21=[CFA+32] reg22=[CFA+40] reg23=[CFA+48] reg24=[CFA+56] reg30=[CFA+8] reg29=[CFA]
  0x0002e7e4: CFA=reg29: reg31=reg29+16 reg19=[CFA+16] reg20=[CFA+24] reg21=[CFA+32] reg22=[CFA+40] reg23=[CFA+48] reg24=[CFA+56] reg25=[CFA+64] reg26=[CFA+72] reg27=[CFA+80] reg28=[CFA+88] reg30=[CFA+8] reg29=[CFA]
  0x0002ea08: CFA=reg31
  0x0002ea0c: CFA=reg29: reg31=reg29+16 reg19=[CFA+16] reg20=[CFA+24] reg21=[CFA+32] reg22=[CFA+40] reg23=[CFA+48] reg24=[CFA+56] reg25=[CFA+64] reg26=[CFA+72] reg30=[CFA+8] reg29=[CFA]
  0x0002ebb8: CFA=reg29: reg31=reg29+16 reg19=[CFA+16] reg20=[CFA+24] reg21=[CFA+32] reg22=[CFA+40] reg23=[CFA+48] reg24=[CFA+56] reg30=[CFA+8] reg29=[CFA]
  0x0002ed0c: CFA=reg29: reg31=reg29+16 reg19=[CFA+16] reg20=[CFA+24] reg30=[CFA+8] reg29=[CFA]
  0x0002ed30: CFA=reg29: reg31=reg29+16 reg19=[CFA+16] reg20=[CFA+24] reg21=[CFA+32] reg22=[CFA+40] reg23=[CFA+48] reg24=[CFA+56] reg25=[CFA+64] reg26=[CFA+72] reg30=[CFA+8] reg29=[CFA]
  0x0002ee2c: CFA=reg29: reg31=reg29+16 reg19=[CFA+16] reg20=[CFA+24] reg21=[CFA+32] reg22=[CFA+40] reg30=[CFA+8] reg29=[CFA]
  0x0002eea0: CFA=reg29: reg31=reg29+16 reg19=[CFA+16] reg20=[CFA+24] reg21=[CFA+32] reg22=[CFA+40] reg30=[CFA+8] reg29=[CFA]
  0x0002efa0: CFA=reg31
  0x0002f01c: CFA=reg29: reg31=reg29+16 reg19=[CFA+16] reg20=[CFA+24] reg21=[CFA+32] reg22=[CFA+40] reg23=[CFA+48] reg24=[CFA+56] reg25=[CFA+64] reg26=[CFA+72] reg30=[CFA+8] reg29=[CFA]
  0x0002f1c8: CFA=reg31
  0x0002f1d4: CFA=reg29: reg31=reg29+16 reg19=[CFA+16] reg20=[CFA+24] reg21=[CFA+32] reg22=[CFA+40] reg23=[CFA+48] reg24=[CFA+56] reg25=[CFA+64] reg26=[CFA+72] reg27=[CFA+80] reg28=[CFA+88] reg30=[CFA+8] reg29=[CFA]
  0x0002f648: CFA=reg31
  0x0002f66c: CFA=reg29: reg31=reg29+16 reg19=[CFA+16] reg20=[CFA+24] reg21=[CFA+32] reg22=[CFA+40] reg23=[CFA+48] reg24=[CFA+56] reg30=[CFA+8] reg29=[CFA]
  0x0002f7d8: CFA=reg31
  0x0002f9d8: CFA=reg29: reg31=reg29+16 reg19=[CFA+16] reg20=[CFA+24] reg21=[CFA+32] reg22=[CFA+40] reg23=[CFA+48] reg24=[CFA+56] reg25=[CFA+64] reg26=[CFA+72] reg27=[CFA+80] reg28=[CFA+88] reg30=[CFA+8] reg29=[CFA]
  0x0002fc74: CFA=reg29: reg31=reg29+16 reg19=[CFA+16] reg20=[CFA+24] reg21=[CFA+32] reg22=[CFA+40] reg30=[CFA+8] reg29=[CFA]
  0x0002fd54: CFA=reg29: reg31=reg29+16 reg19=[CFA+16] reg20=[CFA+24] reg21=[CFA+32] reg22=[CFA+40] reg23=[CFA+48] reg24=[CFA+56] reg25=[CFA+64] reg26=[CFA+72] reg27=[CFA+80] reg28=[CFA+88] reg30=[CFA+8] reg29=[CFA]
  0x0002ffe8: CFA=reg29: reg31=reg29+16 reg19=[CFA+16] reg20=[CFA+24] reg21=[CFA+32] reg22=[CFA+40] reg23=[CFA+48] reg24=[CFA+56] reg25=[CFA+64] reg26=[CFA+72] reg27=[CFA+80] reg28=[CFA+88] reg30=[CFA+8] reg29=[CFA]
  0x00030660: CFA=reg31
  0x00030668: CFA=reg29: reg31=reg29+16 reg19=[CFA+16] reg20=[CFA+24] reg21=[CFA+32] reg22=[CFA+40] reg23=[CFA+48] reg24=[CFA+56] reg25=[CFA+64] reg26=[CFA+72] reg27=[CFA+80] reg28=[CFA+88] reg30=[CFA+8] reg29=[CFA]
  0x00030798: CFA=reg29: reg31=reg29+16 reg19=[CFA+16] reg20=[CFA+24] reg21=[CFA+32] reg22=[CFA+40] reg30=[CFA+8] reg29=[CFA]
  0x00030934: CFA=reg29: reg31=reg29+16 reg19=[CFA+16] reg20=[CFA+24] reg21=[CFA+32] reg22=[CFA+40] reg23=[CFA+48] reg24=[CFA+56] reg25=[CFA+64] reg26=[CFA+72] reg27=[CFA+80] reg28=[CFA+88] reg30=[CFA+8] reg29=[CFA]
  0x00030b28: CFA=reg29: reg31=reg29+16 reg19=[CFA+16] reg20=[CFA+24] reg21=[CFA+32] reg22=[CFA+40] reg23=[CFA+48] reg24=[CFA+56] reg25=[CFA+64] reg26=[CFA+72] reg27=[CFA+80] reg28=[CFA+88] reg30=[CFA+8] reg29=[CFA]
  0x00030d34: CFA=reg29: reg31=reg29+16 reg19=[CFA+16] reg20=[CFA+24] reg21=[CFA+32] reg22=[CFA+40] reg23=[CFA+48] reg24=[CFA+56] reg30=[CFA+8] reg29=[CFA]
  0x00030eb0: CFA=reg29: reg31=reg29+16 reg19=[CFA+16] reg20=[CFA+24] reg21=[CFA+32] reg22=[CFA+40] reg23=[CFA+48] reg24=[CFA+56] reg25=[CFA+64] reg26=[CFA+72] reg27=[CFA+80] reg28=[CFA+88] reg30=[CFA+8] reg29=[CFA]
  0x000323c0: CFA=reg29: reg31=reg29+16 reg19=[CFA+16] reg20=[CFA+24] reg21=[CFA+32] reg22=[CFA+40] reg23=[CFA+48] reg24=[CFA+56] reg25=[CFA+64] reg26=[CFA+72] reg27=[CFA+80] reg28=[CFA+88] reg14=[CFA+96] reg15=[CFA+104] reg30=[CFA+8] reg29=[CFA]
  0x00034418: CFA=reg29: reg31=reg29+16 reg19=[CFA+16] reg20=[CFA+24] reg30=[CFA+8] reg29=[CFA]
  0x000344a0: CFA=reg29: reg31=reg29+16 reg19=[CFA+16] reg20=[CFA+24] reg21=[CFA+32] reg22=[CFA+40] reg23=[CFA+48] reg24=[CFA+56] reg25=[CFA+64] reg26=[CFA+72] reg27=[CFA+80] reg28=[CFA+88] reg30=[CFA+8] reg29=[CFA]
  0x00035014: CFA=reg29: reg31=reg29+16 reg19=[CFA+16] reg20=[CFA+24] reg21=[CFA+32] reg22=[CFA+40] reg23=[CFA+48] reg24=[CFA+56] reg25=[CFA+64] reg26=[CFA+72] reg27=[CFA+80] reg28=[CFA+88] reg14=[CFA+96] reg15=[CFA+104] reg30=[CFA+8] reg29=[CFA]
  0x000354b8: CFA=reg29: reg31=reg29+16 reg19=[CFA+16] reg20=[CFA+24] reg21=[CFA+32] reg22=[CFA+40] reg23=[CFA+48] reg24=[CFA+56] reg25=[CFA+64] reg26=[CFA+72] reg27=[CFA+80] reg28=[CFA+88] reg14=[CFA+96] reg15=[CFA+104] reg30=[CFA+8] reg29=[CFA]
  0x00035a04: CFA=reg29: reg31=reg29+16 reg19=[CFA+16] reg20=[CFA+24] reg21=[CFA+32] reg22=[CFA+40] reg23=[CFA+48] reg24=[CFA+56] reg25=[CFA+64] reg26=[CFA+72] reg27=[CFA+80] reg28=[CFA+88] reg14=[CFA+96] reg15=[CFA+104] reg30=[CFA+8] reg29=[CFA]
  0x00035ea8: CFA=reg29: reg31=reg29+16 reg19=[CFA+16] reg20=[CFA+24] reg21=[CFA+32] reg22=[CFA+40] reg23=[CFA+48] reg24=[CFA+56] reg25=[CFA+64] reg26=[CFA+72] reg27=[CFA+80] reg28=[CFA+88] reg14=[CFA+96] reg15=[CFA+104] reg30=[CFA+8] reg29=[CFA]
  0x00036830: CFA=reg29: reg31=reg29+16 reg19=[CFA+16] reg20=[CFA+24] reg21=[CFA+32] reg22=[CFA+40] reg23=[CFA+48] reg24=[CFA+56] reg25=[CFA+64] reg26=[CFA+72] reg27=[CFA+80] reg28=[CFA+88] reg30=[CFA+8] reg29=[CFA]
  0x00037a10: CFA=reg29: reg31=reg29+16 reg19=[CFA+16] reg20=[CFA+24] reg21=[CFA+32] reg22=[CFA+40] reg23=[CFA+48] reg24=[CFA+56] reg30=[CFA+8] reg29=[CFA]
  0x00037aec: CFA=reg29: reg31=reg29+16 reg19=[CFA+16] reg20=[CFA+24] reg21=[CFA+32] reg22=[CFA+40] reg23=[CFA+48] reg24=[CFA+56] reg25=[CFA+64] reg26=[CFA+72] reg27=[CFA+80] reg28=[CFA+88] reg30=[CFA+8] reg29=[CFA]
  0x00039fdc: CFA=reg29: reg31=reg29+16 reg19=[CFA+16] reg20=[CFA+24] reg21=[CFA+32] reg22=[CFA+40] reg23=[CFA+48] reg24=[CFA+56] reg25=[CFA+64] reg26=[CFA+72] reg27=[CFA+80] reg28=[CFA+88] reg30=[CFA+8] reg29=[CFA]
  0x0003a324: CFA=reg29: reg31=reg29+16 reg30=[CFA+8] reg29=[CFA]
  0x0003a4c0: CFA=reg29: reg31=reg29+16 reg19=[CFA+16] reg20=[CFA+24] reg21=[CFA+32] reg22=[CFA+40] reg23=[CFA+48] reg24=[CFA+56] reg25=[CFA+64] reg26=[CFA+72] reg30=[CFA+8] reg29=[CFA]
  0x0003a780: CFA=reg31
  0x0003a7d4: CFA=reg29: reg31=reg29+16 reg19=[CFA+16] reg20=[CFA+24] reg21=[CFA+32] reg22=[CFA+40] reg23=[CFA+48] reg24=[CFA+56] reg25=[CFA+64] reg26=[CFA+72] reg27=[CFA+80] reg28=[CFA+88] reg30=[CFA+8] reg29=[CFA]
  0x0003a97c: CFA=reg29: reg31=reg29+16 reg19=[CFA+16] reg20=[CFA+24] reg21=[CFA+32] reg22=[CFA+40] reg30=[CFA+8] reg29=[CFA]
  0x0003ab2c: CFA=reg29: reg31=reg29+16 reg19=[CFA+16] reg20=[CFA+24] reg21=[CFA+32] reg22=[CFA+40] reg23=[CFA+48] reg24=[CFA+56] reg30=[CFA+8] reg29=[CFA]
  0x0003ac08: CFA=reg29: reg31=reg29+16 reg19=[CFA+16] reg20=[CFA+24] reg21=[CFA+32] reg22=[CFA+40] reg23=[CFA+48] reg24=[CFA+56] reg30=[CFA+8] reg29=[CFA]
  0x0003affc: CFA=reg31
  0x0003b02c: CFA=reg29: reg31=reg29+16 reg19=[CFA+16] reg20=[CFA+24] reg21=[CFA+32] reg22=[CFA+40] reg30=[CFA+8] reg29=[CFA]
  0x0003b0a8: CFA=reg29: reg31=reg29+16 reg19=[CFA+16] reg20=[CFA+24] reg21=[CFA+32] reg22=[CFA+40] reg23=[CFA+48] reg24=[CFA+56] reg25=[CFA+64] reg26=[CFA+72] reg27=[CFA+80] reg28=[CFA+88] reg30=[CFA+8] reg29=[CFA]
  0x0003b384: CFA=reg29: reg31=reg29+16 reg19=[CFA+16] reg20=[CFA+24] reg30=[CFA+8] reg29=[CFA]
  0x0003b4a8: CFA=reg29: reg31=reg29+16 reg19=[CFA+16] reg20=[CFA+24] reg30=[CFA+8] reg29=[CFA]
  0x0003b4fc: CFA=reg29: reg31=reg29+16 reg19=[CFA+16] reg20=[CFA+24] reg21=[CFA+32] reg22=[CFA+40] reg23=[CFA+48] reg24=[CFA+56] reg25=[CFA+64] reg26=[CFA+72] reg27=[CFA+80] reg28=[CFA+88] reg30=[CFA+8] reg29=[CFA]
  0x0003b800: CFA=reg31
  0x0003b820: CFA=reg29: reg31=reg29+16 reg19=[CFA+16] reg20=[CFA+24] reg21=[CFA+32] reg22=[CFA+40] reg23=[CFA+48] reg24=[CFA+56] reg25=[CFA+64] reg26=[CFA+72] reg27=[CFA+80] reg28=[CFA+88] reg30=[CFA+8] reg29=[CFA]
  0x0003bbe0: CFA=reg29: reg31=reg29+16 reg19=[CFA+16] reg20=[CFA+24] reg21=[CFA+32] reg22=[CFA+40] reg23=[CFA+48] reg24=[CFA+56] reg25=[CFA+64] reg26=[CFA+72] reg27=[CFA+80] reg28=[CFA+88] reg30=[CFA+8] reg29=[CFA]
  0x0003bf28: CFA=reg29: reg31=reg29+16 reg19=[CFA+16] reg20=[CFA+24] reg21=[CFA+32] reg22=[CFA+40] reg23=[CFA+48] reg24=[CFA+56] reg25=[CFA+64] reg26=[CFA+72] reg27=[CFA+80] reg28=[CFA+88] reg30=[CFA+8] reg29=[CFA]
  0x0003c2f0: CFA=reg31
  0x0003c31c: CFA=reg29: reg31=reg29+16 reg19=[CFA+16] reg20=[CFA+24] reg21=[CFA+32] reg22=[CFA+40] reg30=[CFA+8] reg29=[CFA]
  0x0003c4c4: CFA=reg29: reg31=reg29+16 reg19=[CFA+16] reg20=[CFA+24] reg21=[CFA+32] reg22=[CFA+40] reg30=[CFA+8] reg29=[CFA]
  0x0003c570: CFA=reg29: reg31=reg29+16 reg19=[CFA+16] reg20=[CFA+24] reg30=[CFA+8] reg29=[CFA]
  0x0003c5f0: CFA=reg31
  0x0003c630: CFA=reg29: reg31=reg29+16 reg19=[CFA+16] reg20=[CFA+24] reg30=[CFA+8] reg29=[CFA]
  0x0003c6c0: CFA=reg31
  0x0003c6e4: CFA=reg29: reg31=reg29+16 reg19=[CFA+16] reg20=[CFA+24] reg21=[CFA+32] reg22=[CFA+40] reg23=[CFA+48] reg24=[CFA+56] reg25=[CFA+64] reg26=[CFA+72] reg27=[CFA+80] reg28=[CFA+88] reg30=[CFA+8] reg29=[CFA]
  0x0003c9d8: CFA=reg29: reg31=reg29+16 reg19=[CFA+16] reg20=[CFA+24] reg21=[CFA+32] reg22=[CFA+40] reg30=[CFA+8] reg29=[CFA]
  0x0003ca78: CFA=reg29: reg31=reg29+16 reg19=[CFA+16] reg20=[CFA+24] reg30=[CFA+8] reg29=[CFA]
  0x0003cac0: CFA=reg29: reg31=reg29+16 reg19=[CFA+16] reg20=[CFA+24] reg21=[CFA+32] reg22=[CFA+40] reg23=[CFA+48] reg24=[CFA+56] reg25=[CFA+64] reg26=[CFA+72] reg27=[CFA+80] reg28=[CFA+88] reg30=[CFA+8] reg29=[CFA]
  0x0003cdc8: CFA=reg29: reg31=reg29+16 reg19=[CFA+16] reg20=[CFA+24] reg21=[CFA+32] reg22=[CFA+40] reg23=[CFA+48] reg24=[CFA+56] reg30=[CFA+8] reg29=[CFA]
  0x0003cebc: CFA=reg29: reg31=reg29+16 reg19=[CFA+16] reg20=[CFA+24] reg30=[CFA+8] reg29=[CFA]
  0x0003cef8: CFA=reg29: reg31=reg29+16 reg19=[CFA+16] reg20=[CFA+24] reg21=[CFA+32] reg22=[CFA+40] reg23=[CFA+48] reg24=[CFA+56] reg25=[CFA+64] reg26=[CFA+72] reg30=[CFA+8] reg29=[CFA]
  0x0003d00c: CFA=reg31
  0x0003d018: CFA=reg29: reg31=reg29+16 reg19=[CFA+16] reg20=[CFA+24] reg21=[CFA+32] reg22=[CFA+40] reg23=[CFA+48] reg24=[CFA+56] reg30=[CFA+8] reg29=[CFA]
  0x0003d0d0: CFA=reg29: reg31=reg29+16 reg19=[CFA+16] reg20=[CFA+24] reg21=[CFA+32] reg22=[CFA+40] reg23=[CFA+48] reg24=[CFA+56] reg30=[CFA+8] reg29=[CFA]
  0x0003d4c4: CFA=reg31
  0x0003d4e0: CFA=reg29: reg31=reg29+16 reg19=[CFA+16] reg20=[CFA+24] reg21=[CFA+32] reg22=[CFA+40] reg23=[CFA+48] reg24=[CFA+56] reg25=[CFA+64] reg26=[CFA+72] reg27=[CFA+80] reg28=[CFA+88] reg30=[CFA+8] reg29=[CFA]
  0x0003d5f4: CFA=reg29: reg31=reg29+16 reg19=[CFA+16] reg20=[CFA+24] reg21=[CFA+32] reg22=[CFA+40] reg30=[CFA+8] reg29=[CFA]
  0x0003d678: CFA=reg29: reg31=reg29+16 reg19=[CFA+16] reg20=[CFA+24] reg21=[CFA+32] reg22=[CFA+40] reg23=[CFA+48] reg24=[CFA+56] reg25=[CFA+64] reg26=[CFA+72] reg27=[CFA+80] reg28=[CFA+88] reg30=[CFA+8] reg29=[CFA]
  0x0003d918: CFA=reg31
  0x0003d934: CFA=reg29: reg31=reg29+16 reg19=[CFA+16] reg20=[CFA+24] reg21=[CFA+32] reg22=[CFA+40] reg30=[CFA+8] reg29=[CFA]
  0x0003d9d8: CFA=reg31
  0x0003d9f4: CFA=reg29: reg31=reg29+16 reg19=[CFA+16] reg20=[CFA+24] reg21=[CFA+32] reg22=[CFA+40] reg23=[CFA+48] reg24=[CFA+56] reg25=[CFA+64] reg26=[CFA+72] reg27=[CFA+80] reg28=[CFA+88] reg30=[CFA+8] reg29=[CFA]
  0x0003dc0c: CFA=reg31
  0x0003dc24: CFA=reg29: reg31=reg29+16 reg19=[CFA+16] reg20=[CFA+24] reg21=[CFA+32] reg22=[CFA+40] reg30=[CFA+8] reg29=[CFA]
  0x0003dde8: CFA=reg29: reg31=reg29+16 reg19=[CFA+16] reg20=[CFA+24] reg21=[CFA+32] reg22=[CFA+40] reg23=[CFA+48] reg24=[CFA+56] reg25=[CFA+64] reg26=[CFA+72] reg27=[CFA+80] reg28=[CFA+88] reg30=[CFA+8] reg29=[CFA]
  0x0003e360: CFA=reg29: reg31=reg29+16 reg19=[CFA+16] reg20=[CFA+24] reg30=[CFA+8] reg29=[CFA]
  0x0003e3b4: CFA=reg29: reg31=reg29+16 reg19=[CFA+16] reg20=[CFA+24] reg21=[CFA+32] reg22=[CFA+40] reg30=[CFA+8] reg29=[CFA]
  0x0003e4f4: CFA=reg29: reg31=reg29+16 reg19=[CFA+16] reg20=[CFA+24] reg30=[CFA+8] reg29=[CFA]
  0x0003ec24: CFA=reg29: reg31=reg29+16 reg19=[CFA+16] reg20=[CFA+24] reg21=[CFA+32] reg22=[CFA+40] reg23=[CFA+48] reg24=[CFA+56] reg30=[CFA+8] reg29=[CFA]
  0x0003ed54: CFA=reg29: reg31=reg29+16 reg19=[CFA+16] reg20=[CFA+24] reg21=[CFA+32] reg22=[CFA+40] reg23=[CFA+48] reg24=[CFA+56] reg30=[CFA+8] reg29=[CFA]
  0x0003f148: CFA=reg29: reg31=reg29+16 reg19=[CFA+16] reg20=[CFA+24] reg21=[CFA+32] reg22=[CFA+40] reg23=[CFA+48] reg24=[CFA+56] reg25=[CFA+64] reg26=[CFA+72] reg27=[CFA+80] reg28=[CFA+88] reg30=[CFA+8] reg29=[CFA]
  0x0003fe98: CFA=reg29: reg31=reg29+16 reg19=[CFA+16] reg20=[CFA+24] reg21=[CFA+32] reg22=[CFA+40] reg23=[CFA+48] reg24=[CFA+56] reg30=[CFA+8] reg29=[CFA]
  0x0003ff40: CFA=reg29: reg31=reg29+16 reg19=[CFA+16] reg20=[CFA+24] reg21=[CFA+32] reg22=[CFA+40] reg23=[CFA+48] reg24=[CFA+56] reg25=[CFA+64] reg26=[CFA+72] reg27=[CFA+80] reg28=[CFA+88] reg30=[CFA+8] reg29=[CFA]
  0x000401ec: CFA=reg29: reg31=reg29+16 reg30=[CFA+8] reg29=[CFA]
  0x00040344: CFA=reg29: reg31=reg29+16 reg19=[CFA+16] reg20=[CFA+24] reg21=[CFA+32] reg22=[CFA+40] reg23=[CFA+48] reg24=[CFA+56] reg25=[CFA+64] reg26=[CFA+72] reg27=[CFA+80] reg28=[CFA+88] reg30=[CFA+8] reg29=[CFA]
  0x0004077c: CFA=reg29: reg31=reg29+16 reg19=[CFA+16] reg20=[CFA+24] reg21=[CFA+32] reg22=[CFA+40] reg23=[CFA+48] reg24=[CFA+56] reg25=[CFA+64] reg26=[CFA+72] reg27=[CFA+80] reg28=[CFA+88] reg30=[CFA+8] reg29=[CFA]
  0x000408ac: CFA=reg29: reg31=reg29+16 reg30=[CFA+8] reg29=[CFA]
  0x00040a04: CFA=reg29: reg31=reg29+16 reg19=[CFA+16] reg20=[CFA+24] reg21=[CFA+32] reg22=[CFA+40] reg23=[CFA+48] reg24=[CFA+56] reg25=[CFA+64] reg26=[CFA+72] reg27=[CFA+80] reg28=[CFA+88] reg30=[CFA+8] reg29=[CFA]
  0x00040b48: CFA=reg29: reg31=reg29+16 reg19=[CFA+16] reg20=[CFA+24] reg21=[CFA+32] reg22=[CFA+40] reg23=[CFA+48] reg24=[CFA+56] reg25=[CFA+64] reg26=[CFA+72] reg27=[CFA+80] reg28=[CFA+88] reg14=[CFA+96] reg15=[CFA+104] reg30=[CFA+8] reg29=[CFA]
  0x00040d04: CFA=reg29: reg31=reg29+16 reg30=[CFA+8] reg29=[CFA]
  0x00040d38: CFA=reg29: reg31=reg29+16 reg19=[CFA+16] reg20=[CFA+24] reg30=[CFA+8] reg29=[CFA]
  0x00040db8: CFA=reg29: reg31=reg29+16 reg19=[CFA+16] reg20=[CFA+24] reg21=[CFA+32] reg22=[CFA+40] reg23=[CFA+48] reg24=[CFA+56] reg25=[CFA+64] reg26=[CFA+72] reg27=[CFA+80] reg28=[CFA+88] reg30=[CFA+8] reg29=[CFA]
  0x00041300: CFA=reg29: reg31=reg29+16 reg19=[CFA+16] reg20=[CFA+24] reg30=[CFA+8] reg29=[CFA]
  0x00041360: CFA=reg29: reg31=reg29+16 reg19=[CFA+16] reg20=[CFA+24] reg30=[CFA+8] reg29=[CFA]
  0x000413e0: CFA=reg31
  0x000413ec: CFA=reg29: reg31=reg29+16 reg30=[CFA+8] reg29=[CFA]
  0x00041494: CFA=reg31
  0x000414b8: CFA=reg29: reg31=reg29+16 reg19=[CFA+16] reg20=[CFA+24] reg21=[CFA+32] reg22=[CFA+40] reg23=[CFA+48] reg24=[CFA+56] reg30=[CFA+8] reg29=[CFA]
  0x00041624: CFA=reg31
  0x00041754: CFA=reg29: reg31=reg29+16 reg19=[CFA+16] reg20=[CFA+24] reg21=[CFA+32] reg22=[CFA+40] reg23=[CFA+48] reg24=[CFA+56] reg25=[CFA+64] reg26=[CFA+72] reg27=[CFA+80] reg28=[CFA+88] reg30=[CFA+8] reg29=[CFA]
  0x00041b30: CFA=reg29: reg31=reg29+16 reg19=[CFA+16] reg20=[CFA+24] reg30=[CFA+8] reg29=[CFA]
  0x00041d58: CFA=reg29: reg31=reg29+16 reg19=[CFA+16] reg20=[CFA+24] reg30=[CFA+8] reg29=[CFA]
  0x00041dd0: CFA=reg29: reg31=reg29+16 reg19=[CFA+16] reg20=[CFA+24] reg30=[CFA+8] reg29=[CFA]
  0x00041e5c: CFA=reg29: reg31=reg29+16 reg19=[CFA+16] reg20=[CFA+24] reg21=[CFA+32] reg22=[CFA+40] reg23=[CFA+48] reg24=[CFA+56] reg25=[CFA+64] reg26=[CFA+72] reg27=[CFA+80] reg28=[CFA+88] reg30=[CFA+8] reg29=[CFA]
  0x000422f8: CFA=reg29: reg31=reg29+16 reg19=[CFA+16] reg20=[CFA+24] reg21=[CFA+32] reg22=[CFA+40] reg23=[CFA+48] reg24=[CFA+56] reg30=[CFA+8] reg29=[CFA]
  0x00042430: CFA=reg29: reg31=reg29+16 reg19=[CFA+16] reg20=[CFA+24] reg30=[CFA+8] reg29=[CFA]
  0x00042540: CFA=reg29: reg31=reg29+16 reg19=[CFA+16] reg20=[CFA+24] reg30=[CFA+8] reg29=[CFA]
  0x00042660: CFA=reg31
  0x0004267c: CFA=reg29: reg31=reg29+16 reg19=[CFA+16] reg20=[CFA+24] reg21=[CFA+32] reg22=[CFA+40] reg23=[CFA+48] reg24=[CFA+56] reg25=[CFA+64] reg26=[CFA+72] reg30=[CFA+8] reg29=[CFA]
  0x00042924: CFA=reg29: reg31=reg29+16 reg19=[CFA+16] reg20=[CFA+24] reg21=[CFA+32] reg22=[CFA+40] reg23=[CFA+48] reg24=[CFA+56] reg25=[CFA+64] reg26=[CFA+72] reg27=[CFA+80] reg28=[CFA+88] reg14=[CFA+96] reg15=[CFA+104] reg30=[CFA+8] reg29=[CFA]
  0x00043948: CFA=reg29: reg31=reg29+16 reg19=[CFA+16] reg20=[CFA+24] reg30=[CFA+8] reg29=[CFA]
  0x00043a64: CFA=reg29: reg31=reg29+16 reg19=[CFA+16] reg20=[CFA+24] reg21=[CFA+32] reg22=[CFA+40] reg27=[CFA+48] reg28=[CFA+56] reg30=[CFA+8] reg29=[CFA]
  0x00043c24: CFA=reg29: reg31=reg29+16 reg19=[CFA+16] reg20=[CFA+24] reg27=[CFA+32] reg28=[CFA+40] reg30=[CFA+8] reg29=[CFA]
  0x00043da4: CFA=reg29: reg31=reg29+16 reg19=[CFA+16] reg20=[CFA+24] reg30=[CFA+8] reg29=[CFA]
  0x00043ed0: CFA=reg29: reg31=reg29+16 reg19=[CFA+16] reg20=[CFA+24] reg30=[CFA+8] reg29=[CFA]
  0x00043fa8: CFA=reg29: reg31=reg29+16 reg19=[CFA+16] reg20=[CFA+24] reg21=[CFA+32] reg22=[CFA+40] reg23=[CFA+48] reg24=[CFA+56] reg25=[CFA+64] reg26=[CFA+72] reg27=[CFA+80] reg28=[CFA+88] reg30=[CFA+8] reg29=[CFA]
  0x000442c4: CFA=reg29: reg31=reg29+16 reg19=[CFA+16] reg20=[CFA+24] reg21=[CFA+32] reg22=[CFA+40] reg23=[CFA+48] reg24=[CFA+56] reg25=[CFA+64] reg26=[CFA+72] reg27=[CFA+80] reg28=[CFA+88] reg14=[CFA+96] reg15=[CFA+104] reg30=[CFA+8] reg29=[CFA]
  0x00044958: CFA=reg29: reg31=reg29+16 reg19=[CFA+16] reg20=[CFA+24] reg21=[CFA+32] reg22=[CFA+40] reg23=[CFA+48] reg24=[CFA+56] reg30=[CFA+8] reg29=[CFA]
  0x00044bb0: CFA=reg29: reg31=reg29+16 reg19=[CFA+16] reg20=[CFA+24] reg21=[CFA+32] reg22=[CFA+40] reg23=[CFA+48] reg24=[CFA+56] reg25=[CFA+64] reg26=[CFA+72] reg27=[CFA+80] reg28=[CFA+88] reg14=[CFA+96] reg15=[CFA+104] reg30=[CFA+8] reg29=[CFA]
  0x00045224: CFA=reg29: reg31=reg29+16 reg19=[CFA+16] reg20=[CFA+24] reg21=[CFA+32] reg22=[CFA+40] reg23=[CFA+48] reg24=[CFA+56] reg25=[CFA+64] reg26=[CFA+72] reg30=[CFA+8] reg29=[CFA]
  0x000454cc: CFA=reg29: reg31=reg29+16 reg19=[CFA+16] reg20=[CFA+24] reg21=[CFA+32] reg22=[CFA+40] reg23=[CFA+48] reg24=[CFA+56] reg25=[CFA+64] reg26=[CFA+72] reg30=[CFA+8] reg29=[CFA]
  0x00045730: CFA=reg29: reg31=reg29+16 reg19=[CFA+16] reg20=[CFA+24] reg21=[CFA+32] reg22=[CFA+40] reg30=[CFA+8] reg29=[CFA]
  0x00045870: CFA=reg29: reg31=reg29+16 reg19=[CFA+16] reg20=[CFA+24] reg30=[CFA+8] reg29=[CFA]
  0x000459cc: CFA=reg29: reg31=reg29+16 reg19=[CFA+16] reg20=[CFA+24] reg21=[CFA+32] reg22=[CFA+40] reg23=[CFA+48] reg24=[CFA+56] reg25=[CFA+64] reg26=[CFA+72] reg27=[CFA+80] reg28=[CFA+88] reg30=[CFA+8] reg29=[CFA]
  0x00046034: CFA=reg29: reg31=reg29+16 reg19=[CFA+16] reg20=[CFA+24] reg21=[CFA+32] reg22=[CFA+40] reg30=[CFA+8] reg29=[CFA]
  0x00046140: CFA=reg29: reg31=reg29+16 reg19=[CFA+16] reg20=[CFA+24] reg21=[CFA+32] reg22=[CFA+40] reg23=[CFA+48] reg24=[CFA+56] reg30=[CFA+8] reg29=[CFA]
  0x00046288: CFA=reg29: reg31=reg29+16 reg19=[CFA+16] reg20=[CFA+24] reg21=[CFA+32] reg22=[CFA+40] reg23=[CFA+48] reg24=[CFA+56] reg25=[CFA+64] reg26=[CFA+72] reg27=[CFA+80] reg28=[CFA+88] reg30=[CFA+8] reg29=[CFA]
  0x00046804: CFA=reg29: reg31=reg29+16 reg19=[CFA+16] reg20=[CFA+24] reg21=[CFA+32] reg22=[CFA+40] reg23=[CFA+48] reg24=[CFA+56] reg25=[CFA+64] reg26=[CFA+72] reg27=[CFA+80] reg28=[CFA+88] reg30=[CFA+8] reg29=[CFA]
  0x00046984: CFA=reg29: reg31=reg29+16 reg19=[CFA+16] reg20=[CFA+24] reg21=[CFA+32] reg22=[CFA+40] reg30=[CFA+8] reg29=[CFA]
  0x00046a5c: CFA=reg31
  0x00046b00: CFA=reg29: reg31=reg29+16 reg19=[CFA+16] reg20=[CFA+24] reg21=[CFA+32] reg22=[CFA+40] reg30=[CFA+8] reg29=[CFA]
  0x00046b98: CFA=reg31
  0x00046d74: CFA=reg29: reg31=reg29+16 reg19=[CFA+16] reg20=[CFA+24] reg21=[CFA+32] reg22=[CFA+40] reg23=[CFA+48] reg24=[CFA+56] reg30=[CFA+8] reg29=[CFA]
  0x00046e9c: CFA=reg29: reg31=reg29+16 reg19=[CFA+16] reg20=[CFA+24] reg21=[CFA+32] reg22=[CFA+40] reg23=[CFA+48] reg24=[CFA+56] reg25=[CFA+64] reg26=[CFA+72] reg27=[CFA+80] reg28=[CFA+88] reg30=[CFA+8] reg29=[CFA]
  0x000473b0: CFA=reg29: reg31=reg29+16 reg19=[CFA+16] reg20=[CFA+24] reg21=[CFA+32] reg22=[CFA+40] reg23=[CFA+48] reg24=[CFA+56] reg25=[CFA+64] reg26=[CFA+72] reg27=[CFA+80] reg28=[CFA+88] reg14=[CFA+96] reg15=[CFA+104] reg30=[CFA+8] reg29=[CFA]
  0x00049c78: CFA=reg29: reg31=reg29+16 reg19=[CFA+16] reg20=[CFA+24] reg21=[CFA+32] reg22=[CFA+40] reg23=[CFA+48] reg24=[CFA+56] reg25=[CFA+64] reg26=[CFA+72] reg27=[CFA+80] reg28=[CFA+88] reg30=[CFA+8] reg29=[CFA]
  0x0004ade4: CFA=reg29: reg31=reg29+16 reg19=[CFA+16] reg20=[CFA+24] reg21=[CFA+32] reg22=[CFA+40] reg23=[CFA+48] reg24=[CFA+56] reg25=[CFA+64] reg26=[CFA+72] reg27=[CFA+80] reg28=[CFA+88] reg30=[CFA+8] reg29=[CFA]
  0x0004b58c: CFA=reg31
  0x0004b590: CFA=reg29: reg31=reg29+16 reg19=[CFA+16] reg20=[CFA+24] reg21=[CFA+32] reg22=[CFA+40] reg30=[CFA+8] reg29=[CFA]
  0x0004b6e8: CFA=reg29: reg31=reg29+16 reg19=[CFA+16] reg20=[CFA+24] reg21=[CFA+32] reg22=[CFA+40] reg23=[CFA+48] reg24=[CFA+56] reg25=[CFA+64] reg26=[CFA+72] reg27=[CFA+80] reg28=[CFA+88] reg30=[CFA+8] reg29=[CFA]
  0x0004b940: CFA=reg31
  0x0004b948: CFA=reg29: reg31=reg29+16 reg19=[CFA+16] reg20=[CFA+24] reg21=[CFA+32] reg22=[CFA+40] reg30=[CFA+8] reg29=[CFA]
  0x0004ba40: CFA=reg29: reg31=reg29+16 reg30=[CFA+8] reg29=[CFA]
  0x0004bac4: CFA=reg31
  0x0004bc20: CFA=reg29: reg31=reg29+16 reg19=[CFA+16] reg20=[CFA+24] reg21=[CFA+32] reg22=[CFA+40] reg23=[CFA+48] reg24=[CFA+56] reg25=[CFA+64] reg26=[CFA+72] reg27=[CFA+80] reg28=[CFA+88] reg30=[CFA+8] reg29=[CFA]
  0x0004c0f8: CFA=reg31
  0x0004c100: CFA=reg29: reg31=reg29+16 reg30=[CFA+8] reg29=[CFA]
  0x0004c240: CFA=reg31
  0x0004c254: CFA=reg29: reg31=reg29+16 reg19=[CFA+16] reg20=[CFA+24] reg21=[CFA+32] reg22=[CFA+40] reg23=[CFA+48] reg24=[CFA+56] reg25=[CFA+64] reg26=[CFA+72] reg27=[CFA+80] reg28=[CFA+88] reg30=[CFA+8] reg29=[CFA]
  0x0004c4e4: CFA=reg29: reg31=reg29+16 reg19=[CFA+16] reg20=[CFA+24] reg21=[CFA+32] reg22=[CFA+40] reg30=[CFA+8] reg29=[CFA]
  0x0004c564: CFA=reg29: reg31=reg29+16 reg30=[CFA+8] reg29=[CFA]
  0x0004c920: CFA=reg29: reg31=reg29+16 reg19=[CFA+16] reg20=[CFA+24] reg21=[CFA+32] reg22=[CFA+40] reg23=[CFA+48] reg24=[CFA+56] reg25=[CFA+64] reg26=[CFA+72] reg30=[CFA+8] reg29=[CFA]
  0x0004cc64: CFA=reg29: reg31=reg29+16 reg30=[CFA+8] reg29=[CFA]
  0x0004cd64: CFA=reg31
  0x0004cd84: CFA=reg29: reg31=reg29+16 reg30=[CFA+8] reg29=[CFA]
  0x0004cdbc: CFA=reg29: reg31=reg29+16 reg19=[CFA+16] reg20=[CFA+24] reg21=[CFA+32] reg22=[CFA+40] reg23=[CFA+48] reg24=[CFA+56] reg30=[CFA+8] reg29=[CFA]
  0x0004d008: CFA=reg29: reg31=reg29+16 reg30=[CFA+8] reg29=[CFA]
  0x0004d23c: CFA=reg29: reg31=reg29+16 reg19=[CFA+16] reg20=[CFA+24] reg30=[CFA+8] reg29=[CFA]
  0x0004d3c8: CFA=reg29: reg31=reg29+16 reg19=[CFA+16] reg20=[CFA+24] reg21=[CFA+32] reg22=[CFA+40] reg23=[CFA+48] reg24=[CFA+56] reg30=[CFA+8] reg29=[CFA]
  0x0004d6e0: CFA=reg29: reg31=reg29+16 reg30=[CFA+8] reg29=[CFA]
  0x0004da70: CFA=reg29: reg31=reg29+16 reg19=[CFA+16] reg20=[CFA+24] reg21=[CFA+32] reg22=[CFA+40] reg23=[CFA+48] reg24=[CFA+56] reg25=[CFA+64] reg26=[CFA+72] reg30=[CFA+8] reg29=[CFA]
  0x0004dc14: CFA=reg29: reg31=reg29+16 reg30=[CFA+8] reg29=[CFA]
  0x0004dd5c: CFA=reg31
  0x0004dd8c: CFA=reg29: reg31=reg29+16 reg30=[CFA+8] reg29=[CFA]
  0x0004dfa4: CFA=reg29: reg31=reg29+16 reg19=[CFA+16] reg20=[CFA+24] reg21=[CFA+32] reg22=[CFA+40] reg30=[CFA+8] reg29=[CFA]
  0x0004e12c: CFA=reg29: reg31=reg29+16 reg30=[CFA+8] reg29=[CFA]
  0x0004e164: CFA=reg31
  0x0004e178: CFA=reg29: reg31=reg29+16 reg19=[CFA+16] reg20=[CFA+24] reg21=[CFA+32] reg22=[CFA+40] reg23=[CFA+48] reg24=[CFA+56] reg25=[CFA+64] reg26=[CFA+72] reg27=[CFA+80] reg28=[CFA+88] reg30=[CFA+8] reg29=[CFA]
  0x0004e72c: CFA=reg29: reg31=reg29+16 reg19=[CFA+16] reg20=[CFA+24] reg30=[CFA+8] reg29=[CFA]
  0x0004e7a8: CFA=reg29: reg31=reg29+16 reg30=[CFA+8] reg29=[CFA]
  0x0004ec54: CFA=reg29: reg31=reg29+16 reg19=[CFA+16] reg20=[CFA+24] reg21=[CFA+32] reg22=[CFA+40] reg23=[CFA+48] reg24=[CFA+56] reg25=[CFA+64] reg26=[CFA+72] reg30=[CFA+8] reg29=[CFA]
  0x0004ee04: CFA=reg29: reg31=reg29+16 reg30=[CFA+8] reg29=[CFA]
  0x0004ef3c: CFA=reg31
  0x0004ef44: CFA=reg29: reg31=reg29+16 reg30=[CFA+8] reg29=[CFA]
  0x0004f084: CFA=reg29: reg31=reg29+16 reg19=[CFA+16] reg20=[CFA+24] reg21=[CFA+32] reg22=[CFA+40] reg23=[CFA+48] reg24=[CFA+56] reg30=[CFA+8] reg29=[CFA]
  0x0004f310: CFA=reg29: reg31=reg29+16 reg30=[CFA+8] reg29=[CFA]
  0x0004f34c: CFA=reg31
  0x0004f380: CFA=reg29: reg31=reg29+16 reg19=[CFA+16] reg20=[CFA+24] reg21=[CFA+32] reg22=[CFA+40] reg23=[CFA+48] reg24=[CFA+56] reg25=[CFA+64] reg26=[CFA+72] reg27=[CFA+80] reg28=[CFA+88] reg30=[CFA+8] reg29=[CFA]
  0x0004f8ec: CFA=reg29: reg31=reg29+16 reg30=[CFA+8] reg29=[CFA]
  0x0004fc68: CFA=reg31
  0x0004fef0: CFA=reg29: reg31=reg29+16 reg30=[CFA+8] reg29=[CFA]
  0x00050030: CFA=reg29: reg31=reg29+16 reg19=[CFA+16] reg20=[CFA+24] reg21=[CFA+32] reg22=[CFA+40] reg23=[CFA+48] reg24=[CFA+56] reg25=[CFA+64] reg26=[CFA+72] reg27=[CFA+80] reg28=[CFA+88] reg30=[CFA+8] reg29=[CFA]
  0x00050550: CFA=reg31
  0x00050744: CFA=reg29: reg31=reg29+16 reg19=[CFA+16] reg20=[CFA+24] reg21=[CFA+32] reg22=[CFA+40] reg23=[CFA+48] reg24=[CFA+56] reg30=[CFA+8] reg29=[CFA]
  0x0005085c: CFA=reg29: reg31=reg29+16 reg30=[CFA+8] reg29=[CFA]
  0x000508f8: CFA=reg31
  0x00050a14: CFA=reg29: reg31=reg29+16 reg30=[CFA+8] reg29=[CFA]
  0x00050da0: CFA=reg31
  0x00050da8: CFA=reg29: reg31=reg29+16 reg19=[CFA+16] reg20=[CFA+24] reg30=[CFA+8] reg29=[CFA]
  0x00050e88: CFA=reg31
  0x00050f20: CFA=reg29: reg31=reg29+16 reg19=[CFA+16] reg20=[CFA+24] reg21=[CFA+32] reg22=[CFA+40] reg23=[CFA+48] reg24=[CFA+56] reg25=[CFA+64] reg26=[CFA+72] reg30=[CFA+8] reg29=[CFA]
  0x0005114c: CFA=reg29: reg31=reg29+16 reg19=[CFA+16] reg20=[CFA+24] reg21=[CFA+32] reg22=[CFA+40] reg23=[CFA+48] reg24=[CFA+56] reg25=[CFA+64] reg26=[CFA+72] reg27=[CFA+80] reg28=[CFA+88] reg30=[CFA+8] reg29=[CFA]
  0x00053cd4: CFA=reg31
  0x00053d04: CFA=reg29: reg31=reg29+16 reg30=[CFA+8] reg29=[CFA]
  0x00053f8c: CFA=reg31
  0x00053fa4: CFA=reg29: reg31=reg29+16 reg19=[CFA+16] reg20=[CFA+24] reg21=[CFA+32] reg22=[CFA+40] reg30=[CFA+8] reg29=[CFA]
  0x000540a0: CFA=reg29: reg31=reg29+16 reg19=[CFA+16] reg20=[CFA+24] reg30=[CFA+8] reg29=[CFA]
  0x000541c4: CFA=reg29: reg31=reg29+16 reg30=[CFA+8] reg29=[CFA]
  0x00054498: CFA=reg31
  0x000544b0: CFA=reg29: reg31=reg29+16 reg19=[CFA+16] reg20=[CFA+24] reg30=[CFA+8] reg29=[CFA]
  0x00054678: CFA=reg31
  0x00054680: CFA=reg29: reg31=reg29+16 reg19=[CFA+16] reg20=[CFA+24] reg21=[CFA+32] reg22=[CFA+40] reg23=[CFA+48] reg24=[CFA+56] reg30=[CFA+8] reg29=[CFA]
  0x00054ff4: CFA=reg29: reg31=reg29+16 reg19=[CFA+16] reg20=[CFA+24] reg21=[CFA+32] reg22=[CFA+40] reg30=[CFA+8] reg29=[CFA]
  0x000551d8: CFA=reg31
  0x000551e0: CFA=reg29: reg31=reg29+16 reg19=[CFA+16] reg20=[CFA+24] reg21=[CFA+32] reg22=[CFA+40] reg30=[CFA+8] reg29=[CFA]
  0x00055474: CFA=reg29: reg31=reg29+16 reg19=[CFA+16] reg20=[CFA+24] reg30=[CFA+8] reg29=[CFA]
  0x0005563c: CFA=reg31
  0x00055644: CFA=reg29: reg31=reg29+16 reg19=[CFA+16] reg20=[CFA+24] reg21=[CFA+32] reg22=[CFA+40] reg30=[CFA+8] reg29=[CFA]
  0x00055d5c: CFA=reg29: reg31=reg29+16 reg19=[CFA+16] reg20=[CFA+24] reg30=[CFA+8] reg29=[CFA]
  0x00055f28: CFA=reg29: reg31=reg29+16 reg19=[CFA+16] reg20=[CFA+24] reg21=[CFA+32] reg22=[CFA+40] reg30=[CFA+8] reg29=[CFA]
  0x0005602c: CFA=reg29: reg31=reg29+16 reg19=[CFA+16] reg20=[CFA+24] reg30=[CFA+8] reg29=[CFA]
  0x00056214: CFA=reg31
  0x0005621c: CFA=reg29: reg31=reg29+16 reg19=[CFA+16] reg20=[CFA+24] reg21=[CFA+32] reg22=[CFA+40] reg30=[CFA+8] reg29=[CFA]
  0x000566ac: CFA=reg29: reg31=reg29+16 reg19=[CFA+16] reg20=[CFA+24] reg30=[CFA+8] reg29=[CFA]
  0x00056894: CFA=reg31
  0x00056960: CFA=reg29: reg31=reg29+16 reg19=[CFA+16] reg20=[CFA+24] reg30=[CFA+8] reg29=[CFA]
  0x00056b28: CFA=reg29: reg31=reg29+16 reg19=[CFA+16] reg20=[CFA+24] reg21=[CFA+32] reg22=[CFA+40] reg30=[CFA+8] reg29=[CFA]
  0x00056f98: CFA=reg29: reg31=reg29+16 reg19=[CFA+16] reg20=[CFA+24] reg30=[CFA+8] reg29=[CFA]
  0x00057368: CFA=reg29: reg31=reg29+16 reg19=[CFA+16] reg20=[CFA+24] reg21=[CFA+32] reg22=[CFA+40] reg30=[CFA+8] reg29=[CFA]
  0x00057464: CFA=reg29: reg31=reg29+16 reg19=[CFA+16] reg20=[CFA+24] reg30=[CFA+8] reg29=[CFA]
  0x000576b0: CFA=reg29: reg31=reg29+16 reg19=[CFA+16] reg20=[CFA+24] reg21=[CFA+32] reg22=[CFA+40] reg23=[CFA+48] reg24=[CFA+56] reg30=[CFA+8] reg29=[CFA]
  0x000578e8: CFA=reg29: reg31=reg29+16 reg19=[CFA+16] reg20=[CFA+24] reg30=[CFA+8] reg29=[CFA]
  0x00057b1c: CFA=reg29: reg31=reg29+16 reg19=[CFA+16] reg20=[CFA+24] reg21=[CFA+32] reg22=[CFA+40] reg30=[CFA+8] reg29=[CFA]
  0x000580f0: CFA=reg29: reg31=reg29+16 reg19=[CFA+16] reg20=[CFA+24] reg30=[CFA+8] reg29=[CFA]
  0x000582b8: CFA=reg29: reg31=reg29+16 reg19=[CFA+16] reg20=[CFA+24] reg21=[CFA+32] reg22=[CFA+40] reg30=[CFA+8] reg29=[CFA]
  0x000583bc: CFA=reg29: reg31=reg29+16 reg19=[CFA+16] reg20=[CFA+24] reg30=[CFA+8] reg29=[CFA]
  0x000584b0: CFA=reg29: reg31=reg29+16 reg19=[CFA+16] reg20=[CFA+24] reg21=[CFA+32] reg22=[CFA+40] reg30=[CFA+8] reg29=[CFA]
  0x000585d0: CFA=reg29: reg31=reg29+16 reg19=[CFA+16] reg20=[CFA+24] reg30=[CFA+8] reg29=[CFA]
  0x00058878: CFA=reg29: reg31=reg29+16 reg19=[CFA+16] reg20=[CFA+24] reg21=[CFA+32] reg22=[CFA+40] reg30=[CFA+8] reg29=[CFA]
  0x0005897c: CFA=reg29: reg31=reg29+16 reg19=[CFA+16] reg20=[CFA+24] reg30=[CFA+8] reg29=[CFA]
  0x00058b4c: CFA=reg31
  0x00058e54: CFA=reg29: reg31=reg29+16 reg19=[CFA+16] reg20=[CFA+24] reg21=[CFA+32] reg22=[CFA+40] reg30=[CFA+8] reg29=[CFA]
  0x000590cc: CFA=reg31
  0x0005956c: CFA=reg29: reg31=reg29+16 reg19=[CFA+16] reg20=[CFA+24] reg30=[CFA+8] reg29=[CFA]
  0x00059754: CFA=reg29: reg31=reg29+16 reg19=[CFA+16] reg20=[CFA+24] reg21=[CFA+32] reg22=[CFA+40] reg30=[CFA+8] reg29=[CFA]
  0x00059f8c: CFA=reg29: reg31=reg29+16 reg19=[CFA+16] reg20=[CFA+24] reg30=[CFA+8] reg29=[CFA]
  0x0005a15c: CFA=reg29: reg31=reg29+16 reg19=[CFA+16] reg20=[CFA+24] reg21=[CFA+32] reg22=[CFA+40] reg30=[CFA+8] reg29=[CFA]
  0x0005a260: CFA=reg31
  0x0005a268: CFA=reg29: reg31=reg29+16 reg19=[CFA+16] reg20=[CFA+24] reg21=[CFA+32] reg22=[CFA+40] reg30=[CFA+8] reg29=[CFA]
  0x0005a448: CFA=reg31
  0x0005a450: CFA=reg29: reg31=reg29+16 reg19=[CFA+16] reg20=[CFA+24] reg21=[CFA+32] reg22=[CFA+40] reg30=[CFA+8] reg29=[CFA]
  0x0005a688: CFA=reg29: reg31=reg29+16 reg19=[CFA+16] reg20=[CFA+24] reg30=[CFA+8] reg29=[CFA]
  0x0005a8b4: CFA=reg31
  0x0005a8bc: CFA=reg29: reg31=reg29+16 reg19=[CFA+16] reg20=[CFA+24] reg21=[CFA+32] reg22=[CFA+40] reg23=[CFA+48] reg24=[CFA+56] reg30=[CFA+8] reg29=[CFA]
  0x0005aa38: CFA=reg31
  0x0005aa6c: CFA=reg29: reg31=reg29+16 reg19=[CFA+16] reg20=[CFA+24] reg30=[CFA+8] reg29=[CFA]
  0x0005aefc: CFA=reg29: reg31=reg29+16 reg19=[CFA+16] reg20=[CFA+24] reg21=[CFA+32] reg22=[CFA+40] reg23=[CFA+48] reg24=[CFA+56] reg25=[CFA+64] reg26=[CFA+72] reg27=[CFA+80] reg28=[CFA+88] reg30=[CFA+8] reg29=[CFA]
  0x0005bb20: CFA=reg31
  0x0005bb40: CFA=reg29: reg31=reg29+16 reg19=[CFA+16] reg20=[CFA+24] reg21=[CFA+32] reg22=[CFA+40] reg23=[CFA+48] reg24=[CFA+56] reg25=[CFA+64] reg26=[CFA+72] reg27=[CFA+80] reg28=[CFA+88] reg30=[CFA+8] reg29=[CFA]
  0x0005c898: CFA=reg29: reg31=reg29+16 reg19=[CFA+16] reg20=[CFA+24] reg21=[CFA+32] reg22=[CFA+40] reg23=[CFA+48] reg24=[CFA+56] reg25=[CFA+64] reg26=[CFA+72] reg27=[CFA+80] reg28=[CFA+88] reg30=[CFA+8] reg29=[CFA]

0x0005e160: Compressed page with 1020 entries and 1 local opcodes
  0x0005e160: CFA=reg29: reg31=reg29+16 reg19=[CFA+16] reg20=[CFA+24] reg21=[CFA+32] reg22=[CFA+40] reg23=[CFA+48] reg24=[CFA+56] reg30=[CFA+8] reg29=[CFA]
  0x0005e6c0: CFA=reg29: reg31=reg29+16 reg19=[CFA+16] reg20=[CFA+24] reg21=[CFA+32] reg22=[CFA+40] reg23=[CFA+48] reg24=[CFA+56] reg25=[CFA+64] reg26=[CFA+72] reg27=[CFA+80] reg28=[CFA+88] reg30=[CFA+8] reg29=[CFA]
  0x0005eabc: CFA=reg31
  0x0005ead4: CFA=reg29: reg31=reg29+16 reg19=[CFA+16] reg20=[CFA+24] reg21=[CFA+32] reg22=[CFA+40] reg30=[CFA+8] reg29=[CFA]
  0x0005eb64: CFA=reg29: reg31=reg29+16 reg19=[CFA+16] reg20=[CFA+24] reg21=[CFA+32] reg22=[CFA+40] reg23=[CFA+48] reg24=[CFA+56] reg30=[CFA+8] reg29=[CFA]
  0x0005edac: CFA=reg29: reg31=reg29+16 reg19=[CFA+16] reg20=[CFA+24] reg30=[CFA+8] reg29=[CFA]
  0x0005ede8: CFA=reg29: reg31=reg29+16 reg19=[CFA+16] reg20=[CFA+24] reg30=[CFA+8] reg29=[CFA]
  0x0005ee34: CFA=reg29: reg31=reg29+16 reg19=[CFA+16] reg20=[CFA+24] reg21=[CFA+32] reg22=[CFA+40] reg23=[CFA+48] reg24=[CFA+56] reg30=[CFA+8] reg29=[CFA]
  0x0005f200: CFA=reg29: reg31=reg29+16 reg19=[CFA+16] reg20=[CFA+24] reg21=[CFA+32] reg22=[CFA+40] reg23=[CFA+48] reg24=[CFA+56] reg30=[CFA+8] reg29=[CFA]
  0x0005f4a8: CFA=reg29: reg31=reg29+16 reg19=[CFA+16] reg20=[CFA+24] reg21=[CFA+32] reg22=[CFA+40] reg23=[CFA+48] reg24=[CFA+56] reg25=[CFA+64] reg26=[CFA+72] reg27=[CFA+80] reg28=[CFA+88] reg30=[CFA+8] reg29=[CFA]
  0x0005f878: CFA=reg29: reg31=reg29+16 reg19=[CFA+16] reg20=[CFA+24] reg21=[CFA+32] reg22=[CFA+40] reg23=[CFA+48] reg24=[CFA+56] reg25=[CFA+64] reg26=[CFA+72] reg27=[CFA+80] reg28=[CFA+88] reg30=[CFA+8] reg29=[CFA]
  0x0005fc10: CFA=reg29: reg31=reg29+16 reg19=[CFA+16] reg20=[CFA+24] reg21=[CFA+32] reg22=[CFA+40] reg23=[CFA+48] reg24=[CFA+56] reg30=[CFA+8] reg29=[CFA]
  0x0005fd7c: CFA=reg29: reg31=reg29+16 reg19=[CFA+16] reg20=[CFA+24] reg21=[CFA+32] reg22=[CFA+40] reg23=[CFA+48] reg24=[CFA+56] reg30=[CFA+8] reg29=[CFA]
  0x0005ff74: CFA=reg29: reg31=reg29+16 reg19=[CFA+16] reg20=[CFA+24] reg30=[CFA+8] reg29=[CFA]
  0x0005ffe4: CFA=reg29: reg31=reg29+16 reg19=[CFA+16] reg20=[CFA+24] reg21=[CFA+32] reg22=[CFA+40] reg23=[CFA+48] reg24=[CFA+56] reg25=[CFA+64] reg26=[CFA+72] reg27=[CFA+80] reg28=[CFA+88] reg30=[CFA+8] reg29=[CFA]
  0x00060430: CFA=reg29: reg31=reg29+16 reg19=[CFA+16] reg20=[CFA+24] reg21=[CFA+32] reg22=[CFA+40] reg23=[CFA+48] reg24=[CFA+56] reg30=[CFA+8] reg29=[CFA]
  0x00060570: CFA=reg29: reg31=reg29+16 reg19=[CFA+16] reg20=[CFA+24] reg21=[CFA+32] reg22=[CFA+40] reg23=[CFA+48] reg24=[CFA+56] reg30=[CFA+8] reg29=[CFA]
  0x0006068c: CFA=reg29: reg31=reg29+16 reg19=[CFA+16] reg20=[CFA+24] reg21=[CFA+32] reg22=[CFA+40] reg27=[CFA+48] reg28=[CFA+56] reg30=[CFA+8] reg29=[CFA]
  0x00060a3c: CFA=reg31
  0x00060b30: CFA=reg29: reg31=reg29+16 reg19=[CFA+16] reg20=[CFA+24] reg21=[CFA+32] reg22=[CFA+40] reg23=[CFA+48] reg24=[CFA+56] reg30=[CFA+8] reg29=[CFA]
  0x00060bd8: CFA=reg29: reg31=reg29+16 reg19=[CFA+16] reg20=[CFA+24] reg30=[CFA+8] reg29=[CFA]
  0x00060dec: CFA=reg31
  0x00060dfc: CFA=reg29: reg31=reg29+16 reg19=[CFA+16] reg20=[CFA+24] reg21=[CFA+32] reg22=[CFA+40] reg30=[CFA+8] reg29=[CFA]
  0x00060f10: CFA=reg29: reg31=reg29+16 reg19=[CFA+16] reg20=[CFA+24] reg21=[CFA+32] reg22=[CFA+40] reg23=[CFA+48] reg24=[CFA+56] reg25=[CFA+64] reg26=[CFA+72] reg27=[CFA+80] reg28=[CFA+88] reg30=[CFA+8] reg29=[CFA]
  0x00063e10: CFA=reg29: reg31=reg29+16 reg19=[CFA+16] reg20=[CFA+24] reg21=[CFA+32] reg22=[CFA+40] reg23=[CFA+48] reg24=[CFA+56] reg30=[CFA+8] reg29=[CFA]
  0x000648bc: CFA=reg29: reg31=reg29+16 reg19=[CFA+16] reg20=[CFA+24] reg21=[CFA+32] reg22=[CFA+40] reg30=[CFA+8] reg29=[CFA]
  0x000649d4: CFA=reg31
  0x000649d8: CFA=reg29: reg31=reg29+16 reg19=[CFA+16] reg20=[CFA+24] reg30=[CFA+8] reg29=[CFA]
  0x00064a14: CFA=reg31
  0x00064a18: CFA=reg29: reg31=reg29+16 reg19=[CFA+16] reg20=[CFA+24] reg21=[CFA+32] reg22=[CFA+40] reg30=[CFA+8] reg29=[CFA]
  0x00064ac8: CFA=reg29: reg31=reg29+16 reg19=[CFA+16] reg20=[CFA+24] reg21=[CFA+32] reg22=[CFA+40] reg30=[CFA+8] reg29=[CFA]
  0x00064b74: CFA=reg29: reg31=reg29+16 reg19=[CFA+16] reg20=[CFA+24] reg21=[CFA+32] reg22=[CFA+40] reg30=[CFA+8] reg29=[CFA]
  0x00064e18: CFA=reg29: reg31=reg29+16 reg19=[CFA+16] reg20=[CFA+24] reg21=[CFA+32] reg22=[CFA+40] reg23=[CFA+48] reg24=[CFA+56] reg25=[CFA+64] reg26=[CFA+72] reg27=[CFA+80] reg28=[CFA+88] reg30=[CFA+8] reg29=[CFA]
  0x000655c0: CFA=reg29: reg31=reg29+16 reg19=[CFA+16] reg20=[CFA+24] reg21=[CFA+32] reg22=[CFA+40] reg23=[CFA+48] reg24=[CFA+56] reg25=[CFA+64] reg26=[CFA+72] reg30=[CFA+8] reg29=[CFA]
  0x000657f4: CFA=reg29: reg31=reg29+16 reg19=[CFA+16] reg20=[CFA+24] reg21=[CFA+32] reg22=[CFA+40] reg23=[CFA+48] reg24=[CFA+56] reg25=[CFA+64] reg26=[CFA+72] reg27=[CFA+80] reg28=[CFA+88] reg30=[CFA+8] reg29=[CFA]
  0x00065978: CFA=reg29: reg31=reg29+16 reg19=[CFA+16] reg20=[CFA+24] reg21=[CFA+32] reg22=[CFA+40] reg23=[CFA+48] reg24=[CFA+56] reg25=[CFA+64] reg26=[CFA+72] reg30=[CFA+8] reg29=[CFA]
  0x00065c4c: CFA=reg29: reg31=reg29+16 reg19=[CFA+16] reg20=[CFA+24] reg21=[CFA+32] reg22=[CFA+40] reg23=[CFA+48] reg24=[CFA+56] reg25=[CFA+64] reg26=[CFA+72] reg27=[CFA+80] reg28=[CFA+88] reg30=[CFA+8] reg29=[CFA]
  0x00065dd4: CFA=reg29: reg31=reg29+16 reg19=[CFA+16] reg20=[CFA+24] reg21=[CFA+32] reg22=[CFA+40] reg23=[CFA+48] reg24=[CFA+56] reg25=[CFA+64] reg26=[CFA+72] reg27=[CFA+80] reg28=[CFA+88] reg30=[CFA+8] reg29=[CFA]
  0x000665dc: CFA=reg29: reg31=reg29+16 reg19=[CFA+16] reg20=[CFA+24] reg21=[CFA+32] reg22=[CFA+40] reg23=[CFA+48] reg24=[CFA+56] reg27=[CFA+64] reg28=[CFA+72] reg30=[CFA+8] reg29=[CFA]
  0x000668c0: CFA=reg29: reg31=reg29+16 reg19=[CFA+16] reg20=[CFA+24] reg21=[CFA+32] reg22=[CFA+40] reg23=[CFA+48] reg24=[CFA+56] reg25=[CFA+64] reg26=[CFA+72] reg27=[CFA+80] reg28=[CFA+88] reg30=[CFA+8] reg29=[CFA]
  0x000673e8: CFA=reg29: reg31=reg29+16 reg19=[CFA+16] reg20=[CFA+24] reg21=[CFA+32] reg22=[CFA+40] reg27=[CFA+48] reg28=[CFA+56] reg30=[CFA+8] reg29=[CFA]
  0x00067bdc: CFA=reg29: reg31=reg29+16 reg19=[CFA+16] reg20=[CFA+24] reg21=[CFA+32] reg22=[CFA+40] reg23=[CFA+48] reg24=[CFA+56] reg25=[CFA+64] reg26=[CFA+72] reg30=[CFA+8] reg29=[CFA]
  0x00067fac: CFA=reg29: reg31=reg29+16 reg19=[CFA+16] reg20=[CFA+24] reg21=[CFA+32] reg22=[CFA+40] reg23=[CFA+48] reg24=[CFA+56] reg25=[CFA+64] reg26=[CFA+72] reg27=[CFA+80] reg28=[CFA+88] reg30=[CFA+8] reg29=[CFA]
  0x000682b8: CFA=reg29: reg31=reg29+16 reg19=[CFA+16] reg20=[CFA+24] reg21=[CFA+32] reg22=[CFA+40] reg23=[CFA+48] reg24=[CFA+56] reg25=[CFA+64] reg26=[CFA+72] reg27=[CFA+80] reg28=[CFA+88] reg30=[CFA+8] reg29=[CFA]
  0x000684b4: CFA=reg29: reg31=reg29+16 reg19=[CFA+16] reg20=[CFA+24] reg21=[CFA+32] reg22=[CFA+40] reg30=[CFA+8] reg29=[CFA]
  0x0006859c: CFA=reg29: reg31=reg29+16 reg19=[CFA+16] reg20=[CFA+24] reg27=[CFA+32] reg28=[CFA+40] reg30=[CFA+8] reg29=[CFA]
  0x000686dc: CFA=reg29: reg31=reg29+16 reg19=[CFA+16] reg20=[CFA+24] reg21=[CFA+32] reg22=[CFA+40] reg23=[CFA+48] reg24=[CFA+56] reg30=[CFA+8] reg29=[CFA]
  0x000687f4: CFA=reg29: reg31=reg29+16 reg19=[CFA+16] reg20=[CFA+24] reg21=[CFA+32] reg22=[CFA+40] reg30=[CFA+8] reg29=[CFA]
  0x00068954: CFA=reg29: reg31=reg29+16 reg19=[CFA+16] reg20=[CFA+24] reg21=[CFA+32] reg22=[CFA+40] reg23=[CFA+48] reg24=[CFA+56] reg25=[CFA+64] reg26=[CFA+72] reg27=[CFA+80] reg28=[CFA+88] reg30=[CFA+8] reg29=[CFA]
  0x00068db4: CFA=reg29: reg31=reg29+16 reg19=[CFA+16] reg20=[CFA+24] reg21=[CFA+32] reg22=[CFA+40] reg23=[CFA+48] reg24=[CFA+56] reg30=[CFA+8] reg29=[CFA]
  0x00068f18: CFA=reg29: reg31=reg29+16 reg19=[CFA+16] reg20=[CFA+24] reg21=[CFA+32] reg22=[CFA+40] reg23=[CFA+48] reg24=[CFA+56] reg25=[CFA+64] reg26=[CFA+72] reg27=[CFA+80] reg28=[CFA+88] reg30=[CFA+8] reg29=[CFA]
  0x00069714: CFA=reg31
  0x00069748: CFA=reg29: reg31=reg29+16 reg19=[CFA+16] reg20=[CFA+24] reg30=[CFA+8] reg29=[CFA]
  0x000699a0: CFA=reg29: reg31=reg29+16 reg19=[CFA+16] reg20=[CFA+24] reg30=[CFA+8] reg29=[CFA]
  0x00069ae0: CFA=reg31
  0x00069b04: CFA=reg29: reg31=reg29+16 reg19=[CFA+16] reg20=[CFA+24] reg21=[CFA+32] reg22=[CFA+40] reg23=[CFA+48] reg24=[CFA+56] reg25=[CFA+64] reg26=[CFA+72] reg27=[CFA+80] reg28=[CFA+88] reg30=[CFA+8] reg29=[CFA]
  0x00069ce0: CFA=reg31
  0x00069d04: CFA=reg29: reg31=reg29+16 reg19=[CFA+16] reg20=[CFA+24] reg21=[CFA+32] reg22=[CFA+40] reg30=[CFA+8] reg29=[CFA]
  0x00069ef8: CFA=reg29: reg31=reg29+16 reg19=[CFA+16] reg20=[CFA+24] reg21=[CFA+32] reg22=[CFA+40] reg30=[CFA+8] reg29=[CFA]
  0x00069fa4: CFA=reg29: reg31=reg29+16 reg19=[CFA+16] reg20=[CFA+24] reg21=[CFA+32] reg22=[CFA+40] reg30=[CFA+8] reg29=[CFA]
  0x0006a0dc: CFA=reg31
  0x0006a18c: CFA=reg29: reg31=reg29+16 reg19=[CFA+16] reg20=[CFA+24] reg30=[CFA+8] reg29=[CFA]
  0x0006a27c: CFA=reg29: reg31=reg29+16 reg19=[CFA+16] reg20=[CFA+24] reg21=[CFA+32] reg22=[CFA+40] reg23=[CFA+48] reg24=[CFA+56] reg25=[CFA+64] reg26=[CFA+72] reg27=[CFA+80] reg28=[CFA+88] reg30=[CFA+8] reg29=[CFA]
  0x0006aec4: CFA=reg29: reg31=reg29+16 reg19=[CFA+16] reg20=[CFA+24] reg21=[CFA+32] reg22=[CFA+40] reg30=[CFA+8] reg29=[CFA]
  0x0006b0b4: CFA=reg29: reg31=reg29+16 reg19=[CFA+16] reg20=[CFA+24] reg30=[CFA+8] reg29=[CFA]
  0x0006b160: CFA=reg29: reg31=reg29+16 reg19=[CFA+16] reg20=[CFA+24] reg21=[CFA+32] reg22=[CFA+40] reg23=[CFA+48] reg24=[CFA+56] reg25=[CFA+64] reg26=[CFA+72] reg27=[CFA+80] reg28=[CFA+88] reg30=[CFA+8] reg29=[CFA]
  0x0006bf0c: CFA=reg31
  0x0006bf74: CFA=reg29: reg31=reg29+16 reg19=[CFA+16] reg20=[CFA+24] reg30=[CFA+8] reg29=[CFA]
  0x0006c270: CFA=reg31
  0x0006c3a4: CFA=reg29: reg31=reg29+16 reg19=[CFA+16] reg20=[CFA+24] reg21=[CFA+32] reg22=[CFA+40] reg23=[CFA+48] reg24=[CFA+56] reg25=[CFA+64] reg26=[CFA+72] reg30=[CFA+8] reg29=[CFA]
  0x0006c56c: CFA=reg29: reg31=reg29+16 reg19=[CFA+16] reg20=[CFA+24] reg21=[CFA+32] reg22=[CFA+40] reg30=[CFA+8] reg29=[CFA]
  0x0006c8e8: CFA=reg29: reg31=reg29+16 reg30=[CFA+8] reg29=[CFA]
  0x0006cad4: CFA=reg31
  0x0006cba8: CFA=reg29: reg31=reg29+16 reg19=[CFA+16] reg20=[CFA+24] reg30=[CFA+8] reg29=[CFA]
  0x0006ce84: CFA=reg29: reg31=reg29+16 reg30=[CFA+8] reg29=[CFA]
  0x0006cef8: CFA=reg29: reg31=reg29+16 reg19=[CFA+16] reg20=[CFA+24] reg21=[CFA+32] reg22=[CFA+40] reg30=[CFA+8] reg29=[CFA]
  0x0006d018: CFA=reg29: reg31=reg29+16 reg19=[CFA+16] reg20=[CFA+24] reg30=[CFA+8] reg29=[CFA]
  0x0006d200: CFA=reg29: reg31=reg29+16 reg19=[CFA+16] reg20=[CFA+24] reg21=[CFA+32] reg22=[CFA+40] reg30=[CFA+8] reg29=[CFA]
  0x0006d304: CFA=reg29: reg31=reg29+16 reg19=[CFA+16] reg20=[CFA+24] reg30=[CFA+8] reg29=[CFA]
  0x0006d3f8: CFA=reg29: reg31=reg29+16 reg19=[CFA+16] reg20=[CFA+24] reg21=[CFA+32] reg22=[CFA+40] reg30=[CFA+8] reg29=[CFA]
  0x0006d4fc: CFA=reg29: reg31=reg29+16 reg19=[CFA+16] reg20=[CFA+24] reg30=[CFA+8] reg29=[CFA]
  0x0006d944: CFA=reg31
  0x0006d954: CFA=reg29: reg31=reg29+16 reg19=[CFA+16] reg20=[CFA+24] reg30=[CFA+8] reg29=[CFA]
  0x0006e274: CFA=reg29: reg31=reg29+16 reg19=[CFA+16] reg20=[CFA+24] reg21=[CFA+32] reg22=[CFA+40] reg30=[CFA+8] reg29=[CFA]
  0x0006e81c: CFA=reg29: reg31=reg29+16 reg19=[CFA+16] reg20=[CFA+24] reg21=[CFA+32] reg22=[CFA+40] reg23=[CFA+48] reg24=[CFA+56] reg25=[CFA+64] reg26=[CFA+72] reg30=[CFA+8] reg29=[CFA]
  0x0006e908: CFA=reg29: reg31=reg29+16 reg19=[CFA+16] reg20=[CFA+24] reg21=[CFA+32] reg22=[CFA+40] reg23=[CFA+48] reg24=[CFA+56] reg25=[CFA+64] reg26=[CFA+72] reg27=[CFA+80] reg28=[CFA+88] reg30=[CFA+8] reg29=[CFA]
  0x0006f6c4: CFA=reg29: reg31=reg29+16 reg19=[CFA+16] reg20=[CFA+24] reg30=[CFA+8] reg29=[CFA]
  0x0006f958: CFA=reg29: reg31=reg29+16 reg19=[CFA+16] reg20=[CFA+24] reg21=[CFA+32] reg22=[CFA+40] reg23=[CFA+48] reg24=[CFA+56] reg27=[CFA+64] reg28=[CFA+72] reg30=[CFA+8] reg29=[CFA]
  0x0006ff54: CFA=reg29: reg31=reg29+16 reg19=[CFA+16] reg20=[CFA+24] reg21=[CFA+32] reg22=[CFA+40] reg23=[CFA+48] reg24=[CFA+56] reg27=[CFA+64] reg28=[CFA+72] reg30=[CFA+8] reg29=[CFA]
  0x000712e0: CFA=reg29: reg31=reg29+16 reg19=[CFA+16] reg20=[CFA+24] reg21=[CFA+32] reg22=[CFA+40] reg23=[CFA+48] reg24=[CFA+56] reg25=[CFA+64] reg26=[CFA+72] reg27=[CFA+80] reg28=[CFA+88] reg30=[CFA+8] reg29=[CFA]
  0x000715bc: CFA=reg29: reg31=reg29+16 reg19=[CFA+16] reg20=[CFA+24] reg21=[CFA+32] reg22=[CFA+40] reg30=[CFA+8] reg29=[CFA]
  0x00071668: CFA=reg31
  0x000717c8: CFA=reg29: reg31=reg29+16 reg19=[CFA+16] reg20=[CFA+24] reg21=[CFA+32] reg22=[CFA+40] reg23=[CFA+48] reg24=[CFA+56] reg30=[CFA+8] reg29=[CFA]
  0x000718b8: CFA=reg29: reg31=reg29+16 reg19=[CFA+16] reg20=[CFA+24] reg21=[CFA+32] reg22=[CFA+40] reg23=[CFA+48] reg24=[CFA+56] reg30=[CFA+8] reg29=[CFA]
  0x000720ac: CFA=reg29: reg31=reg29+16 reg19=[CFA+16] reg20=[CFA+24] reg21=[CFA+32] reg22=[CFA+40] reg23=[CFA+48] reg24=[CFA+56] reg30=[CFA+8] reg29=[CFA]
  0x000722c4: CFA=reg29: reg31=reg29+16 reg19=[CFA+16] reg20=[CFA+24] reg30=[CFA+8] reg29=[CFA]
  0x00072464: CFA=reg29: reg31=reg29+16 reg19=[CFA+16] reg20=[CFA+24] reg30=[CFA+8] reg29=[CFA]
  0x000724a0: CFA=reg29: reg31=reg29+16 reg19=[CFA+16] reg20=[CFA+24] reg30=[CFA+8] reg29=[CFA]
  0x000724ec: CFA=reg29: reg31=reg29+16 reg19=[CFA+16] reg20=[CFA+24] reg21=[CFA+32] reg22=[CFA+40] reg30=[CFA+8] reg29=[CFA]
  0x0007260c: CFA=reg31
  0x00072638: CFA=reg29: reg31=reg29+16 reg19=[CFA+16] reg20=[CFA+24] reg21=[CFA+32] reg22=[CFA+40] reg30=[CFA+8] reg29=[CFA]
  0x00072804: CFA=reg29: reg31=reg29+16 reg19=[CFA+16] reg20=[CFA+24] reg21=[CFA+32] reg22=[CFA+40] reg30=[CFA+8] reg29=[CFA]
  0x00072894: CFA=reg29: reg31=reg29+16 reg19=[CFA+16] reg20=[CFA+24] reg30=[CFA+8] reg29=[CFA]
  0x000729ec: CFA=reg31
  0x00072a10: CFA=reg29: reg31=reg29+16 reg19=[CFA+16] reg20=[CFA+24] reg30=[CFA+8] reg29=[CFA]
  0x00072ac4: CFA=reg29: reg31=reg29+16 reg19=[CFA+16] reg20=[CFA+24] reg21=[CFA+32] reg22=[CFA+40] reg23=[CFA+48] reg24=[CFA+56] reg30=[CFA+8] reg29=[CFA]
  0x00072b98: CFA=reg31
  0x00072bd8: CFA=reg29: reg31=reg29+16 reg19=[CFA+16] reg20=[CFA+24] reg30=[CFA+8] reg29=[CFA]
  0x00072c14: CFA=reg31
  0x00072c98: CFA=reg29: reg31=reg29+16 reg19=[CFA+16] reg20=[CFA+24] reg21=[CFA+32] reg22=[CFA+40] reg23=[CFA+48] reg24=[CFA+56] reg30=[CFA+8] reg29=[CFA]
  0x00072d50: CFA=reg29: reg31=reg29+16 reg19=[CFA+16] reg20=[CFA+24] reg21=[CFA+32] reg22=[CFA+40] reg23=[CFA+48] reg24=[CFA+56] reg30=[CFA+8] reg29=[CFA]
  0x00072e0c: CFA=reg31
  0x00072e1c: CFA=reg29: reg31=reg29+16 reg19=[CFA+16] reg20=[CFA+24] reg21=[CFA+32] reg22=[CFA+40] reg23=[CFA+48] reg24=[CFA+56] reg25=[CFA+64] reg26=[CFA+72] reg27=[CFA+80] reg28=[CFA+88] reg30=[CFA+8] reg29=[CFA]
  0x00073270: CFA=reg29: reg31=reg29+16 reg19=[CFA+16] reg20=[CFA+24] reg21=[CFA+32] reg22=[CFA+40] reg23=[CFA+48] reg24=[CFA+56] reg27=[CFA+64] reg28=[CFA+72] reg30=[CFA+8] reg29=[CFA]
  0x00073b00: CFA=reg29: reg31=reg29+16 reg19=[CFA+16] reg20=[CFA+24] reg30=[CFA+8] reg29=[CFA]
  0x00073bc8: CFA=reg29: reg31=reg29+16 reg19=[CFA+16] reg20=[CFA+24] reg21=[CFA+32] reg22=[CFA+40] reg23=[CFA+48] reg24=[CFA+56] reg25=[CFA+64] reg26=[CFA+72] reg30=[CFA+8] reg29=[CFA]
  0x00073d10: CFA=reg29: reg31=reg29+16 reg19=[CFA+16] reg20=[CFA+24] reg21=[CFA+32] reg22=[CFA+40] reg30=[CFA+8] reg29=[CFA]
  0x00073ec4: CFA=reg31
  0x00073f1c: CFA=reg29: reg31=reg29+16 reg19=[CFA+16] reg20=[CFA+24] reg21=[CFA+32] reg22=[CFA+40] reg23=[CFA+48] reg24=[CFA+56] reg25=[CFA+64] reg26=[CFA+72] reg30=[CFA+8] reg29=[CFA]
  0x0007406c: CFA=reg29: reg31=reg29+16 reg19=[CFA+16] reg20=[CFA+24] reg30=[CFA+8] reg29=[CFA]
  0x000740a8: CFA=reg29: reg31=reg29+16 reg19=[CFA+16] reg20=[CFA+24] reg21=[CFA+32] reg22=[CFA+40] reg30=[CFA+8] reg29=[CFA]
  0x0007417c: CFA=reg29: reg31=reg29+16 reg19=[CFA+16] reg20=[CFA+24] reg21=[CFA+32] reg22=[CFA+40] reg30=[CFA+8] reg29=[CFA]
  0x000741f0: CFA=reg29: reg31=reg29+16 reg19=[CFA+16] reg20=[CFA+24] reg21=[CFA+32] reg22=[CFA+40] reg30=[CFA+8] reg29=[CFA]
  0x00074298: CFA=reg29: reg31=reg29+16 reg30=[CFA+8] reg29=[CFA]
  0x00074470: CFA=reg31
  0x00074530: CFA=reg29: reg31=reg29+16 reg19=[CFA+16] reg20=[CFA+24] reg21=[CFA+32] reg22=[CFA+40] reg30=[CFA+8] reg29=[CFA]
  0x000745f4: CFA=reg29: reg31=reg29+16 reg19=[CFA+16] reg20=[CFA+24] reg21=[CFA+32] reg22=[CFA+40] reg23=[CFA+48] reg24=[CFA+56] reg30=[CFA+8] reg29=[CFA]
  0x00074b68: CFA=reg29: reg31=reg29+16 reg19=[CFA+16] reg20=[CFA+24] reg21=[CFA+32] reg22=[CFA+40] reg23=[CFA+48] reg24=[CFA+56] reg30=[CFA+8] reg29=[CFA]
  0x00075558: CFA=reg29: reg31=reg29+16 reg19=[CFA+16] reg20=[CFA+24] reg30=[CFA+8] reg29=[CFA]
  0x000755ec: CFA=reg29: reg31=reg29+16 reg19=[CFA+16] reg20=[CFA+24] reg21=[CFA+32] reg22=[CFA+40] reg23=[CFA+48] reg24=[CFA+56] reg30=[CFA+8] reg29=[CFA]
  0x00075c50: CFA=reg29: reg31=reg29+16 reg19=[CFA+16] reg20=[CFA+24] reg21=[CFA+32] reg22=[CFA+40] reg23=[CFA+48] reg24=[CFA+56] reg30=[CFA+8] reg29=[CFA]
  0x00075e08: CFA=reg29: reg31=reg29+16 reg19=[CFA+16] reg20=[CFA+24] reg21=[CFA+32] reg22=[CFA+40] reg23=[CFA+48] reg24=[CFA+56] reg30=[CFA+8] reg29=[CFA]
  0x00075fd8: CFA=reg29: reg31=reg29+16 reg19=[CFA+16] reg20=[CFA+24] reg21=[CFA+32] reg22=[CFA+40] reg23=[CFA+48] reg24=[CFA+56] reg30=[CFA+8] reg29=[CFA]
  0x000760e0: CFA=reg29: reg31=reg29+16 reg19=[CFA+16] reg20=[CFA+24] reg21=[CFA+32] reg22=[CFA+40] reg30=[CFA+8] reg29=[CFA]
  0x00076384: CFA=reg29: reg31=reg29+16 reg19=[CFA+16] reg20=[CFA+24] reg30=[CFA+8] reg29=[CFA]
  0x000763c0: CFA=reg29: reg31=reg29+16 reg19=[CFA+16] reg20=[CFA+24] reg21=[CFA+32] reg22=[CFA+40] reg23=[CFA+48] reg24=[CFA+56] reg30=[CFA+8] reg29=[CFA]
  0x0007657c: CFA=reg31
  0x000766b8: CFA=reg29: reg31=reg29+16 reg30=[CFA+8] reg29=[CFA]
  0x000766dc: CFA=reg29: reg31=reg29+16 reg19=[CFA+16] reg20=[CFA+24] reg30=[CFA+8] reg29=[CFA]
  0x0007679c: CFA=reg31
  0x00076804: CFA=reg29: reg31=reg29+16 reg19=[CFA+16] reg20=[CFA+24] reg21=[CFA+32] reg22=[CFA+40] reg23=[CFA+48] reg24=[CFA+56] reg30=[CFA+8] reg29=[CFA]
  0x0007695c: CFA=reg29: reg31=reg29+16 reg30=[CFA+8] reg29=[CFA]
  0x000769b4: CFA=reg31
  0x00076aa4: CFA=reg29: reg31=reg29+16 reg19=[CFA+16] reg20=[CFA+24] reg30=[CFA+8] reg29=[CFA]
  0x00076b64: CFA=reg29: reg31=reg29+16 reg19=[CFA+16] reg20=[CFA+24] reg21=[CFA+32] reg22=[CFA+40] reg23=[CFA+48] reg24=[CFA+56] reg25=[CFA+64] reg26=[CFA+72] reg27=[CFA+80] reg28=[CFA+88] reg30=[CFA+8] reg29=[CFA]
  0x000776b0: CFA=reg29: reg31=reg29+16 reg30=[CFA+8] reg29=[CFA]
  0x00077734: CFA=reg31
  0x00077754: CFA=reg29: reg31=reg29+16 reg19=[CFA+16] reg20=[CFA+24] reg21=[CFA+32] reg22=[CFA+40] reg23=[CFA+48] reg24=[CFA+56] reg25=[CFA+64] reg26=[CFA+72] reg27=[CFA+80] reg28=[CFA+88] reg30=[CFA+8] reg29=[CFA]
  0x00077bec: CFA=reg31
  0x00077c70: CFA=reg29: reg31=reg29+16 reg19=[CFA+16] reg20=[CFA+24] reg30=[CFA+8] reg29=[CFA]
  0x00077e7c: CFA=reg31
  0x00077e94: CFA=reg29: reg31=reg29+16 reg19=[CFA+16] reg20=[CFA+24] reg21=[CFA+32] reg22=[CFA+40] reg23=[CFA+48] reg24=[CFA+56] reg30=[CFA+8] reg29=[CFA]
  0x00077f28: CFA=reg29: reg31=reg29+16 reg19=[CFA+16] reg20=[CFA+24] reg30=[CFA+8] reg29=[CFA]
  0x0007806c: CFA=reg31
  0x000785d8: CFA=reg29: reg31=reg29+16 reg19=[CFA+16] reg20=[CFA+24] reg21=[CFA+32] reg22=[CFA+40] reg23=[CFA+48] reg24=[CFA+56] reg25=[CFA+64] reg26=[CFA+72] reg27=[CFA+80] reg28=[CFA+88] reg30=[CFA+8] reg29=[CFA]
  0x00078fd0: CFA=reg29: reg31=reg29+16 reg19=[CFA+16] reg20=[CFA+24] reg21=[CFA+32] reg22=[CFA+40] reg30=[CFA+8] reg29=[CFA]
  0x00079048: CFA=reg31
  0x00079064: CFA=reg29: reg31=reg29+16 reg19=[CFA+16] reg20=[CFA+24] reg21=[CFA+32] reg22=[CFA+40] reg23=[CFA+48] reg24=[CFA+56] reg30=[CFA+8] reg29=[CFA]
  0x00079294: CFA=reg31
  0x000792b8: CFA=reg29: reg31=reg29+16 reg19=[CFA+16] reg20=[CFA+24] reg21=[CFA+32] reg22=[CFA+40] reg30=[CFA+8] reg29=[CFA]
  0x00079364: CFA=reg29: reg31=reg29+16 reg19=[CFA+16] reg20=[CFA+24] reg21=[CFA+32] reg22=[CFA+40] reg23=[CFA+48] reg24=[CFA+56] reg30=[CFA+8] reg29=[CFA]
  0x00079980: CFA=reg31
  0x000799a4: CFA=reg29: reg31=reg29+16 reg19=[CFA+16] reg20=[CFA+24] reg30=[CFA+8] reg29=[CFA]
  0x000799e0: CFA=reg29: reg31=reg29+16 reg19=[CFA+16] reg20=[CFA+24] reg21=[CFA+32] reg22=[CFA+40] reg30=[CFA+8] reg29=[CFA]
  0x00079a8c: CFA=reg29: reg31=reg29+16 reg19=[CFA+16] reg20=[CFA+24] reg21=[CFA+32] reg22=[CFA+40] reg30=[CFA+8] reg29=[CFA]
  0x00079b38: CFA=reg29: reg31=reg29+16 reg19=[CFA+16] reg20=[CFA+24] reg30=[CFA+8] reg29=[CFA]
  0x00079b74: CFA=reg29: reg31=reg29+16 reg19=[CFA+16] reg20=[CFA+24] reg21=[CFA+32] reg22=[CFA+40] reg30=[CFA+8] reg29=[CFA]
  0x00079cf8: CFA=reg29: reg31=reg29+16 reg19=[CFA+16] reg20=[CFA+24] reg21=[CFA+32] reg22=[CFA+40] reg23=[CFA+48] reg24=[CFA+56] reg30=[CFA+8] reg29=[CFA]
  0x00079dcc: CFA=reg29: reg31=reg29+16 reg19=[CFA+16] reg20=[CFA+24] reg21=[CFA+32] reg22=[CFA+40] reg23=[CFA+48] reg24=[CFA+56] reg25=[CFA+64] reg26=[CFA+72] reg27=[CFA+80] reg28=[CFA+88] reg30=[CFA+8] reg29=[CFA]
  0x0007a4b8: CFA=reg29: reg31=reg29+16 reg19=[CFA+16] reg20=[CFA+24] reg21=[CFA+32] reg22=[CFA+40] reg23=[CFA+48] reg24=[CFA+56] reg30=[CFA+8] reg29=[CFA]
  0x0007b16c: CFA=reg29: reg31=reg29+16 reg19=[CFA+16] reg20=[CFA+24] reg21=[CFA+32] reg22=[CFA+40] reg23=[CFA+48] reg24=[CFA+56] reg25=[CFA+64] reg26=[CFA+72] reg30=[CFA+8] reg29=[CFA]
  0x0007bb34: CFA=reg29: reg31=reg29+16 reg19=[CFA+16] reg20=[CFA+24] reg21=[CFA+32] reg22=[CFA+40] reg23=[CFA+48] reg24=[CFA+56] reg25=[CFA+64] reg26=[CFA+72] reg27=[CFA+80] reg28=[CFA+88] reg30=[CFA+8] reg29=[CFA]
  0x0007bcac: CFA=reg29: reg31=reg29+16 reg19=[CFA+16] reg20=[CFA+24] reg30=[CFA+8] reg29=[CFA]
  0x0007bd94: CFA=reg29: reg31=reg29+16 reg19=[CFA+16] reg20=[CFA+24] reg21=[CFA+32] reg22=[CFA+40] reg23=[CFA+48] reg24=[CFA+56] reg27=[CFA+64] reg28=[CFA+72] reg30=[CFA+8] reg29=[CFA]
  0x0007c244: CFA=reg29: reg31=reg29+16 reg19=[CFA+16] reg20=[CFA+24] reg21=[CFA+32] reg22=[CFA+40] reg23=[CFA+48] reg24=[CFA+56] reg30=[CFA+8] reg29=[CFA]
  0x0007c3c8: CFA=reg29: reg31=reg29+16 reg19=[CFA+16] reg20=[CFA+24] reg21=[CFA+32] reg22=[CFA+40] reg27=[CFA+48] reg28=[CFA+56] reg30=[CFA+8] reg29=[CFA]
  0x0007ca80: CFA=reg29: reg31=reg29+16 reg19=[CFA+16] reg20=[CFA+24] reg21=[CFA+32] reg22=[CFA+40] reg30=[CFA+8] reg29=[CFA]
  0x0007cd34: CFA=reg29: reg31=reg29+16 reg19=[CFA+16] reg20=[CFA+24] reg30=[CFA+8] reg29=[CFA]
  0x0007ce00: CFA=reg29: reg31=reg29+16 reg19=[CFA+16] reg20=[CFA+24] reg21=[CFA+32] reg22=[CFA+40] reg23=[CFA+48] reg24=[CFA+56] reg25=[CFA+64] reg26=[CFA+72] reg27=[CFA+80] reg28=[CFA+88] reg30=[CFA+8] reg29=[CFA]
  0x0007ddb0: CFA=reg29: reg31=reg29+16 reg19=[CFA+16] reg20=[CFA+24] reg21=[CFA+32] reg22=[CFA+40] reg30=[CFA+8] reg29=[CFA]
  0x0007de5c: CFA=reg29: reg31=reg29+16 reg19=[CFA+16] reg20=[CFA+24] reg21=[CFA+32] reg22=[CFA+40] reg23=[CFA+48] reg24=[CFA+56] reg30=[CFA+8] reg29=[CFA]
  0x0007dfa0: CFA=reg29: reg31=reg29+16 reg19=[CFA+16] reg20=[CFA+24] reg21=[CFA+32] reg22=[CFA+40] reg23=[CFA+48] reg24=[CFA+56] reg25=[CFA+64] reg26=[CFA+72] reg30=[CFA+8] reg29=[CFA]
  0x0007e160: CFA=reg29: reg31=reg29+16 reg19=[CFA+16] reg20=[CFA+24] reg21=[CFA+32] reg22=[CFA+40] reg23=[CFA+48] reg24=[CFA+56] reg25=[CFA+64] reg26=[CFA+72] reg30=[CFA+8] reg29=[CFA]
  0x0007ebf4: CFA=reg29: reg31=reg29+16 reg19=[CFA+16] reg20=[CFA+24] reg21=[CFA+32] reg22=[CFA+40] reg23=[CFA+48] reg24=[CFA+56] reg25=[CFA+64] reg26=[CFA+72] reg30=[CFA+8] reg29=[CFA]
  0x0007edec: CFA=reg29: reg31=reg29+16 reg19=[CFA+16] reg20=[CFA+24] reg21=[CFA+32] reg22=[CFA+40] reg23=[CFA+48] reg24=[CFA+56] reg30=[CFA+8] reg29=[CFA]
  0x0007f21c: CFA=reg29: reg31=reg29+16 reg19=[CFA+16] reg20=[CFA+24] reg21=[CFA+32] reg22=[CFA+40] reg23=[CFA+48] reg24=[CFA+56] reg27=[CFA+64] reg28=[CFA+72] reg30=[CFA+8] reg29=[CFA]
  0x0007fa44: CFA=reg29: reg31=reg29+16 reg19=[CFA+16] reg20=[CFA+24] reg21=[CFA+32] reg22=[CFA+40] reg23=[CFA+48] reg24=[CFA+56] reg27=[CFA+64] reg28=[CFA+72] reg30=[CFA+8] reg29=[CFA]
  0x0007fbd4: CFA=reg29: reg31=reg29+16 reg19=[CFA+16] reg20=[CFA+24] reg21=[CFA+32] reg22=[CFA+40] reg30=[CFA+8] reg29=[CFA]
  0x0007fca0: CFA=reg29: reg31=reg29+16 reg19=[CFA+16] reg20=[CFA+24] reg21=[CFA+32] reg22=[CFA+40] reg30=[CFA+8] reg29=[CFA]
  0x0007fd34: CFA=reg29: reg31=reg29+16 reg19=[CFA+16] reg20=[CFA+24] reg30=[CFA+8] reg29=[CFA]
  0x0007fe08: CFA=reg29: reg31=reg29+16 reg19=[CFA+16] reg20=[CFA+24] reg30=[CFA+8] reg29=[CFA]
  0x0007ff18: CFA=reg29: reg31=reg29+16 reg19=[CFA+16] reg20=[CFA+24] reg21=[CFA+32] reg22=[CFA+40] reg23=[CFA+48] reg24=[CFA+56] reg30=[CFA+8] reg29=[CFA]
  0x00080f0c: CFA=reg31
  0x00080f7c: CFA=reg29: reg31=reg29+16 reg19=[CFA+16] reg20=[CFA+24] reg30=[CFA+8] reg29=[CFA]
  0x0008119c: CFA=reg31
  0x00081208: CFA=reg29: reg31=reg29+16 reg19=[CFA+16] reg20=[CFA+24] reg27=[CFA+32] reg28=[CFA+40] reg30=[CFA+8] reg29=[CFA]
  0x00081380: CFA=reg29: reg31=reg29+16 reg19=[CFA+16] reg20=[CFA+24] reg30=[CFA+8] reg29=[CFA]
  0x00081448: CFA=reg29: reg31=reg29+16 reg19=[CFA+16] reg20=[CFA+24] reg21=[CFA+32] reg22=[CFA+40] reg23=[CFA+48] reg24=[CFA+56] reg30=[CFA+8] reg29=[CFA]
  0x000816f4: CFA=reg29: reg31=reg29+16 reg19=[CFA+16] reg20=[CFA+24] reg27=[CFA+32] reg28=[CFA+40] reg30=[CFA+8] reg29=[CFA]
  0x00081878: CFA=reg31
  0x000818c0: CFA=reg29: reg31=reg29+16 reg19=[CFA+16] reg20=[CFA+24] reg21=[CFA+32] reg22=[CFA+40] reg30=[CFA+8] reg29=[CFA]
  0x00081ad8: CFA=reg29: reg31=reg29+16 reg19=[CFA+16] reg20=[CFA+24] reg30=[CFA+8] reg29=[CFA]
  0x00081c90: CFA=reg29: reg31=reg29+16 reg19=[CFA+16] reg20=[CFA+24] reg21=[CFA+32] reg22=[CFA+40] reg23=[CFA+48] reg24=[CFA+56] reg25=[CFA+64] reg26=[CFA+72] reg27=[CFA+80] reg28=[CFA+88] reg30=[CFA+8] reg29=[CFA]
  0x00082108: CFA=reg29: reg31=reg29+16 reg19=[CFA+16] reg20=[CFA+24] reg21=[CFA+32] reg22=[CFA+40] reg23=[CFA+48] reg24=[CFA+56] reg30=[CFA+8] reg29=[CFA]
  0x0008219c: CFA=reg29: reg31=reg29+16 reg19=[CFA+16] reg20=[CFA+24] reg21=[CFA+32] reg22=[CFA+40] reg23=[CFA+48] reg24=[CFA+56] reg25=[CFA+64] reg26=[CFA+72] reg27=[CFA+80] reg28=[CFA+88] reg30=[CFA+8] reg29=[CFA]
  0x00082648: CFA=reg29: reg31=reg29+16 reg19=[CFA+16] reg20=[CFA+24] reg21=[CFA+32] reg22=[CFA+40] reg23=[CFA+48] reg24=[CFA+56] reg25=[CFA+64] reg26=[CFA+72] reg30=[CFA+8] reg29=[CFA]
  0x00082c00: CFA=reg29: reg31=reg29+16 reg19=[CFA+16] reg20=[CFA+24] reg21=[CFA+32] reg22=[CFA+40] reg23=[CFA+48] reg24=[CFA+56] reg27=[CFA+64] reg28=[CFA+72] reg30=[CFA+8] reg29=[CFA]
  0x00083528: CFA=reg29: reg31=reg29+16 reg19=[CFA+16] reg20=[CFA+24] reg21=[CFA+32] reg22=[CFA+40] reg23=[CFA+48] reg24=[CFA+56] reg30=[CFA+8] reg29=[CFA]
  0x00083aa8: CFA=reg29: reg31=reg29+16 reg19=[CFA+16] reg20=[CFA+24] reg30=[CFA+8] reg29=[CFA]
  0x00083b30: CFA=reg29: reg31=reg29+16 reg19=[CFA+16] reg20=[CFA+24] reg21=[CFA+32] reg22=[CFA+40] reg30=[CFA+8] reg29=[CFA]
  0x00083bc0: CFA=reg29: reg31=reg29+16 reg30=[CFA+8] reg29=[CFA]
  0x00083c00: CFA=reg29: reg31=reg29+16 reg19=[CFA+16] reg20=[CFA+24] reg21=[CFA+32] reg22=[CFA+40] reg30=[CFA+8] reg29=[CFA]
  0x00083c80: CFA=reg29: reg31=reg29+16 reg19=[CFA+16] reg20=[CFA+24] reg21=[CFA+32] reg22=[CFA+40] reg23=[CFA+48] reg24=[CFA+56] reg30=[CFA+8] reg29=[CFA]
  0x00083fb0: CFA=reg29: reg31=reg29+16 reg19=[CFA+16] reg20=[CFA+24] reg21=[CFA+32] reg22=[CFA+40] reg23=[CFA+48] reg24=[CFA+56] reg30=[CFA+8] reg29=[CFA]
  0x000842b8: CFA=reg29: reg31=reg29+16 reg19=[CFA+16] reg20=[CFA+24] reg21=[CFA+32] reg22=[CFA+40] reg23=[CFA+48] reg24=[CFA+56] reg25=[CFA+64] reg26=[CFA+72] reg30=[CFA+8] reg29=[CFA]
  0x000848d4: CFA=reg29: reg31=reg29+16 reg19=[CFA+16] reg20=[CFA+24] reg21=[CFA+32] reg22=[CFA+40] reg23=[CFA+48] reg24=[CFA+56] reg27=[CFA+64] reg28=[CFA+72] reg30=[CFA+8] reg29=[CFA]
  0x00084ab4: CFA=reg31
  0x00084b88: CFA=reg29: reg31=reg29+16 reg19=[CFA+16] reg20=[CFA+24] reg21=[CFA+32] reg22=[CFA+40] reg30=[CFA+8] reg29=[CFA]
  0x00084cec: CFA=reg31
  0x00084d3c: CFA=reg29: reg31=reg29+16 reg19=[CFA+16] reg20=[CFA+24] reg21=[CFA+32] reg22=[CFA+40] reg23=[CFA+48] reg24=[CFA+56] reg30=[CFA+8] reg29=[CFA]
  0x0008500c: CFA=reg29: reg31=reg29+16 reg19=[CFA+16] reg20=[CFA+24] reg21=[CFA+32] reg22=[CFA+40] reg23=[CFA+48] reg24=[CFA+56] reg25=[CFA+64] reg26=[CFA+72] reg30=[CFA+8] reg29=[CFA]
  0x000850f4: CFA=reg31
  0x00085110: CFA=reg29: reg31=reg29+16 reg19=[CFA+16] reg20=[CFA+24] reg30=[CFA+8] reg29=[CFA]
  0x000851f0: CFA=reg29: reg31=reg29+16 reg19=[CFA+16] reg20=[CFA+24] reg30=[CFA+8] reg29=[CFA]
  0x00085314: CFA=reg29: reg31=reg29+16 reg19=[CFA+16] reg20=[CFA+24] reg21=[CFA+32] reg22=[CFA+40] reg23=[CFA+48] reg24=[CFA+56] reg25=[CFA+64] reg26=[CFA+72] reg30=[CFA+8] reg29=[CFA]
  0x00085438: CFA=reg29: reg31=reg29+16 reg19=[CFA+16] reg20=[CFA+24] reg21=[CFA+32] reg22=[CFA+40] reg23=[CFA+48] reg24=[CFA+56] reg27=[CFA+64] reg28=[CFA+72] reg30=[CFA+8] reg29=[CFA]
  0x00085d60: CFA=reg29: reg31=reg29+16 reg19=[CFA+16] reg20=[CFA+24] reg21=[CFA+32] reg22=[CFA+40] reg30=[CFA+8] reg29=[CFA]
  0x00085e0c: CFA=reg29: reg31=reg29+16 reg19=[CFA+16] reg20=[CFA+24] reg21=[CFA+32] reg22=[CFA+40] reg23=[CFA+48] reg24=[CFA+56] reg30=[CFA+8] reg29=[CFA]
  0x00086428: CFA=reg29: reg31=reg29+16 reg19=[CFA+16] reg20=[CFA+24] reg21=[CFA+32] reg22=[CFA+40] reg23=[CFA+48] reg24=[CFA+56] reg25=[CFA+64] reg26=[CFA+72] reg30=[CFA+8] reg29=[CFA]
  0x00086650: CFA=reg29: reg31=reg29+16 reg19=[CFA+16] reg20=[CFA+24] reg21=[CFA+32] reg22=[CFA+40] reg23=[CFA+48] reg24=[CFA+56] reg30=[CFA+8] reg29=[CFA]
  0x00086708: CFA=reg29: reg31=reg29+16 reg19=[CFA+16] reg20=[CFA+24] reg30=[CFA+8] reg29=[CFA]
  0x00086744: CFA=reg29: reg31=reg29+16 reg19=[CFA+16] reg20=[CFA+24] reg21=[CFA+32] reg22=[CFA+40] reg23=[CFA+48] reg24=[CFA+56] reg30=[CFA+8] reg29=[CFA]
  0x000867fc: CFA=reg29: reg31=reg29+16 reg19=[CFA+16] reg20=[CFA+24] reg21=[CFA+32] reg22=[CFA+40] reg23=[CFA+48] reg24=[CFA+56] reg30=[CFA+8] reg29=[CFA]
  0x00086d7c: CFA=reg29: reg31=reg29+16 reg19=[CFA+16] reg20=[CFA+24] reg21=[CFA+32] reg22=[CFA+40] reg23=[CFA+48] reg24=[CFA+56] reg25=[CFA+64] reg26=[CFA+72] reg30=[CFA+8] reg29=[CFA]
  0x00086e90: CFA=reg29: reg31=reg29+16 reg19=[CFA+16] reg20=[CFA+24] reg21=[CFA+32] reg22=[CFA+40] reg23=[CFA+48] reg24=[CFA+56] reg30=[CFA+8] reg29=[CFA]
  0x00086f68: CFA=reg29: reg31=reg29+16 reg19=[CFA+16] reg20=[CFA+24] reg21=[CFA+32] reg22=[CFA+40] reg23=[CFA+48] reg24=[CFA+56] reg30=[CFA+8] reg29=[CFA]
  0x00087020: CFA=reg29: reg31=reg29+16 reg19=[CFA+16] reg20=[CFA+24] reg30=[CFA+8] reg29=[CFA]
  0x000870a8: CFA=reg29: reg31=reg29+16 reg19=[CFA+16] reg20=[CFA+24] reg30=[CFA+8] reg29=[CFA]
  0x000870e4: CFA=reg31
  0x000870ec: CFA=reg29: reg31=reg29+16 reg19=[CFA+16] reg20=[CFA+24] reg21=[CFA+32] reg22=[CFA+40] reg30=[CFA+8] reg29=[CFA]
  0x00087208: CFA=reg29: reg31=reg29+16 reg30=[CFA+8] reg29=[CFA]
  0x00087248: CFA=reg29: reg31=reg29+16 reg19=[CFA+16] reg20=[CFA+24] reg21=[CFA+32] reg22=[CFA+40] reg30=[CFA+8] reg29=[CFA]
  0x000873e0: CFA=reg29: reg31=reg29+16 reg30=[CFA+8] reg29=[CFA]
  0x00087424: CFA=reg29: reg31=reg29+16 reg19=[CFA+16] reg20=[CFA+24] reg21=[CFA+32] reg22=[CFA+40] reg30=[CFA+8] reg29=[CFA]
  0x00087498: CFA=reg31
  0x00087518: CFA=reg29: reg31=reg29+16 reg30=[CFA+8] reg29=[CFA]
  0x000879b0: CFA=reg31
  0x00087d0c: CFA=reg29: reg31=reg29+16 reg19=[CFA+16] reg20=[CFA+24] reg30=[CFA+8] reg29=[CFA]
  0x00087e00: CFA=reg31
  0x00087f24: CFA=reg29: reg31=reg29+16 reg19=[CFA+16] reg20=[CFA+24] reg21=[CFA+32] reg22=[CFA+40] reg30=[CFA+8] reg29=[CFA]
  0x000882bc: CFA=reg31
  0x000885a4: CFA=reg29: reg31=reg29+16 reg19=[CFA+16] reg20=[CFA+24] reg21=[CFA+32] reg22=[CFA+40] reg23=[CFA+48] reg24=[CFA+56] reg25=[CFA+64] reg26=[CFA+72] reg27=[CFA+80] reg28=[CFA+88] reg30=[CFA+8] reg29=[CFA]
  0x00088848: CFA=reg29: reg31=reg29+16 reg19=[CFA+16] reg20=[CFA+24] reg30=[CFA+8] reg29=[CFA]
  0x00088a10: CFA=reg31
  0x00088a40: CFA=reg29: reg31=reg29+16 reg19=[CFA+16] reg20=[CFA+24] reg30=[CFA+8] reg29=[CFA]
  0x00088aac: CFA=reg29: reg31=reg29+16 reg30=[CFA+8] reg29=[CFA]
  0x00088acc: CFA=reg29: reg31=reg29+16 reg19=[CFA+16] reg20=[CFA+24] reg30=[CFA+8] reg29=[CFA]
  0x00088b34: CFA=reg31
  0x00088b38: CFA=reg29: reg31=reg29+16 reg19=[CFA+16] reg20=[CFA+24] reg21=[CFA+32] reg22=[CFA+40] reg23=[CFA+48] reg24=[CFA+56] reg25=[CFA+64] reg26=[CFA+72] reg27=[CFA+80] reg28=[CFA+88] reg30=[CFA+8] reg29=[CFA]
  0x00089ee8: CFA=reg29: reg31=reg29+16 reg30=[CFA+8] reg29=[CFA]
  0x0008a24c: CFA=reg29: reg31=reg29+16 reg19=[CFA+16] reg20=[CFA+24] reg30=[CFA+8] reg29=[CFA]
  0x0008a634: CFA=reg29: reg31=reg29+16 reg19=[CFA+16] reg20=[CFA+24] reg30=[CFA+8] reg29=[CFA]
  0x0008a6d8: CFA=reg31
  0x0008a6f4: CFA=reg29: reg31=reg29+16 reg30=[CFA+8] reg29=[CFA]
  0x0008ab08: CFA=reg29: reg31=reg29+16 reg19=[CFA+16] reg20=[CFA+24] reg21=[CFA+32] reg22=[CFA+40] reg30=[CFA+8] reg29=[CFA]
  0x0008b0b8: CFA=reg31
  0x0008b570: CFA=reg29: reg31=reg29+16 reg19=[CFA+16] reg20=[CFA+24] reg21=[CFA+32] reg22=[CFA+40] reg23=[CFA+48] reg24=[CFA+56] reg30=[CFA+8] reg29=[CFA]
  0x0008b71c: CFA=reg29: reg31=reg29+16 reg19=[CFA+16] reg20=[CFA+24] reg21=[CFA+32] reg22=[CFA+40] reg30=[CFA+8] reg29=[CFA]
  0x0008b854: CFA=reg29: reg31=reg29+16 reg30=[CFA+8] reg29=[CFA]
  0x0008ba6c: CFA=reg29: reg31=reg29+16 reg19=[CFA+16] reg20=[CFA+24] reg21=[CFA+32] reg22=[CFA+40] reg23=[CFA+48] reg24=[CFA+56] reg25=[CFA+64] reg26=[CFA+72] reg27=[CFA+80] reg28=[CFA+88] reg30=[CFA+8] reg29=[CFA]
  0x0008be70: CFA=reg29: reg31=reg29+16 reg19=[CFA+16] reg20=[CFA+24] reg21=[CFA+32] reg22=[CFA+40] reg23=[CFA+48] reg24=[CFA+56] reg30=[CFA+8] reg29=[CFA]
  0x0008c040: CFA=reg31
  0x0008c1d8: CFA=reg29: reg31=reg29+16 reg30=[CFA+8] reg29=[CFA]
  0x0008c51c: CFA=reg29: reg31=reg29+16 reg19=[CFA+16] reg20=[CFA+24] reg21=[CFA+32] reg22=[CFA+40] reg30=[CFA+8] reg29=[CFA]
  0x0008c5c8: CFA=reg31
  0x0008c82c: CFA=reg29: reg31=reg29+16 reg30=[CFA+8] reg29=[CFA]
  0x0008c9c0: CFA=reg29: reg31=reg29+16 reg19=[CFA+16] reg20=[CFA+24] reg21=[CFA+32] reg22=[CFA+40] reg23=[CFA+48] reg24=[CFA+56] reg25=[CFA+64] reg26=[CFA+72] reg27=[CFA+80] reg28=[CFA+88] reg30=[CFA+8] reg29=[CFA]
  0x0008cc1c: CFA=reg29: reg31=reg29+16 reg30=[CFA+8] reg29=[CFA]
  0x0008cdb4: CFA=reg29: reg31=reg29+16 reg19=[CFA+16] reg20=[CFA+24] reg21=[CFA+32] reg22=[CFA+40] reg23=[CFA+48] reg24=[CFA+56] reg30=[CFA+8] reg29=[CFA]
  0x0008cf38: CFA=reg31
  0x0008d088: CFA=reg29: reg31=reg29+16 reg19=[CFA+16] reg20=[CFA+24] reg21=[CFA+32] reg22=[CFA+40] reg23=[CFA+48] reg24=[CFA+56] reg25=[CFA+64] reg26=[CFA+72] reg30=[CFA+8] reg29=[CFA]
  0x0008d2dc: CFA=reg29: reg31=reg29+16 reg19=[CFA+16] reg20=[CFA+24] reg30=[CFA+8] reg29=[CFA]
  0x0008d378: CFA=reg29: reg31=reg29+16 reg19=[CFA+16] reg20=[CFA+24] reg30=[CFA+8] reg29=[CFA]
  0x0008d430: CFA=reg29: reg31=reg29+16 reg19=[CFA+16] reg20=[CFA+24] reg21=[CFA+32] reg22=[CFA+40] reg30=[CFA+8] reg29=[CFA]
  0x0008d51c: CFA=reg29: reg31=reg29+16 reg19=[CFA+16] reg20=[CFA+24] reg21=[CFA+32] reg22=[CFA+40] reg23=[CFA+48] reg24=[CFA+56] reg30=[CFA+8] reg29=[CFA]
  0x0008d6a8: CFA=reg29: reg31=reg29+16 reg19=[CFA+16] reg20=[CFA+24] reg21=[CFA+32] reg22=[CFA+40] reg30=[CFA+8] reg29=[CFA]
  0x0008d788: CFA=reg29: reg31=reg29+16 reg19=[CFA+16] reg20=[CFA+24] reg30=[CFA+8] reg29=[CFA]
  0x0008d880: CFA=reg31
  0x0008d9b0: CFA=reg29: reg31=reg29+16 reg19=[CFA+16] reg20=[CFA+24] reg30=[CFA+8] reg29=[CFA]
  0x0008dcf4: CFA=reg29: reg31=reg29+16 reg19=[CFA+16] reg20=[CFA+24] reg21=[CFA+32] reg22=[CFA+40] reg30=[CFA+8] reg29=[CFA]
  0x0008e0e0: CFA=reg29: reg31=reg29+16 reg19=[CFA+16] reg20=[CFA+24] reg30=[CFA+8] reg29=[CFA]
  0x0008e2a0: CFA=reg29: reg31=reg29+16 reg19=[CFA+16] reg20=[CFA+24] reg21=[CFA+32] reg22=[CFA+40] reg30=[CFA+8] reg29=[CFA]
  0x0008e4e8: CFA=reg29: reg31=reg29+16 reg19=[CFA+16] reg20=[CFA+24] reg30=[CFA+8] reg29=[CFA]
  0x0008e624: CFA=reg29: reg31=reg29+16 reg19=[CFA+16] reg20=[CFA+24] reg21=[CFA+32] reg22=[CFA+40] reg23=[CFA+48] reg24=[CFA+56] reg25=[CFA+64] reg26=[CFA+72] reg30=[CFA+8] reg29=[CFA]
  0x0008e8d0: CFA=reg29: reg31=reg29+16 reg19=[CFA+16] reg20=[CFA+24] reg21=[CFA+32] reg22=[CFA+40] reg23=[CFA+48] reg24=[CFA+56] reg25=[CFA+64] reg26=[CFA+72] reg27=[CFA+80] reg28=[CFA+88] reg30=[CFA+8] reg29=[CFA]
  0x0008eb88: CFA=reg29: reg31=reg29+16 reg19=[CFA+16] reg20=[CFA+24] reg21=[CFA+32] reg22=[CFA+40] reg23=[CFA+48] reg24=[CFA+56] reg25=[CFA+64] reg26=[CFA+72] reg27=[CFA+80] reg28=[CFA+88] reg30=[CFA+8] reg29=[CFA]
  0x0008f0a4: CFA=reg31
  0x0008f16c: CFA=reg29: reg31=reg29+16 reg19=[CFA+16] reg20=[CFA+24] reg21=[CFA+32] reg22=[CFA+40] reg30=[CFA+8] reg29=[CFA]
  0x0008f268: CFA=reg31
  0x0008f67c: CFA=reg29: reg31=reg29+16 reg19=[CFA+16] reg20=[CFA+24] reg30=[CFA+8] reg29=[CFA]
  0x0008fb10: CFA=reg29: reg31=reg29+16 reg19=[CFA+16] reg20=[CFA+24] reg21=[CFA+32] reg22=[CFA+40] reg30=[CFA+8] reg29=[CFA]
  0x0008fe64: CFA=reg31
  0x0008fe74: CFA=reg29: reg31=reg29+16 reg19=[CFA+16] reg20=[CFA+24] reg30=[CFA+8] reg29=[CFA]
  0x0008ff9c: CFA=reg29: reg31=reg29+16 reg19=[CFA+16] reg20=[CFA+24] reg21=[CFA+32] reg22=[CFA+40] reg23=[CFA+48] reg24=[CFA+56] reg30=[CFA+8] reg29=[CFA]
  0x000900f0: CFA=reg31
  0x0009011c: CFA=reg29: reg31=reg29+16 reg19=[CFA+16] reg20=[CFA+24] reg21=[CFA+32] reg22=[CFA+40] reg23=[CFA+48] reg24=[CFA+56] reg30=[CFA+8] reg29=[CFA]
  0x00090200: CFA=reg29: reg31=reg29+16 reg19=[CFA+16] reg20=[CFA+24] reg21=[CFA+32] reg22=[CFA+40] reg23=[CFA+48] reg24=[CFA+56] reg25=[CFA+64] reg26=[CFA+72] reg30=[CFA+8] reg29=[CFA]
  0x00090300: CFA=reg29: reg31=reg29+16 reg19=[CFA+16] reg20=[CFA+24] reg21=[CFA+32] reg22=[CFA+40] reg23=[CFA+48] reg24=[CFA+56] reg30=[CFA+8] reg29=[CFA]
  0x00090698: CFA=reg31
  0x00090714: CFA=reg29: reg31=reg29+16 reg19=[CFA+16] reg20=[CFA+24] reg21=[CFA+32] reg22=[CFA+40] reg30=[CFA+8] reg29=[CFA]
  0x00090838: CFA=reg29: reg31=reg29+16 reg19=[CFA+16] reg20=[CFA+24] reg30=[CFA+8] reg29=[CFA]
  0x0009092c: CFA=reg31
  0x00090934: CFA=reg29: reg31=reg29+16 reg19=[CFA+16] reg20=[CFA+24] reg30=[CFA+8] reg29=[CFA]
  0x00091310: CFA=reg29: reg31=reg29+16 reg19=[CFA+16] reg20=[CFA+24] reg21=[CFA+32] reg22=[CFA+40] reg30=[CFA+8] reg29=[CFA]
  0x00091530: CFA=reg29: reg31=reg29+16 reg19=[CFA+16] reg20=[CFA+24] reg21=[CFA+32] reg22=[CFA+40] reg23=[CFA+48] reg24=[CFA+56] reg25=[CFA+64] reg26=[CFA+72] reg30=[CFA+8] reg29=[CFA]
  0x000916dc: CFA=reg29: reg31=reg29+16 reg19=[CFA+16] reg20=[CFA+24] reg30=[CFA+8] reg29=[CFA]
  0x000917d0: CFA=reg29: reg31=reg29+16 reg19=[CFA+16] reg20=[CFA+24] reg21=[CFA+32] reg22=[CFA+40] reg23=[CFA+48] reg24=[CFA+56] reg30=[CFA+8] reg29=[CFA]
  0x00091924: CFA=reg29: reg31=reg29+16 reg19=[CFA+16] reg20=[CFA+24] reg21=[CFA+32] reg22=[CFA+40] reg30=[CFA+8] reg29=[CFA]
  0x00091a48: CFA=reg29: reg31=reg29+16 reg19=[CFA+16] reg20=[CFA+24] reg21=[CFA+32] reg22=[CFA+40] reg23=[CFA+48] reg24=[CFA+56] reg25=[CFA+64] reg26=[CFA+72] reg30=[CFA+8] reg29=[CFA]
  0x00091bf4: CFA=reg29: reg31=reg29+16 reg19=[CFA+16] reg20=[CFA+24] reg21=[CFA+32] reg22=[CFA+40] reg23=[CFA+48] reg24=[CFA+56] reg30=[CFA+8] reg29=[CFA]
  0x00091d44: CFA=reg29: reg31=reg29+16 reg19=[CFA+16] reg20=[CFA+24] reg21=[CFA+32] reg22=[CFA+40] reg30=[CFA+8] reg29=[CFA]
  0x00091e68: CFA=reg29: reg31=reg29+16 reg19=[CFA+16] reg20=[CFA+24] reg30=[CFA+8] reg29=[CFA]
  0x00091f5c: CFA=reg29: reg31=reg29+16 reg19=[CFA+16] reg20=[CFA+24] reg21=[CFA+32] reg22=[CFA+40] reg23=[CFA+48] reg24=[CFA+56] reg30=[CFA+8] reg29=[CFA]
  0x000920b0: CFA=reg29: reg31=reg29+16 reg19=[CFA+16] reg20=[CFA+24] reg30=[CFA+8] reg29=[CFA]
  0x00092284: CFA=reg29: reg31=reg29+16 reg19=[CFA+16] reg20=[CFA+24] reg21=[CFA+32] reg22=[CFA+40] reg23=[CFA+48] reg24=[CFA+56] reg25=[CFA+64] reg26=[CFA+72] reg30=[CFA+8] reg29=[CFA]
  0x00092430: CFA=reg29: reg31=reg29+16 reg19=[CFA+16] reg20=[CFA+24] reg21=[CFA+32] reg22=[CFA+40] reg23=[CFA+48] reg24=[CFA+56] reg30=[CFA+8] reg29=[CFA]
  0x00092584: CFA=reg31
  0x000925e0: CFA=reg29: reg31=reg29+16 reg19=[CFA+16] reg20=[CFA+24] reg21=[CFA+32] reg22=[CFA+40] reg30=[CFA+8] reg29=[CFA]
  0x00092828: CFA=reg29: reg31=reg29+16 reg19=[CFA+16] reg20=[CFA+24] reg21=[CFA+32] reg22=[CFA+40] reg23=[CFA+48] reg24=[CFA+56] reg30=[CFA+8] reg29=[CFA]
  0x0009297c: CFA=reg29: reg31=reg29+16 reg19=[CFA+16] reg20=[CFA+24] reg21=[CFA+32] reg22=[CFA+40] reg30=[CFA+8] reg29=[CFA]
  0x00092aa0: CFA=reg29: reg31=reg29+16 reg19=[CFA+16] reg20=[CFA+24] reg21=[CFA+32] reg22=[CFA+40] reg23=[CFA+48] reg24=[CFA+56] reg25=[CFA+64] reg26=[CFA+72] reg30=[CFA+8] reg29=[CFA]
  0x00092c70: CFA=reg29: reg31=reg29+16 reg19=[CFA+16] reg20=[CFA+24] reg21=[CFA+32] reg22=[CFA+40] reg23=[CFA+48] reg24=[CFA+56] reg30=[CFA+8] reg29=[CFA]
  0x00092dc4: CFA=reg29: reg31=reg29+16 reg19=[CFA+16] reg20=[CFA+24] reg21=[CFA+32] reg22=[CFA+40] reg23=[CFA+48] reg24=[CFA+56] reg25=[CFA+64] reg26=[CFA+72] reg27=[CFA+80] reg28=[CFA+88] reg30=[CFA+8] reg29=[CFA]
  0x00092fec: CFA=reg29: reg31=reg29+16 reg19=[CFA+16] reg20=[CFA+24] reg21=[CFA+32] reg22=[CFA+40] reg23=[CFA+48] reg24=[CFA+56] reg25=[CFA+64] reg26=[CFA+72] reg27=[CFA+80] reg28=[CFA+88] reg14=[CFA+96] reg15=[CFA+104] reg30=[CFA+8] reg29=[CFA]
  0x0009468c: CFA=reg31
  0x00094760: CFA=reg29: reg31=reg29+16 reg19=[CFA+16] reg20=[CFA+24] reg21=[CFA+32] reg22=[CFA+40] reg30=[CFA+8] reg29=[CFA]
  0x0009480c: CFA=reg31
  0x00094aac: CFA=reg29: reg31=reg29+16 reg30=[CFA+8] reg29=[CFA]
  0x00094bd4: CFA=reg31
  0x00094bec: CFA=reg29: reg31=reg29+16 reg30=[CFA+8] reg29=[CFA]
  0x00094dac: CFA=reg29: reg31=reg29+16 reg19=[CFA+16] reg20=[CFA+24] reg21=[CFA+32] reg22=[CFA+40] reg23=[CFA+48] reg24=[CFA+56] reg25=[CFA+64] reg26=[CFA+72] reg30=[CFA+8] reg29=[CFA]
  0x0009520c: CFA=reg29: reg31=reg29+16 reg19=[CFA+16] reg20=[CFA+24] reg21=[CFA+32] reg22=[CFA+40] reg23=[CFA+48] reg24=[CFA+56] reg25=[CFA+64] reg26=[CFA+72] reg27=[CFA+80] reg28=[CFA+88] reg30=[CFA+8] reg29=[CFA]
  0x0009571c: CFA=reg29: reg31=reg29+16 reg19=[CFA+16] reg20=[CFA+24] reg21=[CFA+32] reg22=[CFA+40] reg23=[CFA+48] reg24=[CFA+56] reg25=[CFA+64] reg26=[CFA+72] reg30=[CFA+8] reg29=[CFA]
  0x00095980: CFA=reg29: reg31=reg29+16 reg19=[CFA+16] reg20=[CFA+24] reg30=[CFA+8] reg29=[CFA]
  0x00095b1c: CFA=reg29: reg31=reg29+16 reg19=[CFA+16] reg20=[CFA+24] reg21=[CFA+32] reg22=[CFA+40] reg30=[CFA+8] reg29=[CFA]
  0x00095fe8: CFA=reg29: reg31=reg29+16 reg30=[CFA+8] reg29=[CFA]
  0x00096680: CFA=reg29: reg31=reg29+16 reg19=[CFA+16] reg20=[CFA+24] reg21=[CFA+32] reg22=[CFA+40] reg30=[CFA+8] reg29=[CFA]
  0x0009677c: CFA=reg31
  0x0009678c: CFA=reg29: reg31=reg29+16 reg19=[CFA+16] reg20=[CFA+24] reg21=[CFA+32] reg22=[CFA+40] reg23=[CFA+48] reg24=[CFA+56] reg25=[CFA+64] reg26=[CFA+72] reg27=[CFA+80] reg28=[CFA+88] reg30=[CFA+8] reg29=[CFA]
  0x00096a6c: CFA=reg29: reg31=reg29+16 reg30=[CFA+8] reg29=[CFA]
  0x00096c6c: CFA=reg29: reg31=reg29+16 reg19=[CFA+16] reg20=[CFA+24] reg21=[CFA+32] reg22=[CFA+40] reg23=[CFA+48] reg24=[CFA+56] reg25=[CFA+64] reg26=[CFA+72] reg27=[CFA+80] reg28=[CFA+88] reg30=[CFA+8] reg29=[CFA]
  0x000974c0: CFA=reg29: reg31=reg29+16 reg19=[CFA+16] reg20=[CFA+24] reg21=[CFA+32] reg22=[CFA+40] reg23=[CFA+48] reg24=[CFA+56] reg25=[CFA+64] reg26=[CFA+72] reg27=[CFA+80] reg28=[CFA+88] reg30=[CFA+8] reg29=[CFA]
  0x00098174: CFA=reg29: reg31=reg29+16 reg19=[CFA+16] reg20=[CFA+24] reg21=[CFA+32] reg22=[CFA+40] reg23=[CFA+48] reg24=[CFA+56] reg25=[CFA+64] reg26=[CFA+72] reg27=[CFA+80] reg28=[CFA+88] reg30=[CFA+8] reg29=[CFA]
  0x00098e70: CFA=reg31
  0x00099220: CFA=reg29: reg31=reg29+16 reg19=[CFA+16] reg20=[CFA+24] reg21=[CFA+32] reg22=[CFA+40] reg23=[CFA+48] reg24=[CFA+56] reg25=[CFA+64] reg26=[CFA+72] reg27=[CFA+80] reg28=[CFA+88] reg30=[CFA+8] reg29=[CFA]
  0x00099ea8: CFA=reg31
  0x00099eb8: CFA=reg29: reg31=reg29+16 reg19=[CFA+16] reg20=[CFA+24] reg21=[CFA+32] reg22=[CFA+40] reg23=[CFA+48] reg24=[CFA+56] reg25=[CFA+64] reg26=[CFA+72] reg27=[CFA+80] reg28=[CFA+88] reg30=[CFA+8] reg29=[CFA]
  0x0009ab34: CFA=reg31
  0x0009ab4c: CFA=reg29: reg31=reg29+16 reg19=[CFA+16] reg20=[CFA+24] reg21=[CFA+32] reg22=[CFA+40] reg30=[CFA+8] reg29=[CFA]
  0x0009aca8: CFA=reg29: reg31=reg29+16 reg19=[CFA+16] reg20=[CFA+24] reg21=[CFA+32] reg22=[CFA+40] reg30=[CFA+8] reg29=[CFA]
  0x0009adf8: CFA=reg29: reg31=reg29+16 reg19=[CFA+16] reg20=[CFA+24] reg21=[CFA+32] reg22=[CFA+40] reg30=[CFA+8] reg29=[CFA]
  0x0009af48: CFA=reg29: reg31=reg29+16 reg19=[CFA+16] reg20=[CFA+24] reg21=[CFA+32] reg22=[CFA+40] reg30=[CFA+8] reg29=[CFA]
  0x0009b0a4: CFA=reg31
  0x0009b11c: CFA=reg29: reg31=reg29+16 reg19=[CFA+16] reg20=[CFA+24] reg21=[CFA+32] reg22=[CFA+40] reg23=[CFA+48] reg24=[CFA+56] reg30=[CFA+8] reg29=[CFA]
  0x0009b22c: CFA=reg31
  0x0009b250: CFA=reg29: reg31=reg29+16 reg19=[CFA+16] reg20=[CFA+24] reg21=[CFA+32] reg22=[CFA+40] reg30=[CFA+8] reg29=[CFA]
  0x0009b354: CFA=reg29: reg31=reg29+16 reg19=[CFA+16] reg20=[CFA+24] reg21=[CFA+32] reg22=[CFA+40] reg23=[CFA+48] reg24=[CFA+56] reg25=[CFA+64] reg26=[CFA+72] reg30=[CFA+8] reg29=[CFA]
  0x0009b4c0: CFA=reg29: reg31=reg29+16 reg30=[CFA+8] reg29=[CFA]
  0x0009b538: CFA=reg29: reg31=reg29+16 reg19=[CFA+16] reg20=[CFA+24] reg21=[CFA+32] reg22=[CFA+40] reg23=[CFA+48] reg24=[CFA+56] reg25=[CFA+64] reg26=[CFA+72] reg30=[CFA+8] reg29=[CFA]
  0x0009b7c0: CFA=reg29: reg31=reg29+16 reg19=[CFA+16] reg20=[CFA+24] reg21=[CFA+32] reg22=[CFA+40] reg23=[CFA+48] reg24=[CFA+56] reg30=[CFA+8] reg29=[CFA]
  0x0009ba1c: CFA=reg29: reg31=reg29+16 reg19=[CFA+16] reg20=[CFA+24] reg21=[CFA+32] reg22=[CFA+40] reg23=[CFA+48] reg24=[CFA+56] reg25=[CFA+64] reg26=[CFA+72] reg27=[CFA+80] reg28=[CFA+88] reg30=[CFA+8] reg29=[CFA]
  0x0009bdc0: CFA=reg29: reg31=reg29+16 reg19=[CFA+16] reg20=[CFA+24] reg21=[CFA+32] reg22=[CFA+40] reg23=[CFA+48] reg24=[CFA+56] reg25=[CFA+64] reg26=[CFA+72] reg27=[CFA+80] reg28=[CFA+88] reg30=[CFA+8] reg29=[CFA]
  0x0009c1a8: CFA=reg29: reg31=reg29+16 reg30=[CFA+8] reg29=[CFA]
  0x0009c2ec: CFA=reg29: reg31=reg29+16 reg19=[CFA+16] reg20=[CFA+24] reg30=[CFA+8] reg29=[CFA]
  0x0009c5b0: CFA=reg31
  0x0009c618: CFA=reg29: reg31=reg29+16 reg19=[CFA+16] reg20=[CFA+24] reg21=[CFA+32] reg22=[CFA+40] reg30=[CFA+8] reg29=[CFA]
  0x0009c700: CFA=reg29: reg31=reg29+16 reg19=[CFA+16] reg20=[CFA+24] reg21=[CFA+32] reg22=[CFA+40] reg23=[CFA+48] reg24=[CFA+56] reg25=[CFA+64] reg26=[CFA+72] reg27=[CFA+80] reg28=[CFA+88] reg30=[CFA+8] reg29=[CFA]
  0x0009d1c8: CFA=reg29: reg31=reg29+16 reg19=[CFA+16] reg20=[CFA+24] reg21=[CFA+32] reg22=[CFA+40] reg30=[CFA+8] reg29=[CFA]
  0x0009d324: CFA=reg29: reg31=reg29+16 reg19=[CFA+16] reg20=[CFA+24] reg21=[CFA+32] reg22=[CFA+40] reg30=[CFA+8] reg29=[CFA]
  0x0009d474: CFA=reg29: reg31=reg29+16 reg19=[CFA+16] reg20=[CFA+24] reg21=[CFA+32] reg22=[CFA+40] reg23=[CFA+48] reg24=[CFA+56] reg25=[CFA+64] reg26=[CFA+72] reg30=[CFA+8] reg29=[CFA]
  0x0009d644: CFA=reg31
  0x0009d664: CFA=reg29: reg31=reg29+16 reg19=[CFA+16] reg20=[CFA+24] reg21=[CFA+32] reg22=[CFA+40] reg23=[CFA+48] reg24=[CFA+56] reg25=[CFA+64] reg26=[CFA+72] reg27=[CFA+80] reg28=[CFA+88] reg30=[CFA+8] reg29=[CFA]
  0x0009d760: CFA=reg31
  0x0009d778: CFA=reg29: reg31=reg29+16 reg19=[CFA+16] reg20=[CFA+24] reg30=[CFA+8] reg29=[CFA]
  0x0009d7f8: CFA=reg31
  0x0009d800: CFA=reg29: reg31=reg29+16 reg19=[CFA+16] reg20=[CFA+24] reg30=[CFA+8] reg29=[CFA]
  0x0009d86c: CFA=reg29: reg31=reg29+16 reg19=[CFA+16] reg20=[CFA+24] reg21=[CFA+32] reg22=[CFA+40] reg23=[CFA+48] reg24=[CFA+56] reg25=[CFA+64] reg26=[CFA+72] reg27=[CFA+80] reg28=[CFA+88] reg14=[CFA+96] reg15=[CFA+104] reg30=[CFA+8] reg29=[CFA]
  0x0009e218: CFA=reg29: reg31=reg29+16 reg19=[CFA+16] reg20=[CFA+24] reg21=[CFA+32] reg22=[CFA+40] reg30=[CFA+8] reg29=[CFA]
  0x0009e56c: CFA=reg29: reg31=reg29+16 reg19=[CFA+16] reg20=[CFA+24] reg21=[CFA+32] reg22=[CFA+40] reg30=[CFA+8] reg29=[CFA]
  0x0009e670: CFA=reg29: reg31=reg29+16 reg19=[CFA+16] reg20=[CFA+24] reg21=[CFA+32] reg22=[CFA+40] reg30=[CFA+8] reg29=[CFA]
  0x0009e7a4: CFA=reg29: reg31=reg29+16 reg19=[CFA+16] reg20=[CFA+24] reg21=[CFA+32] reg22=[CFA+40] reg23=[CFA+48] reg24=[CFA+56] reg25=[CFA+64] reg26=[CFA+72] reg27=[CFA+80] reg28=[CFA+88] reg30=[CFA+8] reg29=[CFA]
  0x0009eda0: CFA=reg29: reg31=reg29+16 reg19=[CFA+16] reg20=[CFA+24] reg21=[CFA+32] reg22=[CFA+40] reg23=[CFA+48] reg24=[CFA+56] reg25=[CFA+64] reg26=[CFA+72] reg27=[CFA+80] reg28=[CFA+88] reg30=[CFA+8] reg29=[CFA]
  0x0009f164: CFA=reg29: reg31=reg29+16 reg19=[CFA+16] reg20=[CFA+24] reg21=[CFA+32] reg22=[CFA+40] reg30=[CFA+8] reg29=[CFA]
  0x0009f26c: CFA=reg29: reg31=reg29+16 reg19=[CFA+16] reg20=[CFA+24] reg21=[CFA+32] reg22=[CFA+40] reg23=[CFA+48] reg24=[CFA+56] reg25=[CFA+64] reg26=[CFA+72] reg27=[CFA+80] reg28=[CFA+88] reg30=[CFA+8] reg29=[CFA]
  0x0009f394: CFA=reg31
  0x0009f3a8: CFA=reg29: reg31=reg29+16 reg19=[CFA+16] reg20=[CFA+24] reg30=[CFA+8] reg29=[CFA]
  0x0009f560: CFA=reg29: reg31=reg29+16 reg19=[CFA+16] reg20=[CFA+24] reg21=[CFA+32] reg22=[CFA+40] reg27=[CFA+48] reg28=[CFA+56] reg30=[CFA+8] reg29=[CFA]
  0x0009f6d8: CFA=reg29: reg31=reg29+16 reg19=[CFA+16] reg20=[CFA+24] reg21=[CFA+32] reg22=[CFA+40] reg23=[CFA+48] reg24=[CFA+56] reg25=[CFA+64] reg26=[CFA+72] reg27=[CFA+80] reg28=[CFA+88] reg30=[CFA+8] reg29=[CFA]
  0x0009fb50: CFA=reg29: reg31=reg29+16 reg19=[CFA+16] reg20=[CFA+24] reg21=[CFA+32] reg22=[CFA+40] reg23=[CFA+48] reg24=[CFA+56] reg25=[CFA+64] reg26=[CFA+72] reg27=[CFA+80] reg28=[CFA+88] reg30=[CFA+8] reg29=[CFA]
  0x0009fe64: CFA=reg29: reg31=reg29+16 reg19=[CFA+16] reg20=[CFA+24] reg21=[CFA+32] reg22=[CFA+40] reg23=[CFA+48] reg24=[CFA+56] reg25=[CFA+64] reg26=[CFA+72] reg27=[CFA+80] reg28=[CFA+88] reg30=[CFA+8] reg29=[CFA]
  0x000a07b8: CFA=reg29: reg31=reg29+16 reg19=[CFA+16] reg20=[CFA+24] reg30=[CFA+8] reg29=[CFA]
  0x000a0c40: CFA=reg29: reg31=reg29+16 reg19=[CFA+16] reg20=[CFA+24] reg21=[CFA+32] reg22=[CFA+40] reg23=[CFA+48] reg24=[CFA+56] reg25=[CFA+64] reg26=[CFA+72] reg27=[CFA+80] reg28=[CFA+88] reg30=[CFA+8] reg29=[CFA]
  0x000a10bc: CFA=reg29: reg31=reg29+16 reg19=[CFA+16] reg20=[CFA+24] reg30=[CFA+8] reg29=[CFA]
  0x000a1190: CFA=reg29: reg31=reg29+16 reg19=[CFA+16] reg20=[CFA+24] reg21=[CFA+32] reg22=[CFA+40] reg23=[CFA+48] reg24=[CFA+56] reg25=[CFA+64] reg26=[CFA+72] reg27=[CFA+80] reg28=[CFA+88] reg14=[CFA+96] reg15=[CFA+104] reg30=[CFA+8] reg29=[CFA]
  0x000a1764: CFA=reg31
  0x000a1798: CFA=reg29: reg31=reg29+16 reg19=[CFA+16] reg20=[CFA+24] reg21=[CFA+32] reg22=[CFA+40] reg23=[CFA+48] reg24=[CFA+56] reg25=[CFA+64] reg26=[CFA+72] reg27=[CFA+80] reg28=[CFA+88] reg30=[CFA+8] reg29=[CFA]
  0x000a1e40: CFA=reg31
  0x000a1e60: CFA=reg29: reg31=reg29+16 reg19=[CFA+16] reg20=[CFA+24] reg21=[CFA+32] reg22=[CFA+40] reg23=[CFA+48] reg24=[CFA+56] reg25=[CFA+64] reg26=[CFA+72] reg27=[CFA+80] reg28=[CFA+88] reg30=[CFA+8] reg29=[CFA]
  0x000a2158: CFA=reg29: reg31=reg29+16 reg19=[CFA+16] reg20=[CFA+24] reg21=[CFA+32] reg22=[CFA+40] reg23=[CFA+48] reg24=[CFA+56] reg25=[CFA+64] reg26=[CFA+72] reg27=[CFA+80] reg28=[CFA+88] reg30=[CFA+8] reg29=[CFA]
  0x000a2cb8: CFA=reg29: reg31=reg29+16 reg19=[CFA+16] reg20=[CFA+24] reg21=[CFA+32] reg22=[CFA+40] reg23=[CFA+48] reg24=[CFA+56] reg25=[CFA+64] reg26=[CFA+72] reg27=[CFA+80] reg28=[CFA+88] reg14=[CFA+96] reg15=[CFA+104] reg30=[CFA+8] reg29=[CFA]
  0x000a3ec4: CFA=reg31
  0x000a3ef0: CFA=reg29: reg31=reg29+16 reg19=[CFA+16] reg20=[CFA+24] reg21=[CFA+32] reg22=[CFA+40] reg30=[CFA+8] reg29=[CFA]
  0x000a3ff8: CFA=reg29: reg31=reg29+16 reg19=[CFA+16] reg20=[CFA+24] reg21=[CFA+32] reg22=[CFA+40] reg23=[CFA+48] reg24=[CFA+56] reg25=[CFA+64] reg26=[CFA+72] reg27=[CFA+80] reg28=[CFA+88] reg30=[CFA+8] reg29=[CFA]
  0x000a4204: CFA=reg29: reg31=reg29+16 reg19=[CFA+16] reg20=[CFA+24] reg21=[CFA+32] reg22=[CFA+40] reg23=[CFA+48] reg24=[CFA+56] reg25=[CFA+64] reg26=[CFA+72] reg27=[CFA+80] reg28=[CFA+88] reg30=[CFA+8] reg29=[CFA]
  0x000a4404: CFA=reg29: reg31=reg29+16 reg19=[CFA+16] reg20=[CFA+24] reg21=[CFA+32] reg22=[CFA+40] reg23=[CFA+48] reg24=[CFA+56] reg25=[CFA+64] reg26=[CFA+72] reg30=[CFA+8] reg29=[CFA]
  0x000a4578: CFA=reg29: reg31=reg29+16 reg19=[CFA+16] reg20=[CFA+24] reg30=[CFA+8] reg29=[CFA]
  0x000a4608: CFA=reg29: reg31=reg29+16 reg19=[CFA+16] reg20=[CFA+24] reg21=[CFA+32] reg22=[CFA+40] reg30=[CFA+8] reg29=[CFA]
  0x000a47ac: CFA=reg29: reg31=reg29+16 reg19=[CFA+16] reg20=[CFA+24] reg21=[CFA+32] reg22=[CFA+40] reg23=[CFA+48] reg24=[CFA+56] reg25=[CFA+64] reg26=[CFA+72] reg27=[CFA+80] reg28=[CFA+88] reg30=[CFA+8] reg29=[CFA]
  0x000a4948: CFA=reg29: reg31=reg29+16 reg19=[CFA+16] reg20=[CFA+24] reg21=[CFA+32] reg22=[CFA+40] reg23=[CFA+48] reg24=[CFA+56] reg25=[CFA+64] reg26=[CFA+72] reg27=[CFA+80] reg28=[CFA+88] reg30=[CFA+8] reg29=[CFA]
  0x000a4aac: CFA=reg29: reg31=reg29+16 reg19=[CFA+16] reg20=[CFA+24] reg21=[CFA+32] reg22=[CFA+40] reg30=[CFA+8] reg29=[CFA]
  0x000a4bec: CFA=reg29: reg31=reg29+16 reg19=[CFA+16] reg20=[CFA+24] reg30=[CFA+8] reg29=[CFA]
  0x000a4c6c: CFA=reg31
  0x000a4c74: CFA=reg29: reg31=reg29+16 reg19=[CFA+16] reg20=[CFA+24] reg21=[CFA+32] reg22=[CFA+40] reg23=[CFA+48] reg24=[CFA+56] reg25=[CFA+64] reg26=[CFA+72] reg27=[CFA+80] reg28=[CFA+88] reg30=[CFA+8] reg29=[CFA]
  0x000a4fc8: CFA=reg29: reg31=reg29+16 reg19=[CFA+16] reg20=[CFA+24] reg21=[CFA+32] reg22=[CFA+40] reg23=[CFA+48] reg24=[CFA+56] reg25=[CFA+64] reg26=[CFA+72] reg27=[CFA+80] reg28=[CFA+88] reg30=[CFA+8] reg29=[CFA]
  0x000a5894: CFA=reg29: reg31=reg29+16 reg19=[CFA+16] reg20=[CFA+24] reg21=[CFA+32] reg22=[CFA+40] reg23=[CFA+48] reg24=[CFA+56] reg25=[CFA+64] reg26=[CFA+72] reg27=[CFA+80] reg28=[CFA+88] reg30=[CFA+8] reg29=[CFA]
  0x000a5cdc: CFA=reg29: reg31=reg29+16 reg19=[CFA+16] reg20=[CFA+24] reg21=[CFA+32] reg22=[CFA+40] reg23=[CFA+48] reg24=[CFA+56] reg30=[CFA+8] reg29=[CFA]
  0x000a5f08: CFA=reg29: reg31=reg29+16 reg19=[CFA+16] reg20=[CFA+24] reg21=[CFA+32] reg22=[CFA+40] reg23=[CFA+48] reg24=[CFA+56] reg25=[CFA+64] reg26=[CFA+72] reg27=[CFA+80] reg28=[CFA+88] reg30=[CFA+8] reg29=[CFA]
  0x000a686c: CFA=reg29: reg31=reg29+16 reg19=[CFA+16] reg20=[CFA+24] reg21=[CFA+32] reg22=[CFA+40] reg23=[CFA+48] reg24=[CFA+56] reg25=[CFA+64] reg26=[CFA+72] reg27=[CFA+80] reg28=[CFA+88] reg30=[CFA+8] reg29=[CFA]
  0x000a9254: CFA=reg31
  0x000a9278: CFA=reg29: reg31=reg29+16 reg19=[CFA+16] reg20=[CFA+24] reg30=[CFA+8] reg29=[CFA]
  0x000a959c: CFA=reg29: reg31=reg29+16 reg19=[CFA+16] reg20=[CFA+24] reg21=[CFA+32] reg22=[CFA+40] reg23=[CFA+48] reg24=[CFA+56] reg25=[CFA+64] reg26=[CFA+72] reg27=[CFA+80] reg28=[CFA+88] reg30=[CFA+8] reg29=[CFA]
  0x000a9e30: CFA=reg29: reg31=reg29+16 reg19=[CFA+16] reg20=[CFA+24] reg30=[CFA+8] reg29=[CFA]
  0x000a9e88: CFA=reg31
  0x000a9e8c: CFA=reg29: reg31=reg29+16 reg19=[CFA+16] reg20=[CFA+24] reg21=[CFA+32] reg22=[CFA+40] reg23=[CFA+48] reg24=[CFA+56] reg25=[CFA+64] reg26=[CFA+72] reg30=[CFA+8] reg29=[CFA]
  0x000aa054: CFA=reg29: reg31=reg29+16 reg19=[CFA+16] reg20=[CFA+24] reg30=[CFA+8] reg29=[CFA]
  0x000aa160: CFA=reg29: reg31=reg29+16 reg19=[CFA+16] reg20=[CFA+24] reg21=[CFA+32] reg22=[CFA+40] reg23=[CFA+48] reg24=[CFA+56] reg25=[CFA+64] reg26=[CFA+72] reg30=[CFA+8] reg29=[CFA]
  0x000aa2b0: CFA=reg29: reg31=reg29+16 reg19=[CFA+16] reg20=[CFA+24] reg30=[CFA+8] reg29=[CFA]
  0x000aa74c: CFA=reg29: reg31=reg29+16 reg19=[CFA+16] reg20=[CFA+24] reg21=[CFA+32] reg22=[CFA+40] reg23=[CFA+48] reg24=[CFA+56] reg30=[CFA+8] reg29=[CFA]
  0x000aaa40: CFA=reg29: reg31=reg29+16 reg19=[CFA+16] reg20=[CFA+24] reg21=[CFA+32] reg22=[CFA+40] reg23=[CFA+48] reg24=[CFA+56] reg25=[CFA+64] reg26=[CFA+72] reg30=[CFA+8] reg29=[CFA]
  0x000aad84: CFA=reg31
  0x000aada4: CFA=reg29: reg31=reg29+16 reg19=[CFA+16] reg20=[CFA+24] reg30=[CFA+8] reg29=[CFA]
  0x000aaf14: CFA=reg29: reg31=reg29+16 reg19=[CFA+16] reg20=[CFA+24] reg21=[CFA+32] reg22=[CFA+40] reg23=[CFA+48] reg24=[CFA+56] reg25=[CFA+64] reg26=[CFA+72] reg30=[CFA+8] reg29=[CFA]
  0x000ab424: CFA=reg31
  0x000ab4b0: CFA=reg29: reg31=reg29+16 reg19=[CFA+16] reg20=[CFA+24] reg21=[CFA+32] reg22=[CFA+40] reg23=[CFA+48] reg24=[CFA+56] reg25=[CFA+64] reg26=[CFA+72] reg27=[CFA+80] reg28=[CFA+88] reg30=[CFA+8] reg29=[CFA]
  0x000ab5ac: CFA=reg31
  0x000ab5d8: CFA=reg31+64
  0x000ab6c0: CFA=reg29: reg31=reg29+16 reg30=[CFA+8] reg29=[CFA]
  0x000ab804: CFA=reg31
  0x000ab818: CFA=reg29: reg31=reg29+16 reg30=[CFA+8] reg29=[CFA]
  0x000ab94c: CFA=reg29: reg31=reg29+16 reg19=[CFA+16] reg20=[CFA+24] reg30=[CFA+8] reg29=[CFA]
  0x000abbf8: CFA=reg29: reg31=reg29+16 reg30=[CFA+8] reg29=[CFA]
  0x000abe30: CFA=reg29: reg31=reg29+16 reg19=[CFA+16] reg20=[CFA+24] reg21=[CFA+32] reg22=[CFA+40] reg23=[CFA+48] reg24=[CFA+56] reg25=[CFA+64] reg26=[CFA+72] reg30=[CFA+8] reg29=[CFA]
  0x000ac030: CFA=reg29: reg31=reg29+16 reg19=[CFA+16] reg20=[CFA+24] reg21=[CFA+32] reg22=[CFA+40] reg30=[CFA+8] reg29=[CFA]
  0x000ac700: CFA=reg29: reg31=reg29+16 reg19=[CFA+16] reg20=[CFA+24] reg21=[CFA+32] reg22=[CFA+40] reg30=[CFA+8] reg29=[CFA]
  0x000ac8cc: CFA=reg31
  0x000ac8e0: CFA=reg29: reg31=reg29+16 reg19=[CFA+16] reg20=[CFA+24] reg21=[CFA+32] reg22=[CFA+40] reg30=[CFA+8] reg29=[CFA]
  0x000acb4c: CFA=reg29: reg31=reg29+16 reg19=[CFA+16] reg20=[CFA+24] reg21=[CFA+32] reg22=[CFA+40] reg23=[CFA+48] reg24=[CFA+56] reg25=[CFA+64] reg26=[CFA+72] reg27=[CFA+80] reg28=[CFA+88] reg30=[CFA+8] reg29=[CFA]
  0x000ace48: CFA=reg29: reg31=reg29+16 reg19=[CFA+16] reg20=[CFA+24] reg21=[CFA+32] reg22=[CFA+40] reg30=[CFA+8] reg29=[CFA]
  0x000ad0f8: CFA=reg31
  0x000ad138: CFA=reg29: reg31=reg29+16 reg19=[CFA+16] reg20=[CFA+24] reg21=[CFA+32] reg22=[CFA+40] reg30=[CFA+8] reg29=[CFA]
  0x000ad260: CFA=reg29: reg31=reg29+16 reg19=[CFA+16] reg20=[CFA+24] reg30=[CFA+8] reg29=[CFA]
  0x000ad3bc: CFA=reg29: reg31=reg29+16 reg19=[CFA+16] reg20=[CFA+24] reg21=[CFA+32] reg22=[CFA+40] reg30=[CFA+8] reg29=[CFA]
  0x000ad554: CFA=reg29: reg31=reg29+16 reg19=[CFA+16] reg20=[CFA+24] reg21=[CFA+32] reg22=[CFA+40] reg30=[CFA+8] reg29=[CFA]
  0x000ad698: CFA=reg29: reg31=reg29+16 reg19=[CFA+16] reg20=[CFA+24] reg21=[CFA+32] reg22=[CFA+40] reg30=[CFA+8] reg29=[CFA]
  0x000ad7ec: CFA=reg29: reg31=reg29+16 reg19=[CFA+16] reg20=[CFA+24] reg21=[CFA+32] reg22=[CFA+40] reg30=[CFA+8] reg29=[CFA]
  0x000ad94c: CFA=reg29: reg31=reg29+16 reg19=[CFA+16] reg20=[CFA+24] reg21=[CFA+32] reg22=[CFA+40] reg23=[CFA+48] reg24=[CFA+56] reg30=[CFA+8] reg29=[CFA]
  0x000adfdc: CFA=reg29: reg31=reg29+16 reg19=[CFA+16] reg20=[CFA+24] reg21=[CFA+32] reg22=[CFA+40] reg30=[CFA+8] reg29=[CFA]
  0x000ae120: CFA=reg29: reg31=reg29+16 reg19=[CFA+16] reg20=[CFA+24] reg21=[CFA+32] reg22=[CFA+40] reg30=[CFA+8] reg29=[CFA]
  0x000ae344: CFA=reg29: reg31=reg29+16 reg19=[CFA+16] reg20=[CFA+24] reg30=[CFA+8] reg29=[CFA]
  0x000ae51c: CFA=reg29: reg31=reg29+16 reg19=[CFA+16] reg20=[CFA+24] reg30=[CFA+8] reg29=[CFA]
  0x000ae784: CFA=reg29: reg31=reg29+16 reg19=[CFA+16] reg20=[CFA+24] reg30=[CFA+8] reg29=[CFA]
  0x000ae860: CFA=reg29: reg31=reg29+16 reg19=[CFA+16] reg20=[CFA+24] reg30=[CFA+8] reg29=[CFA]
  0x000ae924: CFA=reg29: reg31=reg29+16 reg19=[CFA+16] reg20=[CFA+24] reg21=[CFA+32] reg22=[CFA+40] reg23=[CFA+48] reg24=[CFA+56] reg25=[CFA+64] reg26=[CFA+72] reg27=[CFA+80] reg28=[CFA+88] reg30=[CFA+8] reg29=[CFA]
  0x000aee58: CFA=reg29: reg31=reg29+16 reg19=[CFA+16] reg20=[CFA+24] reg30=[CFA+8] reg29=[CFA]
  0x000aeee0: CFA=reg31
  0x000aef54: CFA=reg29: reg31=reg29+16 reg19=[CFA+16] reg20=[CFA+24] reg21=[CFA+32] reg22=[CFA+40] reg23=[CFA+48] reg24=[CFA+56] reg25=[CFA+64] reg26=[CFA+72] reg27=[CFA+80] reg28=[CFA+88] reg30=[CFA+8] reg29=[CFA]
  0x000afe40: CFA=reg29: reg31=reg29+16 reg19=[CFA+16] reg20=[CFA+24] reg21=[CFA+32] reg22=[CFA+40] reg30=[CFA+8] reg29=[CFA]
  0x000aff60: CFA=reg29: reg31=reg29+16 reg19=[CFA+16] reg20=[CFA+24] reg21=[CFA+32] reg22=[CFA+40] reg30=[CFA+8] reg29=[CFA]
  0x000b030c: CFA=reg29: reg31=reg29+16 reg19=[CFA+16] reg20=[CFA+24] reg21=[CFA+32] reg22=[CFA+40] reg23=[CFA+48] reg24=[CFA+56] reg25=[CFA+64] reg26=[CFA+72] reg27=[CFA+80] reg28=[CFA+88] reg30=[CFA+8] reg29=[CFA]
  0x000b0524: CFA=reg29: reg31=reg29+16 reg19=[CFA+16] reg20=[CFA+24] reg30=[CFA+8] reg29=[CFA]
  0x000b0790: CFA=reg29: reg31=reg29+16 reg19=[CFA+16] reg20=[CFA+24] reg21=[CFA+32] reg22=[CFA+40] reg30=[CFA+8] reg29=[CFA]
  0x000b0a90: CFA=reg29: reg31=reg29+16 reg19=[CFA+16] reg20=[CFA+24] reg30=[CFA+8] reg29=[CFA]
  0x000b0da0: CFA=reg29: reg31=reg29+16 reg19=[CFA+16] reg20=[CFA+24] reg30=[CFA+8] reg29=[CFA]
  0x000b0dfc: CFA=reg29: reg31=reg29+16 reg19=[CFA+16] reg20=[CFA+24] reg30=[CFA+8] reg29=[CFA]
  0x000b0f30: CFA=reg31+32
  0x000b0f7c: CFA=reg29: reg31=reg29+16 reg30=[CFA+8] reg29=[CFA]
  0x000b1100: CFA=reg29: reg31=reg29+16 reg19=[CFA+16] reg20=[CFA+24] reg30=[CFA+8] reg29=[CFA]
  0x000b116c: CFA=reg29: reg31=reg29+16 reg30=[CFA+8] reg29=[CFA]
  0x000b11f4: CFA=reg31
  0x000b11fc: CFA=reg29: reg31=reg29+16 reg19=[CFA+16] reg20=[CFA+24] reg30=[CFA+8] reg29=[CFA]
  0x000b1268: CFA=reg29: reg31=reg29+16 reg30=[CFA+8] reg29=[CFA]
  0x000b1328: CFA=reg31
  0x000b1340: CFA=reg29: reg31=reg29+16 reg19=[CFA+16] reg20=[CFA+24] reg30=[CFA+8] reg29=[CFA]
  0x000b17f4: CFA=reg31
  0x000b181c: CFA=reg29: reg31=reg29+16 reg19=[CFA+16] reg20=[CFA+24] reg30=[CFA+8] reg29=[CFA]
  0x000b18b0: CFA=reg29: reg31=reg29+16 reg19=[CFA+16] reg20=[CFA+24] reg21=[CFA+32] reg22=[CFA+40] reg30=[CFA+8] reg29=[CFA]
  0x000b19c0: CFA=reg29: reg31=reg29+16 reg19=[CFA+16] reg20=[CFA+24] reg21=[CFA+32] reg22=[CFA+40] reg30=[CFA+8] reg29=[CFA]
  0x000b1ae4: CFA=reg29: reg31=reg29+16 reg19=[CFA+16] reg20=[CFA+24] reg21=[CFA+32] reg22=[CFA+40] reg23=[CFA+48] reg24=[CFA+56] reg25=[CFA+64] reg26=[CFA+72] reg27=[CFA+80] reg28=[CFA+88] reg30=[CFA+8] reg29=[CFA]
  0x000b1fe4: CFA=reg29: reg31=reg29+16 reg19=[CFA+16] reg20=[CFA+24] reg21=[CFA+32] reg22=[CFA+40] reg23=[CFA+48] reg24=[CFA+56] reg25=[CFA+64] reg26=[CFA+72] reg27=[CFA+80] reg28=[CFA+88] reg30=[CFA+8] reg29=[CFA]
  0x000b3f50: CFA=reg29: reg31=reg29+16 reg19=[CFA+16] reg20=[CFA+24] reg21=[CFA+32] reg22=[CFA+40] reg23=[CFA+48] reg24=[CFA+56] reg30=[CFA+8] reg29=[CFA]
  0x000b4450: CFA=reg29: reg31=reg29+16 reg19=[CFA+16] reg20=[CFA+24] reg21=[CFA+32] reg22=[CFA+40] reg23=[CFA+48] reg24=[CFA+56] reg25=[CFA+64] reg26=[CFA+72] reg27=[CFA+80] reg28=[CFA+88] reg30=[CFA+8] reg29=[CFA]
  0x000b49e0: CFA=reg29: reg31=reg29+16 reg19=[CFA+16] reg20=[CFA+24] reg21=[CFA+32] reg22=[CFA+40] reg30=[CFA+8] reg29=[CFA]
  0x000b4af8: CFA=reg29: reg31=reg29+16 reg19=[CFA+16] reg20=[CFA+24] reg21=[CFA+32] reg22=[CFA+40] reg23=[CFA+48] reg24=[CFA+56] reg25=[CFA+64] reg26=[CFA+72] reg27=[CFA+80] reg28=[CFA+88] reg30=[CFA+8] reg29=[CFA]
  0x000b4cb8: CFA=reg29: reg31=reg29+16 reg19=[CFA+16] reg20=[CFA+24] reg30=[CFA+8] reg29=[CFA]
  0x000b4dc0: CFA=reg29: reg31=reg29+16 reg19=[CFA+16] reg20=[CFA+24] reg21=[CFA+32] reg22=[CFA+40] reg30=[CFA+8] reg29=[CFA]
  0x000b4fe0: CFA=reg29: reg31=reg29+16 reg19=[CFA+16] reg20=[CFA+24] reg21=[CFA+32] reg22=[CFA+40] reg23=[CFA+48] reg24=[CFA+56] reg25=[CFA+64] reg26=[CFA+72] reg27=[CFA+80] reg28=[CFA+88] reg30=[CFA+8] reg29=[CFA]
  0x000b5180: CFA=reg29: reg31=reg29+16 reg19=[CFA+16] reg20=[CFA+24] reg21=[CFA+32] reg22=[CFA+40] reg30=[CFA+8] reg29=[CFA]
  0x000b5480: CFA=reg29: reg31=reg29+16 reg19=[CFA+16] reg20=[CFA+24] reg21=[CFA+32] reg22=[CFA+40] reg23=[CFA+48] reg24=[CFA+56] reg25=[CFA+64] reg26=[CFA+72] reg27=[CFA+80] reg28=[CFA+88] reg30=[CFA+8] reg29=[CFA]
  0x000b5a60: CFA=reg29: reg31=reg29+16 reg19=[CFA+16] reg20=[CFA+24] reg21=[CFA+32] reg22=[CFA+40] reg23=[CFA+48] reg24=[CFA+56] reg30=[CFA+8] reg29=[CFA]
  0x000b5c58: CFA=reg29: reg31=reg29+16 reg30=[CFA+8] reg29=[CFA]
  0x000b5c9c: CFA=reg29: reg31=reg29+16 reg19=[CFA+16] reg20=[CFA+24] reg21=[CFA+32] reg22=[CFA+40] reg23=[CFA+48] reg24=[CFA+56] reg30=[CFA+8] reg29=[CFA]
  0x000b5d88: CFA=reg31
  0x000b5db4: CFA=reg29: reg31=reg29+16 reg19=[CFA+16] reg20=[CFA+24] reg21=[CFA+32] reg22=[CFA+40] reg23=[CFA+48] reg24=[CFA+56] reg30=[CFA+8] reg29=[CFA]
  0x000b66c4: CFA=reg29: reg31=reg29+16 reg19=[CFA+16] reg20=[CFA+24] reg21=[CFA+32] reg22=[CFA+40] reg23=[CFA+48] reg24=[CFA+56] reg30=[CFA+8] reg29=[CFA]
  0x000b67cc: CFA=reg29: reg31=reg29+16 reg19=[CFA+16] reg20=[CFA+24] reg21=[CFA+32] reg22=[CFA+40] reg30=[CFA+8] reg29=[CFA]
  0x000b685c: CFA=reg31
  0x000b6880: CFA=reg29: reg31=reg29+16 reg19=[CFA+16] reg20=[CFA+24] reg30=[CFA+8] reg29=[CFA]
  0x000b692c: CFA=reg29: reg31=reg29+16 reg19=[CFA+16] reg20=[CFA+24] reg30=[CFA+8] reg29=[CFA]
  0x000b6968: CFA=reg29: reg31=reg29+16 reg19=[CFA+16] reg20=[CFA+24] reg30=[CFA+8] reg29=[CFA]
  0x000b6a58: CFA=reg29: reg31=reg29+16 reg19=[CFA+16] reg20=[CFA+24] reg21=[CFA+32] reg22=[CFA+40] reg30=[CFA+8] reg29=[CFA]
  0x000b6b08: CFA=reg29: reg31=reg29+16 reg19=[CFA+16] reg20=[CFA+24] reg21=[CFA+32] reg22=[CFA+40] reg30=[CFA+8] reg29=[CFA]
  0x000b6bb4: CFA=reg29: reg31=reg29+16 reg19=[CFA+16] reg20=[CFA+24] reg21=[CFA+32] reg22=[CFA+40] reg30=[CFA+8] reg29=[CFA]
  0x000b6d3c: CFA=reg31
  0x000b6d68: CFA=reg29: reg31=reg29+16 reg19=[CFA+16] reg20=[CFA+24] reg21=[CFA+32] reg22=[CFA+40] reg30=[CFA+8] reg29=[CFA]
  0x000b6ec4: CFA=reg31
  0x000b6ef0: CFA=reg29: reg31=reg29+16 reg19=[CFA+16] reg20=[CFA+24] reg30=[CFA+8] reg29=[CFA]
  0x000b7128: CFA=reg31
  0x000b716c: CFA=reg29: reg31=reg29+16 reg19=[CFA+16] reg20=[CFA+24] reg21=[CFA+32] reg22=[CFA+40] reg23=[CFA+48] reg24=[CFA+56] reg30=[CFA+8] reg29=[CFA]
  0x000b73f4: CFA=reg29: reg31=reg29+16 reg30=[CFA+8] reg29=[CFA]
  0x000b7438: CFA=reg29: reg31=reg29+16 reg19=[CFA+16] reg20=[CFA+24] reg30=[CFA+8] reg29=[CFA]
  0x000b776c: CFA=reg29: reg31=reg29+16 reg30=[CFA+8] reg29=[CFA]
  0x000b778c: CFA=reg31
  0x000b77ac: CFA=reg29: reg31=reg29+16 reg19=[CFA+16] reg20=[CFA+24] reg21=[CFA+32] reg22=[CFA+40] reg23=[CFA+48] reg24=[CFA+56] reg25=[CFA+64] reg26=[CFA+72] reg27=[CFA+80] reg28=[CFA+88] reg30=[CFA+8] reg29=[CFA]
  0x000b78b4: CFA=reg29: reg31=reg29+16 reg19=[CFA+16] reg20=[CFA+24] reg21=[CFA+32] reg22=[CFA+40] reg23=[CFA+48] reg24=[CFA+56] reg25=[CFA+64] reg26=[CFA+72] reg27=[CFA+80] reg28=[CFA+88] reg30=[CFA+8] reg29=[CFA]
  0x000b8264: CFA=reg29: reg31=reg29+16 reg19=[CFA+16] reg20=[CFA+24] reg21=[CFA+32] reg22=[CFA+40] reg23=[CFA+48] reg24=[CFA+56] reg25=[CFA+64] reg26=[CFA+72] reg27=[CFA+80] reg28=[CFA+88] reg30=[CFA+8] reg29=[CFA]
  0x000b8778: CFA=reg29: reg31=reg29+16 reg19=[CFA+16] reg20=[CFA+24] reg21=[CFA+32] reg22=[CFA+40] reg23=[CFA+48] reg24=[CFA+56] reg25=[CFA+64] reg26=[CFA+72] reg27=[CFA+80] reg28=[CFA+88] reg30=[CFA+8] reg29=[CFA]
  0x000b9170: CFA=reg29: reg31=reg29+16 reg19=[CFA+16] reg20=[CFA+24] reg30=[CFA+8] reg29=[CFA]
  0x000b91ec: CFA=reg29: reg31=reg29+16 reg19=[CFA+16] reg20=[CFA+24] reg30=[CFA+8] reg29=[CFA]
  0x000b9228: CFA=reg29: reg31=reg29+16 reg19=[CFA+16] reg20=[CFA+24] reg21=[CFA+32] reg22=[CFA+40] reg23=[CFA+48] reg24=[CFA+56] reg25=[CFA+64] reg26=[CFA+72] reg27=[CFA+80] reg28=[CFA+88] reg30=[CFA+8] reg29=[CFA]
  0x000b9334: CFA=reg29: reg31=reg29+16 reg19=[CFA+16] reg20=[CFA+24] reg21=[CFA+32] reg22=[CFA+40] reg30=[CFA+8] reg29=[CFA]
  0x000b949c: CFA=reg29: reg31=reg29+16 reg19=[CFA+16] reg20=[CFA+24] reg30=[CFA+8] reg29=[CFA]
  0x000b94e4: CFA=reg29: reg31=reg29+16 reg19=[CFA+16] reg20=[CFA+24] reg21=[CFA+32] reg22=[CFA+40] reg30=[CFA+8] reg29=[CFA]
  0x000b95a4: CFA=reg29: reg31=reg29+16 reg19=[CFA+16] reg20=[CFA+24] reg30=[CFA+8] reg29=[CFA]
  0x000b9628: CFA=reg31
  0x000b9648: CFA=reg29: reg31=reg29+16 reg30=[CFA+8] reg29=[CFA]
  0x000b966c: CFA=reg29: reg31=reg29+16 reg19=[CFA+16] reg20=[CFA+24] reg30=[CFA+8] reg29=[CFA]
  0x000b96b8: CFA=reg29: reg31=reg29+16 reg19=[CFA+16] reg20=[CFA+24] reg21=[CFA+32] reg22=[CFA+40] reg30=[CFA+8] reg29=[CFA]
  0x000b9790: CFA=reg31
  0x000b9798: CFA=reg29: reg31=reg29+16 reg19=[CFA+16] reg20=[CFA+24] reg21=[CFA+32] reg22=[CFA+40] reg23=[CFA+48] reg24=[CFA+56] reg25=[CFA+64] reg26=[CFA+72] reg27=[CFA+80] reg28=[CFA+88] reg14=[CFA+96] reg15=[CFA+104] reg30=[CFA+8] reg29=[CFA]
  0x000bb2dc: CFA=reg31
  0x000bb310: CFA=reg29: reg31=reg29+16 reg19=[CFA+16] reg20=[CFA+24] reg21=[CFA+32] reg22=[CFA+40] reg23=[CFA+48] reg24=[CFA+56] reg25=[CFA+64] reg26=[CFA+72] reg27=[CFA+80] reg28=[CFA+88] reg30=[CFA+8] reg29=[CFA]
  0x000bb40c: CFA=reg31
  0x000bb414: CFA=reg29: reg31=reg29+16 reg19=[CFA+16] reg20=[CFA+24] reg21=[CFA+32] reg22=[CFA+40] reg23=[CFA+48] reg24=[CFA+56] reg30=[CFA+8] reg29=[CFA]
  0x000bb50c: CFA=reg29: reg31=reg29+16 reg19=[CFA+16] reg20=[CFA+24] reg21=[CFA+32] reg22=[CFA+40] reg23=[CFA+48] reg24=[CFA+56] reg25=[CFA+64] reg26=[CFA+72] reg30=[CFA+8] reg29=[CFA]
  0x000bb5fc: CFA=reg31
  0x000bb604: CFA=reg29: reg31=reg29+16 reg30=[CFA+8] reg29=[CFA]
  0x000bb638: CFA=reg29: reg31=reg29+16 reg19=[CFA+16] reg20=[CFA+24] reg21=[CFA+32] reg22=[CFA+40] reg23=[CFA+48] reg24=[CFA+56] reg30=[CFA+8] reg29=[CFA]
  0x000bb76c: CFA=reg29: reg31=reg29+16 reg19=[CFA+16] reg20=[CFA+24] reg21=[CFA+32] reg22=[CFA+40] reg23=[CFA+48] reg24=[CFA+56] reg25=[CFA+64] reg26=[CFA+72] reg27=[CFA+80] reg28=[CFA+88] reg14=[CFA+96] reg15=[CFA+104] reg30=[CFA+8] reg29=[CFA]
  0x000bd958: CFA=reg29: reg31=reg29+16 reg19=[CFA+16] reg20=[CFA+24] reg21=[CFA+32] reg22=[CFA+40] reg30=[CFA+8] reg29=[CFA]
  0x000bda60: CFA=reg29: reg31=reg29+16 reg19=[CFA+16] reg20=[CFA+24] reg30=[CFA+8] reg29=[CFA]
  0x000bdab8: CFA=reg29: reg31=reg29+16 reg19=[CFA+16] reg20=[CFA+24] reg21=[CFA+32] reg22=[CFA+40] reg23=[CFA+48] reg24=[CFA+56] reg25=[CFA+64] reg26=[CFA+72] reg27=[CFA+80] reg28=[CFA+88] reg30=[CFA+8] reg29=[CFA]
  0x000bdbc8: CFA=reg29: reg31=reg29+16 reg19=[CFA+16] reg20=[CFA+24] reg30=[CFA+8] reg29=[CFA]
  0x000bdc28: CFA=reg29: reg31=reg29+16 reg19=[CFA+16] reg20=[CFA+24] reg21=[CFA+32] reg22=[CFA+40] reg23=[CFA+48] reg24=[CFA+56] reg25=[CFA+64] reg26=[CFA+72] reg27=[CFA+80] reg28=[CFA+88] reg30=[CFA+8] reg29=[CFA]
  0x000bde5c: CFA=reg29: reg31=reg29+16 reg19=[CFA+16] reg20=[CFA+24] reg21=[CFA+32] reg22=[CFA+40] reg23=[CFA+48] reg24=[CFA+56] reg25=[CFA+64] reg26=[CFA+72] reg27=[CFA+80] reg28=[CFA+88] reg30=[CFA+8] reg29=[CFA]
  0x000be26c: CFA=reg29: reg31=reg29+16 reg19=[CFA+16] reg20=[CFA+24] reg21=[CFA+32] reg22=[CFA+40] reg23=[CFA+48] reg24=[CFA+56] reg25=[CFA+64] reg26=[CFA+72] reg27=[CFA+80] reg28=[CFA+88] reg30=[CFA+8] reg29=[CFA]
  0x000be378: CFA=reg31
  0x000be394: CFA=reg29: reg31=reg29+16 reg19=[CFA+16] reg20=[CFA+24] reg21=[CFA+32] reg22=[CFA+40] reg23=[CFA+48] reg24=[CFA+56] reg25=[CFA+64] reg26=[CFA+72] reg27=[CFA+80] reg28=[CFA+88] reg30=[CFA+8] reg29=[CFA]
  0x000be4a8: CFA=reg29: reg31=reg29+16 reg19=[CFA+16] reg20=[CFA+24] reg30=[CFA+8] reg29=[CFA]
  0x000be4fc: CFA=reg29: reg31=reg29+16 reg19=[CFA+16] reg20=[CFA+24] reg21=[CFA+32] reg22=[CFA+40] reg23=[CFA+48] reg24=[CFA+56] reg30=[CFA+8] reg29=[CFA]
  0x000be60c: CFA=reg29: reg31=reg29+16 reg19=[CFA+16] reg20=[CFA+24] reg30=[CFA+8] reg29=[CFA]
  0x000be6f0: CFA=reg29: reg31=reg29+16 reg19=[CFA+16] reg20=[CFA+24] reg21=[CFA+32] reg22=[CFA+40] reg23=[CFA+48] reg24=[CFA+56] reg25=[CFA+64] reg26=[CFA+72] reg30=[CFA+8] reg29=[CFA]
  0x000be8f4: CFA=reg31
  0x000be8fc: CFA=reg29: reg31=reg29+16 reg30=[CFA+8] reg29=[CFA]
  0x000be958: CFA=reg31
  0x000be968: CFA=reg29: reg31=reg29+16 reg19=[CFA+16] reg20=[CFA+24] reg21=[CFA+32] reg22=[CFA+40] reg23=[CFA+48] reg24=[CFA+56] reg30=[CFA+8] reg29=[CFA]
  0x000bea64: CFA=reg29: reg31=reg29+16 reg30=[CFA+8] reg29=[CFA]
  0x000befcc: CFA=reg29: reg31=reg29+16 reg19=[CFA+16] reg20=[CFA+24] reg21=[CFA+32] reg22=[CFA+40] reg30=[CFA+8] reg29=[CFA]
  0x000bf658: CFA=reg29: reg31=reg29+16 reg19=[CFA+16] reg20=[CFA+24] reg21=[CFA+32] reg22=[CFA+40] reg23=[CFA+48] reg24=[CFA+56] reg25=[CFA+64] reg26=[CFA+72] reg27=[CFA+80] reg28=[CFA+88] reg30=[CFA+8] reg29=[CFA]
  0x000bf9d8: CFA=reg29: reg31=reg29+16 reg19=[CFA+16] reg20=[CFA+24] reg21=[CFA+32] reg22=[CFA+40] reg23=[CFA+48] reg24=[CFA+56] reg25=[CFA+64] reg26=[CFA+72] reg30=[CFA+8] reg29=[CFA]
  0x000bfc08: CFA=reg31
  0x000bfc10: CFA=reg29: reg31=reg29+16 reg19=[CFA+16] reg20=[CFA+24] reg21=[CFA+32] reg22=[CFA+40] reg23=[CFA+48] reg24=[CFA+56] reg25=[CFA+64] reg26=[CFA+72] reg30=[CFA+8] reg29=[CFA]
  0x000bfd44: CFA=reg29: reg31=reg29+16 reg19=[CFA+16] reg20=[CFA+24] reg21=[CFA+32] reg22=[CFA+40] reg23=[CFA+48] reg24=[CFA+56] reg30=[CFA+8] reg29=[CFA]
  0x000bfe2c: CFA=reg29: reg31=reg29+16 reg19=[CFA+16] reg20=[CFA+24] reg21=[CFA+32] reg22=[CFA+40] reg23=[CFA+48] reg24=[CFA+56] reg25=[CFA+64] reg26=[CFA+72] reg27=[CFA+80] reg28=[CFA+88] reg30=[CFA+8] reg29=[CFA]
  0x000c0e84: CFA=reg29: reg31=reg29+16 reg19=[CFA+16] reg20=[CFA+24] reg21=[CFA+32] reg22=[CFA+40] reg30=[CFA+8] reg29=[CFA]
  0x000c0f98: CFA=reg29: reg31=reg29+16 reg19=[CFA+16] reg20=[CFA+24] reg21=[CFA+32] reg22=[CFA+40] reg23=[CFA+48] reg24=[CFA+56] reg25=[CFA+64] reg26=[CFA+72] reg30=[CFA+8] reg29=[CFA]
  0x000c1200: CFA=reg29: reg31=reg29+16 reg19=[CFA+16] reg20=[CFA+24] reg30=[CFA+8] reg29=[CFA]
  0x000c13e4: CFA=reg31
  0x000c13f8: CFA=reg29: reg31=reg29+16 reg19=[CFA+16] reg20=[CFA+24] reg21=[CFA+32] reg22=[CFA+40] reg23=[CFA+48] reg24=[CFA+56] reg25=[CFA+64] reg26=[CFA+72] reg27=[CFA+80] reg28=[CFA+88] reg30=[CFA+8] reg29=[CFA]
  0x000c154c: CFA=reg29: reg31=reg29+16 reg19=[CFA+16] reg20=[CFA+24] reg21=[CFA+32] reg22=[CFA+40] reg23=[CFA+48] reg24=[CFA+56] reg25=[CFA+64] reg26=[CFA+72] reg30=[CFA+8] reg29=[CFA]
  0x000c1664: CFA=reg31
  0x000c166c: CFA=reg29: reg31=reg29+16 reg19=[CFA+16] reg20=[CFA+24] reg21=[CFA+32] reg22=[CFA+40] reg23=[CFA+48] reg24=[CFA+56] reg25=[CFA+64] reg26=[CFA+72] reg27=[CFA+80] reg28=[CFA+88] reg30=[CFA+8] reg29=[CFA]
  0x000c1ff4: CFA=reg29: reg31=reg29+16 reg19=[CFA+16] reg20=[CFA+24] reg21=[CFA+32] reg22=[CFA+40] reg30=[CFA+8] reg29=[CFA]
  0x000c2078: CFA=reg31
  0x000c2090: CFA=reg29: reg31=reg29+16 reg19=[CFA+16] reg20=[CFA+24] reg21=[CFA+32] reg22=[CFA+40] reg30=[CFA+8] reg29=[CFA]
  0x000c2100: CFA=reg29: reg31=reg29+16 reg19=[CFA+16] reg20=[CFA+24] reg21=[CFA+32] reg22=[CFA+40] reg30=[CFA+8] reg29=[CFA]
  0x000c21d8: CFA=reg29: reg31=reg29+16 reg19=[CFA+16] reg20=[CFA+24] reg21=[CFA+32] reg22=[CFA+40] reg23=[CFA+48] reg24=[CFA+56] reg25=[CFA+64] reg26=[CFA+72] reg27=[CFA+80] reg28=[CFA+88] reg30=[CFA+8] reg29=[CFA]
  0x000c2648: CFA=reg29: reg31=reg29+16 reg19=[CFA+16] reg20=[CFA+24] reg30=[CFA+8] reg29=[CFA]
  0x000c26b0: CFA=reg29: reg31=reg29+16 reg19=[CFA+16] reg20=[CFA+24] reg21=[CFA+32] reg22=[CFA+40] reg23=[CFA+48] reg24=[CFA+56] reg30=[CFA+8] reg29=[CFA]
  0x000c2ec4: CFA=reg29: reg31=reg29+16 reg19=[CFA+16] reg20=[CFA+24] reg21=[CFA+32] reg22=[CFA+40] reg30=[CFA+8] reg29=[CFA]
  0x000c32bc: CFA=reg29: reg31=reg29+16 reg19=[CFA+16] reg20=[CFA+24] reg30=[CFA+8] reg29=[CFA]
  0x000c3700: CFA=reg29: reg31=reg29+16 reg19=[CFA+16] reg20=[CFA+24] reg30=[CFA+8] reg29=[CFA]
  0x000c3b60: CFA=reg29: reg31=reg29+16 reg19=[CFA+16] reg20=[CFA+24] reg21=[CFA+32] reg22=[CFA+40] reg23=[CFA+48] reg24=[CFA+56] reg30=[CFA+8] reg29=[CFA]
  0x000c3ca0: CFA=reg29: reg31=reg29+16 reg19=[CFA+16] reg20=[CFA+24] reg30=[CFA+8] reg29=[CFA]
  0x000c3d44: CFA=reg29: reg31=reg29+16 reg19=[CFA+16] reg20=[CFA+24] reg30=[CFA+8] reg29=[CFA]
  0x000c3e28: CFA=reg29: reg31=reg29+16 reg19=[CFA+16] reg20=[CFA+24] reg30=[CFA+8] reg29=[CFA]
  0x000c3f10: CFA=reg29: reg31=reg29+16 reg19=[CFA+16] reg20=[CFA+24] reg21=[CFA+32] reg22=[CFA+40] reg23=[CFA+48] reg24=[CFA+56] reg30=[CFA+8] reg29=[CFA]
  0x000c401c: CFA=reg29: reg31=reg29+16 reg19=[CFA+16] reg20=[CFA+24] reg21=[CFA+32] reg22=[CFA+40] reg23=[CFA+48] reg24=[CFA+56] reg30=[CFA+8] reg29=[CFA]
  0x000c41b4: CFA=reg29: reg31=reg29+16 reg19=[CFA+16] reg20=[CFA+24] reg30=[CFA+8] reg29=[CFA]
  0x000c41f0: CFA=reg29: reg31=reg29+16 reg19=[CFA+16] reg20=[CFA+24] reg21=[CFA+32] reg22=[CFA+40] reg23=[CFA+48] reg24=[CFA+56] reg25=[CFA+64] reg26=[CFA+72] reg30=[CFA+8] reg29=[CFA]
  0x000c43f0: CFA=reg29: reg31=reg29+16 reg19=[CFA+16] reg20=[CFA+24] reg21=[CFA+32] reg22=[CFA+40] reg23=[CFA+48] reg24=[CFA+56] reg30=[CFA+8] reg29=[CFA]
  0x000c44a8: CFA=reg29: reg31=reg29+16 reg19=[CFA+16] reg20=[CFA+24] reg21=[CFA+32] reg22=[CFA+40] reg23=[CFA+48] reg24=[CFA+56] reg30=[CFA+8] reg29=[CFA]
  0x000c4564: CFA=reg29: reg31=reg29+16 reg19=[CFA+16] reg20=[CFA+24] reg21=[CFA+32] reg22=[CFA+40] reg23=[CFA+48] reg24=[CFA+56] reg30=[CFA+8] reg29=[CFA]
  0x000c466c: CFA=reg29: reg31=reg29+16 reg19=[CFA+16] reg20=[CFA+24] reg21=[CFA+32] reg22=[CFA+40] reg30=[CFA+8] reg29=[CFA]
  0x000c46e0: CFA=reg29: reg31=reg29+16 reg19=[CFA+16] reg20=[CFA+24] reg21=[CFA+32] reg22=[CFA+40] reg30=[CFA+8] reg29=[CFA]
  0x000c4750: CFA=reg29: reg31=reg29+16 reg19=[CFA+16] reg20=[CFA+24] reg21=[CFA+32] reg22=[CFA+40] reg23=[CFA+48] reg24=[CFA+56] reg30=[CFA+8] reg29=[CFA]
  0x000c4864: CFA=reg29: reg31=reg29+16 reg19=[CFA+16] reg20=[CFA+24] reg30=[CFA+8] reg29=[CFA]
  0x000c4954: CFA=reg29: reg31=reg29+16 reg19=[CFA+16] reg20=[CFA+24] reg30=[CFA+8] reg29=[CFA]
  0x000c4bfc: CFA=reg29: reg31=reg29+16 reg19=[CFA+16] reg20=[CFA+24] reg21=[CFA+32] reg22=[CFA+40] reg23=[CFA+48] reg24=[CFA+56] reg25=[CFA+64] reg26=[CFA+72] reg30=[CFA+8] reg29=[CFA]
  0x000c4d0c: CFA=reg29: reg31=reg29+16 reg19=[CFA+16] reg20=[CFA+24] reg21=[CFA+32] reg22=[CFA+40] reg30=[CFA+8] reg29=[CFA]
  0x000c4d6c: CFA=reg31
  0x000c4d7c: CFA=reg29: reg31=reg29+16 reg19=[CFA+16] reg20=[CFA+24] reg21=[CFA+32] reg22=[CFA+40] reg30=[CFA+8] reg29=[CFA]
  0x000c4e28: CFA=reg29: reg31=reg29+16 reg19=[CFA+16] reg20=[CFA+24] reg21=[CFA+32] reg22=[CFA+40] reg30=[CFA+8] reg29=[CFA]
  0x000c4ed8: CFA=reg31
  0x000c4f00: CFA=reg29: reg31=reg29+16 reg19=[CFA+16] reg20=[CFA+24] reg21=[CFA+32] reg22=[CFA+40] reg30=[CFA+8] reg29=[CFA]
  0x000c50e8: CFA=reg29: reg31=reg29+16 reg19=[CFA+16] reg20=[CFA+24] reg21=[CFA+32] reg22=[CFA+40] reg23=[CFA+48] reg24=[CFA+56] reg25=[CFA+64] reg26=[CFA+72] reg27=[CFA+80] reg28=[CFA+88] reg30=[CFA+8] reg29=[CFA]
  0x000c525c: CFA=reg29: reg31=reg29+16 reg19=[CFA+16] reg20=[CFA+24] reg21=[CFA+32] reg22=[CFA+40] reg30=[CFA+8] reg29=[CFA]
  0x000c5308: CFA=reg31
  0x000c5310: CFA=reg29: reg31=reg29+16 reg19=[CFA+16] reg20=[CFA+24] reg21=[CFA+32] reg22=[CFA+40] reg23=[CFA+48] reg24=[CFA+56] reg25=[CFA+64] reg26=[CFA+72] reg27=[CFA+80] reg28=[CFA+88] reg30=[CFA+8] reg29=[CFA]
  0x000c5434: CFA=reg29: reg31=reg29+16 reg19=[CFA+16] reg20=[CFA+24] reg21=[CFA+32] reg22=[CFA+40] reg30=[CFA+8] reg29=[CFA]
  0x000c5558: CFA=reg29: reg31=reg29+16 reg19=[CFA+16] reg20=[CFA+24] reg21=[CFA+32] reg22=[CFA+40] reg30=[CFA+8] reg29=[CFA]
  0x000c56a0: CFA=reg29: reg31=reg29+16 reg19=[CFA+16] reg20=[CFA+24] reg21=[CFA+32] reg22=[CFA+40] reg30=[CFA+8] reg29=[CFA]
  0x000c58d8: CFA=reg31
  0x000c58ec: CFA=reg29: reg31=reg29+16 reg19=[CFA+16] reg20=[CFA+24] reg21=[CFA+32] reg22=[CFA+40] reg23=[CFA+48] reg24=[CFA+56] reg30=[CFA+8] reg29=[CFA]
  0x000c5abc: CFA=reg31
  0x000c5af0: CFA=reg29: reg31=reg29+16 reg19=[CFA+16] reg20=[CFA+24] reg21=[CFA+32] reg22=[CFA+40] reg23=[CFA+48] reg24=[CFA+56] reg25=[CFA+64] reg26=[CFA+72] reg27=[CFA+80] reg28=[CFA+88] reg30=[CFA+8] reg29=[CFA]
  0x000c5ce8: CFA=reg29: reg31=reg29+16 reg30=[CFA+8] reg29=[CFA]
  0x000c5d28: CFA=reg29: reg31=reg29+16 reg19=[CFA+16] reg20=[CFA+24] reg21=[CFA+32] reg22=[CFA+40] reg30=[CFA+8] reg29=[CFA]
  0x000c5edc: CFA=reg29: reg31=reg29+16 reg30=[CFA+8] reg29=[CFA]
  0x000c5f54: CFA=reg31
  0x000c5f64: CFA=reg29: reg31=reg29+16 reg19=[CFA+16] reg20=[CFA+24] reg21=[CFA+32] reg22=[CFA+40] reg30=[CFA+8] reg29=[CFA]
  0x000c6010: CFA=reg29: reg31=reg29+16 reg19=[CFA+16] reg20=[CFA+24] reg21=[CFA+32] reg22=[CFA+40] reg23=[CFA+48] reg24=[CFA+56] reg25=[CFA+64] reg26=[CFA+72] reg27=[CFA+80] reg28=[CFA+88] reg30=[CFA+8] reg29=[CFA]
  0x000c74cc: CFA=reg31
  0x000c74f0: CFA=reg29: reg31=reg29+16 reg19=[CFA+16] reg20=[CFA+24] reg21=[CFA+32] reg22=[CFA+40] reg30=[CFA+8] reg29=[CFA]
  0x000c759c: CFA=reg29: reg31=reg29+16 reg19=[CFA+16] reg20=[CFA+24] reg21=[CFA+32] reg22=[CFA+40] reg30=[CFA+8] reg29=[CFA]
  0x000c76b4: CFA=reg29: reg31=reg29+16 reg19=[CFA+16] reg20=[CFA+24] reg21=[CFA+32] reg22=[CFA+40] reg23=[CFA+48] reg24=[CFA+56] reg30=[CFA+8] reg29=[CFA]
  0x000c77f4: CFA=reg31
  0x000c780c: CFA=reg29: reg31=reg29+16 reg19=[CFA+16] reg20=[CFA+24] reg21=[CFA+32] reg22=[CFA+40] reg23=[CFA+48] reg24=[CFA+56] reg30=[CFA+8] reg29=[CFA]
  0x000c7950: CFA=reg29: reg31=reg29+16 reg19=[CFA+16] reg20=[CFA+24] reg30=[CFA+8] reg29=[CFA]
  0x000c7e04: CFA=reg29: reg31=reg29+16 reg19=[CFA+16] reg20=[CFA+24] reg30=[CFA+8] reg29=[CFA]
  0x000c7e98: CFA=reg29: reg31=reg29+16 reg19=[CFA+16] reg20=[CFA+24] reg21=[CFA+32] reg22=[CFA+40] reg30=[CFA+8] reg29=[CFA]
  0x000c7fa8: CFA=reg29: reg31=reg29+16 reg19=[CFA+16] reg20=[CFA+24] reg21=[CFA+32] reg22=[CFA+40] reg30=[CFA+8] reg29=[CFA]
  0x000c8130: CFA=reg29: reg31=reg29+16 reg19=[CFA+16] reg20=[CFA+24] reg21=[CFA+32] reg22=[CFA+40] reg23=[CFA+48] reg24=[CFA+56] reg30=[CFA+8] reg29=[CFA]
  0x000c8394: CFA=reg29: reg31=reg29+16 reg19=[CFA+16] reg20=[CFA+24] reg30=[CFA+8] reg29=[CFA]
  0x000c83d8: CFA=reg29: reg31=reg29+16 reg19=[CFA+16] reg20=[CFA+24] reg21=[CFA+32] reg22=[CFA+40] reg23=[CFA+48] reg24=[CFA+56] reg25=[CFA+64] reg26=[CFA+72] reg27=[CFA+80] reg28=[CFA+88] reg30=[CFA+8] reg29=[CFA]
  0x000c880c: CFA=reg29: reg31=reg29+16 reg19=[CFA+16] reg20=[CFA+24] reg21=[CFA+32] reg22=[CFA+40] reg23=[CFA+48] reg24=[CFA+56] reg25=[CFA+64] reg26=[CFA+72] reg27=[CFA+80] reg28=[CFA+88] reg30=[CFA+8] reg29=[CFA]
  0x000c8b44: CFA=reg29: reg31=reg29+16 reg30=[CFA+8] reg29=[CFA]
  0x000c8c88: CFA=reg29: reg31=reg29+16 reg19=[CFA+16] reg20=[CFA+24] reg30=[CFA+8] reg29=[CFA]
  0x000c8f74: CFA=reg29: reg31=reg29+16 reg30=[CFA+8] reg29=[CFA]
  0x000c90b8: CFA=reg29: reg31=reg29+16 reg19=[CFA+16] reg20=[CFA+24] reg21=[CFA+32] reg22=[CFA+40] reg23=[CFA+48] reg24=[CFA+56] reg25=[CFA+64] reg26=[CFA+72] reg27=[CFA+80] reg28=[CFA+88] reg30=[CFA+8] reg29=[CFA]
  0x000c9810: CFA=reg29: reg31=reg29+16 reg19=[CFA+16] reg20=[CFA+24] reg21=[CFA+32] reg22=[CFA+40] reg30=[CFA+8] reg29=[CFA]
  0x000c98c8: CFA=reg29: reg31=reg29+16 reg19=[CFA+16] reg20=[CFA+24] reg30=[CFA+8] reg29=[CFA]
  0x000c9924: CFA=reg31
  0x000c9938: CFA=reg29: reg31=reg29+16 reg19=[CFA+16] reg20=[CFA+24] reg21=[CFA+32] reg22=[CFA+40] reg23=[CFA+48] reg24=[CFA+56] reg30=[CFA+8] reg29=[CFA]
  0x000c9cf0: CFA=reg31
  0x000c9d0c: CFA=reg29: reg31=reg29+16 reg19=[CFA+16] reg20=[CFA+24] reg30=[CFA+8] reg29=[CFA]
  0x000c9dcc: CFA=reg29: reg31=reg29+16 reg19=[CFA+16] reg20=[CFA+24] reg21=[CFA+32] reg22=[CFA+40] reg23=[CFA+48] reg24=[CFA+56] reg25=[CFA+64] reg26=[CFA+72] reg30=[CFA+8] reg29=[CFA]
  0x000c9f1c: CFA=reg29: reg31=reg29+16 reg19=[CFA+16] reg20=[CFA+24] reg21=[CFA+32] reg22=[CFA+40] reg23=[CFA+48] reg24=[CFA+56] reg30=[CFA+8] reg29=[CFA]
  0x000ca160: CFA=reg31
  0x000ca164: CFA=reg29: reg31=reg29+16 reg30=[CFA+8] reg29=[CFA]
  0x000ca198: CFA=reg29: reg31=reg29+16 reg19=[CFA+16] reg20=[CFA+24] reg21=[CFA+32] reg22=[CFA+40] reg23=[CFA+48] reg24=[CFA+56] reg25=[CFA+64] reg26=[CFA+72] reg27=[CFA+80] reg28=[CFA+88] reg30=[CFA+8] reg29=[CFA]
  0x000ca630: CFA=reg29: reg31=reg29+16 reg30=[CFA+8] reg29=[CFA]
  0x000ca654: CFA=reg29: reg31=reg29+16 reg19=[CFA+16] reg20=[CFA+24] reg30=[CFA+8] reg29=[CFA]
  0x000ca708: CFA=reg29: reg31=reg29+16 reg19=[CFA+16] reg20=[CFA+24] reg21=[CFA+32] reg22=[CFA+40] reg23=[CFA+48] reg24=[CFA+56] reg25=[CFA+64] reg26=[CFA+72] reg30=[CFA+8] reg29=[CFA]
  0x000ca858: CFA=reg29: reg31=reg29+16 reg19=[CFA+16] reg20=[CFA+24] reg30=[CFA+8] reg29=[CFA]
  0x000cb580: CFA=reg31
  0x000cb598: CFA=reg29: reg31=reg29+16 reg19=[CFA+16] reg20=[CFA+24] reg21=[CFA+32] reg22=[CFA+40] reg30=[CFA+8] reg29=[CFA]
  0x000cb698: CFA=reg31
  0x000cb6b0: CFA=reg29: reg31=reg29+16 reg19=[CFA+16] reg20=[CFA+24] reg21=[CFA+32] reg22=[CFA+40] reg30=[CFA+8] reg29=[CFA]
  0x000cb744: CFA=reg29: reg31=reg29+16 reg19=[CFA+16] reg20=[CFA+24] reg21=[CFA+32] reg22=[CFA+40] reg23=[CFA+48] reg24=[CFA+56] reg25=[CFA+64] reg26=[CFA+72] reg27=[CFA+80] reg28=[CFA+88] reg30=[CFA+8] reg29=[CFA]
  0x000cc0d4: CFA=reg29: reg31=reg29+16 reg19=[CFA+16] reg20=[CFA+24] reg21=[CFA+32] reg22=[CFA+40] reg30=[CFA+8] reg29=[CFA]
  0x000cc1c0: CFA=reg29: reg31=reg29+16 reg19=[CFA+16] reg20=[CFA+24] reg30=[CFA+8] reg29=[CFA]
  0x000cc3ac: CFA=reg31
  0x000cc3c0: CFA=reg29: reg31=reg29+16 reg19=[CFA+16] reg20=[CFA+24] reg30=[CFA+8] reg29=[CFA]
  0x000cc404: CFA=reg29: reg31=reg29+16 reg19=[CFA+16] reg20=[CFA+24] reg21=[CFA+32] reg22=[CFA+40] reg23=[CFA+48] reg24=[CFA+56] reg25=[CFA+64] reg26=[CFA+72] reg30=[CFA+8] reg29=[CFA]
  0x000cc80c: CFA=reg29: reg31=reg29+16 reg30=[CFA+8] reg29=[CFA]
  0x000ccbdc: CFA=reg31
  0x000ccbfc: CFA=reg29: reg31=reg29+16 reg19=[CFA+16] reg20=[CFA+24] reg30=[CFA+8] reg29=[CFA]
  0x000ccc70: CFA=reg31
  0x000ccc90: CFA=reg29: reg31=reg29+16 reg30=[CFA+8] reg29=[CFA]
  0x000ccccc: CFA=reg29: reg31=reg29+16 reg19=[CFA+16] reg20=[CFA+24] reg21=[CFA+32] reg22=[CFA+40] reg23=[CFA+48] reg24=[CFA+56] reg25=[CFA+64] reg26=[CFA+72] reg27=[CFA+80] reg28=[CFA+88] reg30=[CFA+8] reg29=[CFA]
  0x000ce6bc: CFA=reg31
  0x000ce6e0: CFA=reg29: reg31=reg29+16 reg19=[CFA+16] reg20=[CFA+24] reg30=[CFA+8] reg29=[CFA]
  0x000ce74c: CFA=reg31
  0x000ce788: CFA=reg29: reg31=reg29+16 reg19=[CFA+16] reg20=[CFA+24] reg21=[CFA+32] reg22=[CFA+40] reg23=[CFA+48] reg24=[CFA+56] reg25=[CFA+64] reg26=[CFA+72] reg27=[CFA+80] reg28=[CFA+88] reg30=[CFA+8] reg29=[CFA]
  0x000ce924: CFA=reg29: reg31=reg29+16 reg19=[CFA+16] reg20=[CFA+24] reg30=[CFA+8] reg29=[CFA]
  0x000ce9a0: CFA=reg31
  0x000ce9a8: CFA=reg29: reg31=reg29+16 reg19=[CFA+16] reg20=[CFA+24] reg30=[CFA+8] reg29=[CFA]
  0x000ceb74: CFA=reg29: reg31=reg29+16 reg19=[CFA+16] reg20=[CFA+24] reg21=[CFA+32] reg22=[CFA+40] reg23=[CFA+48] reg24=[CFA+56] reg25=[CFA+64] reg26=[CFA+72] reg27=[CFA+80] reg28=[CFA+88] reg30=[CFA+8] reg29=[CFA]
  0x000cf0fc: CFA=reg29: reg31=reg29+16 reg19=[CFA+16] reg20=[CFA+24] reg30=[CFA+8] reg29=[CFA]
  0x000cf15c: CFA=reg31
  0x000cf164: CFA=reg29: reg31=reg29+16 reg19=[CFA+16] reg20=[CFA+24] reg30=[CFA+8] reg29=[CFA]
  0x000cf254: CFA=reg29: reg31=reg29+16 reg19=[CFA+16] reg20=[CFA+24] reg30=[CFA+8] reg29=[CFA]
  0x000cf2bc: CFA=reg29: reg31=reg29+16 reg19=[CFA+16] reg20=[CFA+24] reg30=[CFA+8] reg29=[CFA]
  0x000cf31c: CFA=reg29: reg31=reg29+16 reg19=[CFA+16] reg20=[CFA+24] reg30=[CFA+8] reg29=[CFA]
  0x000cf380: CFA=reg29: reg31=reg29+16 reg19=[CFA+16] reg20=[CFA+24] reg21=[CFA+32] reg22=[CFA+40] reg23=[CFA+48] reg24=[CFA+56] reg25=[CFA+64] reg26=[CFA+72] reg27=[CFA+80] reg28=[CFA+88] reg30=[CFA+8] reg29=[CFA]
  0x000d04c4: CFA=reg29: reg31=reg29+16 reg19=[CFA+16] reg20=[CFA+24] reg30=[CFA+8] reg29=[CFA]
  0x000d052c: CFA=reg29: reg31=reg29+16 reg19=[CFA+16] reg20=[CFA+24] reg30=[CFA+8] reg29=[CFA]
  0x000d0594: CFA=reg29: reg31=reg29+16 reg19=[CFA+16] reg20=[CFA+24] reg21=[CFA+32] reg22=[CFA+40] reg23=[CFA+48] reg24=[CFA+56] reg25=[CFA+64] reg26=[CFA+72] reg27=[CFA+80] reg28=[CFA+88] reg30=[CFA+8] reg29=[CFA]
  0x000d1394: CFA=reg29: reg31=reg29+16 reg19=[CFA+16] reg20=[CFA+24] reg21=[CFA+32] reg22=[CFA+40] reg23=[CFA+48] reg24=[CFA+56] reg30=[CFA+8] reg29=[CFA]
  0x000d1868: CFA=reg29: reg31=reg29+16 reg19=[CFA+16] reg20=[CFA+24] reg30=[CFA+8] reg29=[CFA]
  0x000d1920: CFA=reg29: reg31=reg29+16 reg19=[CFA+16] reg20=[CFA+24] reg21=[CFA+32] reg22=[CFA+40] reg23=[CFA+48] reg24=[CFA+56] reg25=[CFA+64] reg26=[CFA+72] reg27=[CFA+80] reg28=[CFA+88] reg30=[CFA+8] reg29=[CFA]
  0x000d1abc: CFA=reg29: reg31=reg29+16 reg19=[CFA+16] reg20=[CFA+24] reg21=[CFA+32] reg22=[CFA+40] reg23=[CFA+48] reg24=[CFA+56] reg30=[CFA+8] reg29=[CFA]
  0x000d1ba4: CFA=reg31
  0x000d1bb8: CFA=reg29: reg31=reg29+16 reg19=[CFA+16] reg20=[CFA+24] reg21=[CFA+32] reg22=[CFA+40] reg30=[CFA+8] reg29=[CFA]
  0x000d1cbc: CFA=reg29: reg31=reg29+16 reg19=[CFA+16] reg20=[CFA+24] reg21=[CFA+32] reg22=[CFA+40] reg23=[CFA+48] reg24=[CFA+56] reg25=[CFA+64] reg26=[CFA+72] reg27=[CFA+80] reg28=[CFA+88] reg30=[CFA+8] reg29=[CFA]
  0x000d2914: CFA=reg29: reg31=reg29+16 reg19=[CFA+16] reg20=[CFA+24] reg30=[CFA+8] reg29=[CFA]
  0x000d29d8: CFA=reg29: reg31=reg29+16 reg19=[CFA+16] reg20=[CFA+24] reg21=[CFA+32] reg22=[CFA+40] reg23=[CFA+48] reg24=[CFA+56] reg30=[CFA+8] reg29=[CFA]
  0x000d2b04: CFA=reg29: reg31=reg29+16 reg19=[CFA+16] reg20=[CFA+24] reg30=[CFA+8] reg29=[CFA]
  0x000d2b58: CFA=reg29: reg31=reg29+16 reg19=[CFA+16] reg20=[CFA+24] reg30=[CFA+8] reg29=[CFA]
  0x000d2c3c: CFA=reg29: reg31=reg29+16 reg19=[CFA+16] reg20=[CFA+24] reg21=[CFA+32] reg22=[CFA+40] reg23=[CFA+48] reg24=[CFA+56] reg25=[CFA+64] reg26=[CFA+72] reg30=[CFA+8] reg29=[CFA]
  0x000d2e40: CFA=reg29: reg31=reg29+16 reg19=[CFA+16] reg20=[CFA+24] reg21=[CFA+32] reg22=[CFA+40] reg30=[CFA+8] reg29=[CFA]
  0x000d2ef0: CFA=reg31
  0x000d2f00: CFA=reg29: reg31=reg29+16 reg19=[CFA+16] reg20=[CFA+24] reg21=[CFA+32] reg22=[CFA+40] reg23=[CFA+48] reg24=[CFA+56] reg25=[CFA+64] reg26=[CFA+72] reg27=[CFA+80] reg28=[CFA+88] reg30=[CFA+8] reg29=[CFA]
  0x000d3b7c: CFA=reg29: reg31=reg29+16 reg19=[CFA+16] reg20=[CFA+24] reg21=[CFA+32] reg22=[CFA+40] reg23=[CFA+48] reg24=[CFA+56] reg30=[CFA+8] reg29=[CFA]
  0x000d3d14: CFA=reg29: reg31=reg29+16 reg19=[CFA+16] reg20=[CFA+24] reg21=[CFA+32] reg22=[CFA+40] reg23=[CFA+48] reg24=[CFA+56] reg25=[CFA+64] reg26=[CFA+72] reg30=[CFA+8] reg29=[CFA]
  0x000d3e50: CFA=reg29: reg31=reg29+16 reg19=[CFA+16] reg20=[CFA+24] reg21=[CFA+32] reg22=[CFA+40] reg23=[CFA+48] reg24=[CFA+56] reg30=[CFA+8] reg29=[CFA]
  0x000d3fe8: CFA=reg29: reg31=reg29+16 reg19=[CFA+16] reg20=[CFA+24] reg21=[CFA+32] reg22=[CFA+40] reg23=[CFA+48] reg24=[CFA+56] reg25=[CFA+64] reg26=[CFA+72] reg27=[CFA+80] reg28=[CFA+88] reg30=[CFA+8] reg29=[CFA]
  0x000d4100: CFA=reg29: reg31=reg29+16 reg19=[CFA+16] reg20=[CFA+24] reg21=[CFA+32] reg22=[CFA+40] reg30=[CFA+8] reg29=[CFA]
  0x000d4278: CFA=reg29: reg31=reg29+16 reg19=[CFA+16] reg20=[CFA+24] reg21=[CFA+32] reg22=[CFA+40] reg30=[CFA+8] reg29=[CFA]
  0x000d4338: CFA=reg29: reg31=reg29+16 reg30=[CFA+8] reg29=[CFA]
  0x000d4410: CFA=reg31
  0x000d4430: CFA=reg29: reg31=reg29+16 reg19=[CFA+16] reg20=[CFA+24] reg21=[CFA+32] reg22=[CFA+40] reg30=[CFA+8] reg29=[CFA]
  0x000d44c4: CFA=reg31
  0x000d44d4: CFA=reg29: reg31=reg29+16 reg19=[CFA+16] reg20=[CFA+24] reg21=[CFA+32] reg22=[CFA+40] reg30=[CFA+8] reg29=[CFA]
  0x000d45bc: CFA=reg31
  0x000d45c8: CFA=reg29: reg31=reg29+16 reg19=[CFA+16] reg20=[CFA+24] reg21=[CFA+32] reg22=[CFA+40] reg30=[CFA+8] reg29=[CFA]
  0x000d46b0: CFA=reg31
  0x000d46b4: CFA=reg29: reg31=reg29+16 reg19=[CFA+16] reg20=[CFA+24] reg30=[CFA+8] reg29=[CFA]
  0x000d46e4: CFA=reg29: reg31=reg29+16 reg30=[CFA+8] reg29=[CFA]
  0x000d4704: CFA=reg31
  0x000d4718: CFA=reg29: reg31=reg29+16 reg30=[CFA+8] reg29=[CFA]
  0x000d476c: CFA=reg31
  0x000d477c: CFA=reg29: reg31=reg29+16 reg30=[CFA+8] reg29=[CFA]
  0x000d479c: CFA=reg31
  0x000d47bc: CFA=reg29: reg31=reg29+16 reg19=[CFA+16] reg20=[CFA+24] reg21=[CFA+32] reg22=[CFA+40] reg30=[CFA+8] reg29=[CFA]
  0x000d4850: CFA=reg29: reg31=reg29+16 reg19=[CFA+16] reg20=[CFA+24] reg21=[CFA+32] reg22=[CFA+40] reg30=[CFA+8] reg29=[CFA]
  0x000d4994: CFA=reg29: reg31=reg29+16 reg19=[CFA+16] reg20=[CFA+24] reg21=[CFA+32] reg22=[CFA+40] reg23=[CFA+48] reg24=[CFA+56] reg30=[CFA+8] reg29=[CFA]
  0x000d4a48: CFA=reg29: reg31=reg29+16 reg19=[CFA+16] reg20=[CFA+24] reg21=[CFA+32] reg22=[CFA+40] reg23=[CFA+48] reg24=[CFA+56] reg25=[CFA+64] reg26=[CFA+72] reg27=[CFA+80] reg28=[CFA+88] reg30=[CFA+8] reg29=[CFA]
  0x000d4bf8: CFA=reg31
  0x000d4c44: CFA=reg29: reg31=reg29+16 reg19=[CFA+16] reg20=[CFA+24] reg30=[CFA+8] reg29=[CFA]
  0x000d4cb4: CFA=reg29: reg31=reg29+16 reg19=[CFA+16] reg20=[CFA+24] reg21=[CFA+32] reg22=[CFA+40] reg23=[CFA+48] reg24=[CFA+56] reg25=[CFA+64] reg26=[CFA+72] reg30=[CFA+8] reg29=[CFA]
  0x000d4da0: CFA=reg29: reg31=reg29+16 reg19=[CFA+16] reg20=[CFA+24] reg21=[CFA+32] reg22=[CFA+40] reg23=[CFA+48] reg24=[CFA+56] reg25=[CFA+64] reg26=[CFA+72] reg27=[CFA+80] reg28=[CFA+88] reg30=[CFA+8] reg29=[CFA]
  0x000d5a90: CFA=reg29: reg31=reg29+16 reg19=[CFA+16] reg20=[CFA+24] reg21=[CFA+32] reg22=[CFA+40] reg23=[CFA+48] reg24=[CFA+56] reg25=[CFA+64] reg26=[CFA+72] reg30=[CFA+8] reg29=[CFA]
  0x000d5c58: CFA=reg29: reg31=reg29+16 reg19=[CFA+16] reg20=[CFA+24] reg21=[CFA+32] reg22=[CFA+40] reg23=[CFA+48] reg24=[CFA+56] reg25=[CFA+64] reg26=[CFA+72] reg30=[CFA+8] reg29=[CFA]
  0x000d5d48: CFA=reg29: reg31=reg29+16 reg19=[CFA+16] reg20=[CFA+24] reg30=[CFA+8] reg29=[CFA]
  0x000d5d80: CFA=reg31
  0x000d5d90: CFA=reg29: reg31=reg29+16 reg19=[CFA+16] reg20=[CFA+24] reg21=[CFA+32] reg22=[CFA+40] reg30=[CFA+8] reg29=[CFA]
  0x000d5e2c: CFA=reg29: reg31=reg29+16 reg30=[CFA+8] reg29=[CFA]
  0x000d5e50: CFA=reg29: reg31=reg29+16 reg19=[CFA+16] reg20=[CFA+24] reg30=[CFA+8] reg29=[CFA]
  0x000d5e9c: CFA=reg29: reg31=reg29+16 reg19=[CFA+16] reg20=[CFA+24] reg21=[CFA+32] reg22=[CFA+40] reg23=[CFA+48] reg24=[CFA+56] reg25=[CFA+64] reg26=[CFA+72] reg27=[CFA+80] reg28=[CFA+88] reg30=[CFA+8] reg29=[CFA]
  0x000d6988: CFA=reg29: reg31=reg29+16 reg19=[CFA+16] reg20=[CFA+24] reg21=[CFA+32] reg22=[CFA+40] reg23=[CFA+48] reg24=[CFA+56] reg25=[CFA+64] reg26=[CFA+72] reg27=[CFA+80] reg28=[CFA+88] reg30=[CFA+8] reg29=[CFA]
  0x000d8264: CFA=reg29: reg31=reg29+16 reg19=[CFA+16] reg20=[CFA+24] reg21=[CFA+32] reg22=[CFA+40] reg23=[CFA+48] reg24=[CFA+56] reg30=[CFA+8] reg29=[CFA]
  0x000d8658: CFA=reg31
  0x000d866c: CFA=reg29: reg31=reg29+16 reg19=[CFA+16] reg20=[CFA+24] reg21=[CFA+32] reg22=[CFA+40] reg23=[CFA+48] reg24=[CFA+56] reg25=[CFA+64] reg26=[CFA+72] reg27=[CFA+80] reg28=[CFA+88] reg30=[CFA+8] reg29=[CFA]
  0x000d8848: CFA=reg31
  0x000d8864: CFA=reg29: reg31=reg29+16 reg19=[CFA+16] reg20=[CFA+24] reg21=[CFA+32] reg22=[CFA+40] reg23=[CFA+48] reg24=[CFA+56] reg30=[CFA+8] reg29=[CFA]
  0x000d895c: CFA=reg29: reg31=reg29+16 reg19=[CFA+16] reg20=[CFA+24] reg21=[CFA+32] reg22=[CFA+40] reg30=[CFA+8] reg29=[CFA]
  0x000d8a08: CFA=reg29: reg31=reg29+16 reg19=[CFA+16] reg20=[CFA+24] reg21=[CFA+32] reg22=[CFA+40] reg30=[CFA+8] reg29=[CFA]
  0x000d8ab4: CFA=reg29: reg31=reg29+16 reg19=[CFA+16] reg20=[CFA+24] reg30=[CFA+8] reg29=[CFA]
  0x000d8d4c: CFA=reg29: reg31=reg29+16 reg30=[CFA+8] reg29=[CFA]
  0x000d9270: CFA=reg31
  0x000d9284: CFA=reg29: reg31=reg29+16 reg19=[CFA+16] reg20=[CFA+24] reg21=[CFA+32] reg22=[CFA+40] reg30=[CFA+8] reg29=[CFA]
  0x000d93c0: CFA=reg29: reg31=reg29+16 reg19=[CFA+16] reg20=[CFA+24] reg21=[CFA+32] reg22=[CFA+40] reg23=[CFA+48] reg24=[CFA+56] reg30=[CFA+8] reg29=[CFA]
  0x000d97b4: CFA=reg29: reg31=reg29+16 reg19=[CFA+16] reg20=[CFA+24] reg21=[CFA+32] reg22=[CFA+40] reg23=[CFA+48] reg24=[CFA+56] reg27=[CFA+64] reg28=[CFA+72] reg30=[CFA+8] reg29=[CFA]
  0x000d98ec: CFA=reg31
  0x000d98f0: CFA=reg29: reg31=reg29+16 reg19=[CFA+16] reg20=[CFA+24] reg21=[CFA+32] reg22=[CFA+40] reg23=[CFA+48] reg24=[CFA+56] reg30=[CFA+8] reg29=[CFA]
  0x000d9a38: CFA=reg29: reg31=reg29+16 reg19=[CFA+16] reg20=[CFA+24] reg21=[CFA+32] reg22=[CFA+40] reg23=[CFA+48] reg24=[CFA+56] reg25=[CFA+64] reg26=[CFA+72] reg27=[CFA+80] reg28=[CFA+88] reg30=[CFA+8] reg29=[CFA]
  0x000da59c: CFA=reg29: reg31=reg29+16 reg19=[CFA+16] reg20=[CFA+24] reg30=[CFA+8] reg29=[CFA]
  0x000da60c: CFA=reg31
  0x000da690: CFA=reg29: reg31=reg29+16 reg19=[CFA+16] reg20=[CFA+24] reg30=[CFA+8] reg29=[CFA]
  0x000da6dc: CFA=reg31
  0x000da700: CFA=reg29: reg31=reg29+16 reg19=[CFA+16] reg20=[CFA+24] reg21=[CFA+32] reg22=[CFA+40] reg30=[CFA+8] reg29=[CFA]
  0x000da874: CFA=reg31
  0x000da888: CFA=reg29: reg31=reg29+16 reg19=[CFA+16] reg20=[CFA+24] reg21=[CFA+32] reg22=[CFA+40] reg23=[CFA+48] reg24=[CFA+56] reg25=[CFA+64] reg26=[CFA+72] reg27=[CFA+80] reg28=[CFA+88] reg30=[CFA+8] reg29=[CFA]
  0x000dbbbc: CFA=reg29: reg31=reg29+16 reg19=[CFA+16] reg20=[CFA+24] reg21=[CFA+32] reg22=[CFA+40] reg23=[CFA+48] reg24=[CFA+56] reg30=[CFA+8] reg29=[CFA]
  0x000dbfb0: CFA=reg29: reg31=reg29+16 reg19=[CFA+16] reg20=[CFA+24] reg21=[CFA+32] reg22=[CFA+40] reg23=[CFA+48] reg24=[CFA+56] reg27=[CFA+64] reg28=[CFA+72] reg30=[CFA+8] reg29=[CFA]
  0x000dc0e8: CFA=reg29: reg31=reg29+16 reg19=[CFA+16] reg20=[CFA+24] reg30=[CFA+8] reg29=[CFA]
  0x000dc26c: CFA=reg29: reg31=reg29+16 reg19=[CFA+16] reg20=[CFA+24] reg21=[CFA+32] reg22=[CFA+40] reg30=[CFA+8] reg29=[CFA]
  0x000dc3e4: CFA=reg29: reg31=reg29+16 reg19=[CFA+16] reg20=[CFA+24] reg21=[CFA+32] reg22=[CFA+40] reg23=[CFA+48] reg24=[CFA+56] reg25=[CFA+64] reg26=[CFA+72] reg30=[CFA+8] reg29=[CFA]
  0x000dc788: CFA=reg29: reg31=reg29+16 reg19=[CFA+16] reg20=[CFA+24] reg21=[CFA+32] reg22=[CFA+40] reg23=[CFA+48] reg24=[CFA+56] reg30=[CFA+8] reg29=[CFA]
  0x000dcb7c: CFA=reg29: reg31=reg29+16 reg19=[CFA+16] reg20=[CFA+24] reg21=[CFA+32] reg22=[CFA+40] reg23=[CFA+48] reg24=[CFA+56] reg25=[CFA+64] reg26=[CFA+72] reg27=[CFA+80] reg28=[CFA+88] reg30=[CFA+8] reg29=[CFA]
  0x000dde0c: CFA=reg29: reg31=reg29+16 reg19=[CFA+16] reg20=[CFA+24] reg21=[CFA+32] reg22=[CFA+40] reg23=[CFA+48] reg24=[CFA+56] reg25=[CFA+64] reg26=[CFA+72] reg27=[CFA+80] reg28=[CFA+88] reg30=[CFA+8] reg29=[CFA]
  0x000de144: CFA=reg29: reg31=reg29+16 reg19=[CFA+16] reg20=[CFA+24] reg21=[CFA+32] reg22=[CFA+40] reg23=[CFA+48] reg24=[CFA+56] reg25=[CFA+64] reg26=[CFA+72] reg27=[CFA+80] reg28=[CFA+88] reg30=[CFA+8] reg29=[CFA]
  0x000de47c: CFA=reg29: reg31=reg29+16 reg19=[CFA+16] reg20=[CFA+24] reg21=[CFA+32] reg22=[CFA+40] reg23=[CFA+48] reg24=[CFA+56] reg25=[CFA+64] reg26=[CFA+72] reg27=[CFA+80] reg28=[CFA+88] reg30=[CFA+8] reg29=[CFA]
  0x000de7b4: CFA=reg31
  0x000dec90: CFA=reg29: reg31=reg29+16 reg19=[CFA+16] reg20=[CFA+24] reg30=[CFA+8] reg29=[CFA]
  0x000df040: CFA=reg31
  0x000df0f4: CFA=reg29: reg31=reg29+16 reg19=[CFA+16] reg20=[CFA+24] reg21=[CFA+32] reg22=[CFA+40] reg30=[CFA+8] reg29=[CFA]
  0x000df218: CFA=reg29: reg31=reg29+16 reg19=[CFA+16] reg20=[CFA+24] reg21=[CFA+32] reg22=[CFA+40] reg23=[CFA+48] reg24=[CFA+56] reg25=[CFA+64] reg26=[CFA+72] reg27=[CFA+80] reg28=[CFA+88] reg30=[CFA+8] reg29=[CFA]
  0x000df93c: CFA=reg29: reg31=reg29+16 reg19=[CFA+16] reg20=[CFA+24] reg30=[CFA+8] reg29=[CFA]
  0x000df9dc: CFA=reg29: reg31=reg29+16 reg19=[CFA+16] reg20=[CFA+24] reg30=[CFA+8] reg29=[CFA]
  0x000dfa2c: CFA=reg29: reg31=reg29+16 reg30=[CFA+8] reg29=[CFA]
  0x000dfc7c: CFA=reg29: reg31=reg29+16 reg19=[CFA+16] reg20=[CFA+24] reg30=[CFA+8] reg29=[CFA]
  0x000dfd0c: CFA=reg29: reg31=reg29+16 reg19=[CFA+16] reg20=[CFA+24] reg30=[CFA+8] reg29=[CFA]
  0x000dfeb8: CFA=reg29: reg31=reg29+16 reg19=[CFA+16] reg20=[CFA+24] reg21=[CFA+32] reg22=[CFA+40] reg30=[CFA+8] reg29=[CFA]
  0x000e0d2c: CFA=reg31
  0x000e0db4: CFA=reg31+16
  0x000e1180: CFA=reg29: reg31=reg29+16 reg19=[CFA+16] reg20=[CFA+24] reg30=[CFA+8] reg29=[CFA]
  0x000e1a14: CFA=reg31
  0x000e1b74: CFA=reg29: reg31=reg29+16 reg19=[CFA+16] reg20=[CFA+24] reg21=[CFA+32] reg22=[CFA+40] reg23=[CFA+48] reg24=[CFA+56] reg25=[CFA+64] reg26=[CFA+72] reg27=[CFA+80] reg28=[CFA+88] reg30=[CFA+8] reg29=[CFA]
  0x000e1dd8: CFA=reg31+16
  0x000e2080: CFA=reg29: reg31=reg29+16 reg19=[CFA+16] reg20=[CFA+24] reg21=[CFA+32] reg22=[CFA+40] reg23=[CFA+48] reg24=[CFA+56] reg25=[CFA+64] reg26=[CFA+72] reg27=[CFA+80] reg28=[CFA+88] reg30=[CFA+8] reg29=[CFA]
  0x000e2324: CFA=reg29: reg31=reg29+16 reg19=[CFA+16] reg20=[CFA+24] reg21=[CFA+32] reg22=[CFA+40] reg30=[CFA+8] reg29=[CFA]
  0x000e2720: CFA=reg31+16
  0x000e2988: CFA=reg29: reg31=reg29+16 reg19=[CFA+16] reg20=[CFA+24] reg21=[CFA+32] reg22=[CFA+40] reg30=[CFA+8] reg29=[CFA]
  0x000e2ddc: CFA=reg31
  0x000e2de8: CFA=reg29: reg31=reg29+16 reg19=[CFA+16] reg20=[CFA+24] reg21=[CFA+32] reg22=[CFA+40] reg23=[CFA+48] reg24=[CFA+56] reg25=[CFA+64] reg26=[CFA+72] reg27=[CFA+80] reg28=[CFA+88] reg30=[CFA+8] reg29=[CFA]
  0x000e31b4: CFA=reg29: reg31=reg29+16 reg19=[CFA+16] reg20=[CFA+24] reg21=[CFA+32] reg22=[CFA+40] reg23=[CFA+48] reg24=[CFA+56] reg25=[CFA+64] reg26=[CFA+72] reg27=[CFA+80] reg28=[CFA+88] reg30=[CFA+8] reg29=[CFA]
  0x000e35fc: CFA=reg29: reg31=reg29+16 reg19=[CFA+16] reg20=[CFA+24] reg21=[CFA+32] reg22=[CFA+40] reg23=[CFA+48] reg24=[CFA+56] reg25=[CFA+64] reg26=[CFA+72] reg27=[CFA+80] reg28=[CFA+88] reg30=[CFA+8] reg29=[CFA]
  0x000e3a6c: CFA=reg29: reg31=reg29+16 reg30=[CFA+8] reg29=[CFA]
  0x000e3ba8: CFA=reg29: reg31=reg29+16 reg19=[CFA+16] reg20=[CFA+24] reg30=[CFA+8] reg29=[CFA]
  0x000e3d30: CFA=reg29: reg31=reg29+16 reg30=[CFA+8] reg29=[CFA]
  0x000e3e88: CFA=reg31
  0x000e45c8: CFA=reg29: reg31=reg29+16 reg19=[CFA+16] reg20=[CFA+24] reg21=[CFA+32] reg22=[CFA+40] reg23=[CFA+48] reg24=[CFA+56] reg25=[CFA+64] reg26=[CFA+72] reg27=[CFA+80] reg28=[CFA+88] reg30=[CFA+8] reg29=[CFA]
  0x000e4cf0: CFA=reg29: reg31=reg29+16 reg19=[CFA+16] reg20=[CFA+24] reg21=[CFA+32] reg22=[CFA+40] reg30=[CFA+8] reg29=[CFA]
  0x000e500c: CFA=reg29: reg31=reg29+16 reg19=[CFA+16] reg20=[CFA+24] reg21=[CFA+32] reg22=[CFA+40] reg23=[CFA+48] reg24=[CFA+56] reg25=[CFA+64] reg26=[CFA+72] reg27=[CFA+80] reg28=[CFA+88] reg30=[CFA+8] reg29=[CFA]
  0x000e5c54: CFA=reg29: reg31=reg29+16 reg19=[CFA+16] reg20=[CFA+24] reg21=[CFA+32] reg22=[CFA+40] reg23=[CFA+48] reg24=[CFA+56] reg25=[CFA+64] reg26=[CFA+72] reg27=[CFA+80] reg28=[CFA+88] reg30=[CFA+8] reg29=[CFA]
  0x000e7a14: CFA=reg29: reg31=reg29+16 reg19=[CFA+16] reg20=[CFA+24] reg21=[CFA+32] reg22=[CFA+40] reg23=[CFA+48] reg24=[CFA+56] reg25=[CFA+64] reg26=[CFA+72] reg27=[CFA+80] reg28=[CFA+88] reg30=[CFA+8] reg29=[CFA]
  0x000e9c50: CFA=reg29: reg31=reg29+16 reg19=[CFA+16] reg20=[CFA+24] reg21=[CFA+32] reg22=[CFA+40] reg23=[CFA+48] reg24=[CFA+56] reg25=[CFA+64] reg26=[CFA+72] reg27=[CFA+80] reg28=[CFA+88] reg30=[CFA+8] reg29=[CFA]
  0x000ebab8: CFA=reg29: reg31=reg29+16 reg19=[CFA+16] reg20=[CFA+24] reg21=[CFA+32] reg22=[CFA+40] reg23=[CFA+48] reg24=[CFA+56] reg25=[CFA+64] reg26=[CFA+72] reg27=[CFA+80] reg28=[CFA+88] reg30=[CFA+8] reg29=[CFA]
  0x000ec7fc: CFA=reg29: reg31=reg29+16 reg19=[CFA+16] reg20=[CFA+24] reg21=[CFA+32] reg22=[CFA+40] reg23=[CFA+48] reg24=[CFA+56] reg25=[CFA+64] reg26=[CFA+72] reg27=[CFA+80] reg28=[CFA+88] reg30=[CFA+8] reg29=[CFA]
  0x000ecf08: CFA=reg31
  0x000ecf80: CFA=reg29: reg31=reg29+16 reg19=[CFA+16] reg20=[CFA+24] reg21=[CFA+32] reg22=[CFA+40] reg23=[CFA+48] reg24=[CFA+56] reg25=[CFA+64] reg26=[CFA+72] reg27=[CFA+80] reg28=[CFA+88] reg30=[CFA+8] reg29=[CFA]
  0x000ed710: CFA=reg29: reg31=reg29+16 reg19=[CFA+16] reg20=[CFA+24] reg21=[CFA+32] reg22=[CFA+40] reg23=[CFA+48] reg24=[CFA+56] reg25=[CFA+64] reg26=[CFA+72] reg27=[CFA+80] reg28=[CFA+88] reg30=[CFA+8] reg29=[CFA]
  0x000edf60: CFA=reg29: reg31=reg29+16 reg19=[CFA+16] reg20=[CFA+24] reg21=[CFA+32] reg22=[CFA+40] reg23=[CFA+48] reg24=[CFA+56] reg25=[CFA+64] reg26=[CFA+72] reg27=[CFA+80] reg28=[CFA+88] reg30=[CFA+8] reg29=[CFA]
  0x000eeaa0: CFA=reg31
  0x000ef384: CFA=reg29: reg31=reg29+16 reg19=[CFA+16] reg20=[CFA+24] reg21=[CFA+32] reg22=[CFA+40] reg30=[CFA+8] reg29=[CFA]
  0x000ef6d4: CFA=reg29: reg31=reg29+16 reg19=[CFA+16] reg20=[CFA+24] reg30=[CFA+8] reg29=[CFA]
  0x000efdc0: CFA=reg29: reg31=reg29+16 reg19=[CFA+16] reg20=[CFA+24] reg21=[CFA+32] reg22=[CFA+40] reg30=[CFA+8] reg29=[CFA]
  0x000f00a0: CFA=reg31
  0x000f03f4: CFA=reg29: reg31=reg29+16 reg19=[CFA+16] reg20=[CFA+24] reg30=[CFA+8] reg29=[CFA]
  0x000f053c: CFA=reg29: reg31=reg29+16 reg19=[CFA+16] reg20=[CFA+24] reg21=[CFA+32] reg22=[CFA+40] reg23=[CFA+48] reg24=[CFA+56] reg30=[CFA+8] reg29=[CFA]
  0x000f0cc4: CFA=reg29: reg31=reg29+16 reg19=[CFA+16] reg20=[CFA+24] reg30=[CFA+8] reg29=[CFA]
  0x000f10c8: CFA=reg29: reg31=reg29+16 reg19=[CFA+16] reg20=[CFA+24] reg21=[CFA+32] reg22=[CFA+40] reg23=[CFA+48] reg24=[CFA+56] reg30=[CFA+8] reg29=[CFA]
  0x000f1808: CFA=reg29: reg31=reg29+16 reg19=[CFA+16] reg20=[CFA+24] reg21=[CFA+32] reg22=[CFA+40] reg23=[CFA+48] reg24=[CFA+56] reg25=[CFA+64] reg26=[CFA+72] reg27=[CFA+80] reg28=[CFA+88] reg30=[CFA+8] reg29=[CFA]
  0x000f3a48: CFA=reg29: reg31=reg29+16 reg19=[CFA+16] reg20=[CFA+24] reg30=[CFA+8] reg29=[CFA]
  0x000f3ac4: CFA=reg31
  0x000f3ae0: CFA=reg29: reg31=reg29+16 reg19=[CFA+16] reg20=[CFA+24] reg21=[CFA+32] reg22=[CFA+40] reg30=[CFA+8] reg29=[CFA]
  0x000f3b64: CFA=reg29: reg31=reg29+16 reg19=[CFA+16] reg20=[CFA+24] reg21=[CFA+32] reg22=[CFA+40] reg23=[CFA+48] reg24=[CFA+56] reg25=[CFA+64] reg26=[CFA+72] reg27=[CFA+80] reg28=[CFA+88] reg30=[CFA+8] reg29=[CFA]
  0x000f4010: CFA=reg29: reg31=reg29+16 reg19=[CFA+16] reg20=[CFA+24] reg21=[CFA+32] reg22=[CFA+40] reg30=[CFA+8] reg29=[CFA]
  0x000f408c: CFA=reg31
  0x000f40c4: CFA=reg29: reg31=reg29+16 reg19=[CFA+16] reg20=[CFA+24] reg21=[CFA+32] reg22=[CFA+40] reg23=[CFA+48] reg24=[CFA+56] reg25=[CFA+64] reg26=[CFA+72] reg27=[CFA+80] reg28=[CFA+88] reg30=[CFA+8] reg29=[CFA]
  0x000f4570: CFA=reg29: reg31=reg29+16 reg19=[CFA+16] reg20=[CFA+24] reg21=[CFA+32] reg22=[CFA+40] reg23=[CFA+48] reg24=[CFA+56] reg25=[CFA+64] reg26=[CFA+72] reg27=[CFA+80] reg28=[CFA+88] reg30=[CFA+8] reg29=[CFA]
  0x000f4a1c: CFA=reg29: reg31=reg29+16 reg19=[CFA+16] reg20=[CFA+24] reg21=[CFA+32] reg22=[CFA+40] reg30=[CFA+8] reg29=[CFA]
  0x000f4b30: CFA=reg29: reg31=reg29+16 reg19=[CFA+16] reg20=[CFA+24] reg21=[CFA+32] reg22=[CFA+40] reg23=[CFA+48] reg24=[CFA+56] reg25=[CFA+64] reg26=[CFA+72] reg27=[CFA+80] reg28=[CFA+88] reg30=[CFA+8] reg29=[CFA]
  0x000f5290: CFA=reg29: reg31=reg29+16 reg19=[CFA+16] reg20=[CFA+24] reg21=[CFA+32] reg22=[CFA+40] reg23=[CFA+48] reg24=[CFA+56] reg25=[CFA+64] reg26=[CFA+72] reg27=[CFA+80] reg28=[CFA+88] reg30=[CFA+8] reg29=[CFA]
  0x000f5a18: CFA=reg31
  0x000f5a3c: CFA=reg29: reg31=reg29+16 reg19=[CFA+16] reg20=[CFA+24] reg21=[CFA+32] reg22=[CFA+40] reg23=[CFA+48] reg24=[CFA+56] reg25=[CFA+64] reg26=[CFA+72] reg27=[CFA+80] reg28=[CFA+88] reg30=[CFA+8] reg29=[CFA]
  0x000f61c4: CFA=reg29: reg31=reg29+16 reg19=[CFA+16] reg20=[CFA+24] reg21=[CFA+32] reg22=[CFA+40] reg23=[CFA+48] reg24=[CFA+56] reg25=[CFA+64] reg26=[CFA+72] reg27=[CFA+80] reg28=[CFA+88] reg30=[CFA+8] reg29=[CFA]
  0x000f6924: CFA=reg29: reg31=reg29+16 reg19=[CFA+16] reg20=[CFA+24] reg21=[CFA+32] reg22=[CFA+40] reg23=[CFA+48] reg24=[CFA+56] reg25=[CFA+64] reg26=[CFA+72] reg30=[CFA+8] reg29=[CFA]
  0x000f6bec: CFA=reg29: reg31=reg29+16 reg30=[CFA+8] reg29=[CFA]
  0x000f6cb0: CFA=reg29: reg31=reg29+16 reg19=[CFA+16] reg20=[CFA+24] reg21=[CFA+32] reg22=[CFA+40] reg30=[CFA+8] reg29=[CFA]
  0x000f6df0: CFA=reg29: reg31=reg29+16 reg19=[CFA+16] reg20=[CFA+24] reg21=[CFA+32] reg22=[CFA+40] reg30=[CFA+8] reg29=[CFA]
  0x000f6f40: CFA=reg29: reg31=reg29+16 reg19=[CFA+16] reg20=[CFA+24] reg30=[CFA+8] reg29=[CFA]
  0x000f702c: CFA=reg31
  0x000f7034: CFA=reg29: reg31=reg29+16 reg19=[CFA+16] reg20=[CFA+24] reg21=[CFA+32] reg22=[CFA+40] reg23=[CFA+48] reg24=[CFA+56] reg30=[CFA+8] reg29=[CFA]
  0x000f70e0: CFA=reg29: reg31=reg29+16 reg19=[CFA+16] reg20=[CFA+24] reg21=[CFA+32] reg22=[CFA+40] reg23=[CFA+48] reg24=[CFA+56] reg30=[CFA+8] reg29=[CFA]
  0x000f747c: CFA=reg29: reg31=reg29+16 reg19=[CFA+16] reg20=[CFA+24] reg21=[CFA+32] reg22=[CFA+40] reg30=[CFA+8] reg29=[CFA]
  0x000f7c9c: CFA=reg29: reg31=reg29+16 reg19=[CFA+16] reg20=[CFA+24] reg21=[CFA+32] reg22=[CFA+40] reg23=[CFA+48] reg24=[CFA+56] reg30=[CFA+8] reg29=[CFA]
  0x000f8038: CFA=reg29: reg31=reg29+16 reg19=[CFA+16] reg20=[CFA+24] reg21=[CFA+32] reg22=[CFA+40] reg23=[CFA+48] reg24=[CFA+56] reg30=[CFA+8] reg29=[CFA]
  0x000f837c: CFA=reg29: reg31=reg29+16 reg19=[CFA+16] reg20=[CFA+24] reg21=[CFA+32] reg22=[CFA+40] reg23=[CFA+48] reg24=[CFA+56] reg30=[CFA+8] reg29=[CFA]
  0x000f86c0: CFA=reg29: reg31=reg29+16 reg19=[CFA+16] reg20=[CFA+24] reg21=[CFA+32] reg22=[CFA+40] reg23=[CFA+48] reg24=[CFA+56] reg25=[CFA+64] reg26=[CFA+72] reg27=[CFA+80] reg28=[CFA+88] reg30=[CFA+8] reg29=[CFA]
  0x000f89c4: CFA=reg29: reg31=reg29+16 reg19=[CFA+16] reg20=[CFA+24] reg21=[CFA+32] reg22=[CFA+40] reg30=[CFA+8] reg29=[CFA]
  0x000f8a70: CFA=reg29: reg31=reg29+16 reg19=[CFA+16] reg20=[CFA+24] reg30=[CFA+8] reg29=[CFA]
  0x000f8d30: CFA=reg29: reg31=reg29+16 reg19=[CFA+16] reg20=[CFA+24] reg21=[CFA+32] reg22=[CFA+40] reg23=[CFA+48] reg24=[CFA+56] reg30=[CFA+8] reg29=[CFA]
  0x000f9180: CFA=reg29: reg31=reg29+16 reg19=[CFA+16] reg20=[CFA+24] reg21=[CFA+32] reg22=[CFA+40] reg30=[CFA+8] reg29=[CFA]
  0x000f9284: CFA=reg31
  0x000f9290: CFA=reg29: reg31=reg29+16 reg19=[CFA+16] reg20=[CFA+24] reg21=[CFA+32] reg22=[CFA+40] reg23=[CFA+48] reg24=[CFA+56] reg25=[CFA+64] reg26=[CFA+72] reg27=[CFA+80] reg28=[CFA+88] reg30=[CFA+8] reg29=[CFA]
  0x000f9590: CFA=reg29: reg31=reg29+16 reg19=[CFA+16] reg20=[CFA+24] reg21=[CFA+32] reg22=[CFA+40] reg23=[CFA+48] reg24=[CFA+56] reg25=[CFA+64] reg26=[CFA+72] reg27=[CFA+80] reg28=[CFA+88] reg30=[CFA+8] reg29=[CFA]
  0x000fa178: CFA=reg29: reg31=reg29+16 reg19=[CFA+16] reg20=[CFA+24] reg21=[CFA+32] reg22=[CFA+40] reg23=[CFA+48] reg24=[CFA+56] reg25=[CFA+64] reg26=[CFA+72] reg27=[CFA+80] reg28=[CFA+88] reg30=[CFA+8] reg29=[CFA]
  0x000fa27c: CFA=reg31
  0x000fa2a0: CFA=reg29: reg31=reg29+16 reg19=[CFA+16] reg20=[CFA+24] reg21=[CFA+32] reg22=[CFA+40] reg23=[CFA+48] reg24=[CFA+56] reg25=[CFA+64] reg26=[CFA+72] reg27=[CFA+80] reg28=[CFA+88] reg30=[CFA+8] reg29=[CFA]
  0x000fab8c: CFA=reg31
  0x000faba4: CFA=reg29: reg31=reg29+16 reg19=[CFA+16] reg20=[CFA+24] reg21=[CFA+32] reg22=[CFA+40] reg23=[CFA+48] reg24=[CFA+56] reg25=[CFA+64] reg26=[CFA+72] reg27=[CFA+80] reg28=[CFA+88] reg30=[CFA+8] reg29=[CFA]
  0x000fba00: CFA=reg29: reg31=reg29+16 reg19=[CFA+16] reg20=[CFA+24] reg30=[CFA+8] reg29=[CFA]
  0x000fba58: CFA=reg29: reg31=reg29+16 reg19=[CFA+16] reg20=[CFA+24] reg21=[CFA+32] reg22=[CFA+40] reg23=[CFA+48] reg24=[CFA+56] reg30=[CFA+8] reg29=[CFA]
  0x000fbb48: CFA=reg29: reg31=reg29+16 reg19=[CFA+16] reg20=[CFA+24] reg21=[CFA+32] reg22=[CFA+40] reg30=[CFA+8] reg29=[CFA]
  0x000fbc50: CFA=reg29: reg31=reg29+16 reg19=[CFA+16] reg20=[CFA+24] reg30=[CFA+8] reg29=[CFA]
  0x000fbdf8: CFA=reg31
  0x000fbdfc: CFA=reg29: reg31=reg29+16 reg19=[CFA+16] reg20=[CFA+24] reg21=[CFA+32] reg22=[CFA+40] reg23=[CFA+48] reg24=[CFA+56] reg25=[CFA+64] reg26=[CFA+72] reg27=[CFA+80] reg28=[CFA+88] reg30=[CFA+8] reg29=[CFA]
  0x000fc008: CFA=reg31
  0x000fc01c: CFA=reg29: reg31=reg29+16 reg19=[CFA+16] reg20=[CFA+24] reg21=[CFA+32] reg22=[CFA+40] reg23=[CFA+48] reg24=[CFA+56] reg25=[CFA+64] reg26=[CFA+72] reg27=[CFA+80] reg28=[CFA+88] reg30=[CFA+8] reg29=[CFA]
  0x000fce78: CFA=reg31
  0x000fce8c: CFA=reg29: reg31=reg29+16 reg19=[CFA+16] reg20=[CFA+24] reg21=[CFA+32] reg22=[CFA+40] reg23=[CFA+48] reg24=[CFA+56] reg30=[CFA+8] reg29=[CFA]
  0x000fd074: CFA=reg29: reg31=reg29+16 reg30=[CFA+8] reg29=[CFA]
  0x000fd0c0: CFA=reg29: reg31=reg29+16 reg19=[CFA+16] reg20=[CFA+24] reg30=[CFA+8] reg29=[CFA]
  0x000fd1b8: CFA=reg29: reg31=reg29+16 reg19=[CFA+16] reg20=[CFA+24] reg21=[CFA+32] reg22=[CFA+40] reg23=[CFA+48] reg24=[CFA+56] reg25=[CFA+64] reg26=[CFA+72] reg27=[CFA+80] reg28=[CFA+88] reg30=[CFA+8] reg29=[CFA]
  0x000fd330: CFA=reg29: reg31=reg29+16 reg19=[CFA+16] reg20=[CFA+24] reg30=[CFA+8] reg29=[CFA]
  0x000fd420: CFA=reg29: reg31=reg29+16 reg19=[CFA+16] reg20=[CFA+24] reg21=[CFA+32] reg22=[CFA+40] reg23=[CFA+48] reg24=[CFA+56] reg30=[CFA+8] reg29=[CFA]
  0x000fd57c: CFA=reg29: reg31=reg29+16 reg19=[CFA+16] reg20=[CFA+24] reg21=[CFA+32] reg22=[CFA+40] reg30=[CFA+8] reg29=[CFA]
  0x000fd724: CFA=reg31
  0x000fd794: CFA=reg29: reg31=reg29+16 reg19=[CFA+16] reg20=[CFA+24] reg21=[CFA+32] reg22=[CFA+40] reg23=[CFA+48] reg24=[CFA+56] reg30=[CFA+8] reg29=[CFA]
  0x000fd8f0: CFA=reg29: reg31=reg29+16 reg30=[CFA+8] reg29=[CFA]
  0x000fd930: CFA=reg29: reg31=reg29+16 reg19=[CFA+16] reg20=[CFA+24] reg21=[CFA+32] reg22=[CFA+40] reg30=[CFA+8] reg29=[CFA]
  0x000fdae4: CFA=reg29: reg31=reg29+16 reg30=[CFA+8] reg29=[CFA]
  0x000fdb28: CFA=reg29: reg31=reg29+16 reg19=[CFA+16] reg20=[CFA+24] reg21=[CFA+32] reg22=[CFA+40] reg23=[CFA+48] reg24=[CFA+56] reg25=[CFA+64] reg26=[CFA+72] reg27=[CFA+80] reg28=[CFA+88] reg30=[CFA+8] reg29=[CFA]
  0x000fde58: CFA=reg29: reg31=reg29+16 reg19=[CFA+16] reg20=[CFA+24] reg21=[CFA+32] reg22=[CFA+40] reg30=[CFA+8] reg29=[CFA]
  0x000fdf48: CFA=reg29: reg31=reg29+16 reg19=[CFA+16] reg20=[CFA+24] reg21=[CFA+32] reg22=[CFA+40] reg23=[CFA+48] reg24=[CFA+56] reg25=[CFA+64] reg26=[CFA+72] reg27=[CFA+80] reg28=[CFA+88] reg30=[CFA+8] reg29=[CFA]
  0x000fe06c: CFA=reg29: reg31=reg29+16 reg19=[CFA+16] reg20=[CFA+24] reg30=[CFA+8] reg29=[CFA]
  0x000fe0e0: CFA=reg29: reg31=reg29+16 reg19=[CFA+16] reg20=[CFA+24] reg21=[CFA+32] reg22=[CFA+40] reg30=[CFA+8] reg29=[CFA]
  0x000fe234: CFA=reg29: reg31=reg29+16 reg19=[CFA+16] reg20=[CFA+24] reg21=[CFA+32] reg22=[CFA+40] reg30=[CFA+8] reg29=[CFA]
  0x000fe3ac: CFA=reg29: reg31=reg29+16 reg19=[CFA+16] reg20=[CFA+24] reg30=[CFA+8] reg29=[CFA]
  0x000fe3fc: CFA=reg29: reg31=reg29+16 reg19=[CFA+16] reg20=[CFA+24] reg21=[CFA+32] reg22=[CFA+40] reg30=[CFA+8] reg29=[CFA]
  0x000fe604: CFA=reg31
  0x000fe618: CFA=reg29: reg31=reg29+16 reg19=[CFA+16] reg20=[CFA+24] reg21=[CFA+32] reg22=[CFA+40] reg23=[CFA+48] reg24=[CFA+56] reg30=[CFA+8] reg29=[CFA]
  0x000fe7e8: CFA=reg29: reg31=reg29+16 reg19=[CFA+16] reg20=[CFA+24] reg21=[CFA+32] reg22=[CFA+40] reg30=[CFA+8] reg29=[CFA]
  0x000fe8a0: CFA=reg31
  0x000fe8b8: CFA=reg29: reg31=reg29+16 reg19=[CFA+16] reg20=[CFA+24] reg21=[CFA+32] reg22=[CFA+40] reg23=[CFA+48] reg24=[CFA+56] reg25=[CFA+64] reg26=[CFA+72] reg27=[CFA+80] reg28=[CFA+88] reg30=[CFA+8] reg29=[CFA]
  0x000febf8: CFA=reg29: reg31=reg29+16 reg19=[CFA+16] reg20=[CFA+24] reg30=[CFA+8] reg29=[CFA]
  0x000ff38c: CFA=reg31
  0x000ff910: CFA=reg29: reg31=reg29+16 reg19=[CFA+16] reg20=[CFA+24] reg21=[CFA+32] reg22=[CFA+40] reg23=[CFA+48] reg24=[CFA+56] reg30=[CFA+8] reg29=[CFA]
  0x000ffc60: CFA=reg29: reg31=reg29+16 reg19=[CFA+16] reg20=[CFA+24] reg21=[CFA+32] reg22=[CFA+40] reg23=[CFA+48] reg24=[CFA+56] reg30=[CFA+8] reg29=[CFA]
  0x000ffe68: CFA=reg29: reg31=reg29+16 reg19=[CFA+16] reg20=[CFA+24] reg21=[CFA+32] reg22=[CFA+40] reg23=[CFA+48] reg24=[CFA+56] reg25=[CFA+64] reg26=[CFA+72] reg30=[CFA+8] reg29=[CFA]
  0x00100070: CFA=reg29: reg31=reg29+16 reg19=[CFA+16] reg20=[CFA+24] reg21=[CFA+32] reg22=[CFA+40] reg23=[CFA+48] reg24=[CFA+56] reg30=[CFA+8] reg29=[CFA]
  0x0010014c: CFA=reg29: reg31=reg29+16 reg19=[CFA+16] reg20=[CFA+24] reg21=[CFA+32] reg22=[CFA+40] reg30=[CFA+8] reg29=[CFA]
  0x00100270: CFA=reg29: reg31=reg29+16 reg30=[CFA+8] reg29=[CFA]
  0x001003ec: CFA=reg29: reg31=reg29+16 reg19=[CFA+16] reg20=[CFA+24] reg21=[CFA+32] reg22=[CFA+40] reg23=[CFA+48] reg24=[CFA+56] reg25=[CFA+64] reg26=[CFA+72] reg27=[CFA+80] reg28=[CFA+88] reg30=[CFA+8] reg29=[CFA]
  0x001012b4: CFA=reg31
  0x001012d8: CFA=reg29: reg31=reg29+16 reg19=[CFA+16] reg20=[CFA+24] reg21=[CFA+32] reg22=[CFA+40] reg23=[CFA+48] reg24=[CFA+56] reg25=[CFA+64] reg26=[CFA+72] reg27=[CFA+80] reg28=[CFA+88] reg30=[CFA+8] reg29=[CFA]
  0x0010173c: CFA=reg29: reg31=reg29+16 reg19=[CFA+16] reg20=[CFA+24] reg30=[CFA+8] reg29=[CFA]
  0x00101794: CFA=reg29: reg31=reg29+16 reg19=[CFA+16] reg20=[CFA+24] reg21=[CFA+32] reg22=[CFA+40] reg30=[CFA+8] reg29=[CFA]
  0x00101844: CFA=reg29: reg31=reg29+16 reg19=[CFA+16] reg20=[CFA+24] reg21=[CFA+32] reg22=[CFA+40] reg23=[CFA+48] reg24=[CFA+56] reg25=[CFA+64] reg26=[CFA+72] reg27=[CFA+80] reg28=[CFA+88] reg30=[CFA+8] reg29=[CFA]
  0x0010200c: CFA=reg29: reg31=reg29+16 reg19=[CFA+16] reg20=[CFA+24] reg21=[CFA+32] reg22=[CFA+40] reg23=[CFA+48] reg24=[CFA+56] reg25=[CFA+64] reg26=[CFA+72] reg27=[CFA+80] reg28=[CFA+88] reg30=[CFA+8] reg29=[CFA]
  0x00102858: CFA=reg29: reg31=reg29+16 reg19=[CFA+16] reg20=[CFA+24] reg21=[CFA+32] reg22=[CFA+40] reg23=[CFA+48] reg24=[CFA+56] reg25=[CFA+64] reg26=[CFA+72] reg27=[CFA+80] reg28=[CFA+88] reg30=[CFA+8] reg29=[CFA]
  0x001030a4: CFA=reg31
  0x001030dc: CFA=reg29: reg31=reg29+16 reg19=[CFA+16] reg20=[CFA+24] reg30=[CFA+8] reg29=[CFA]
  0x0010314c: CFA=reg29: reg31=reg29+16 reg19=[CFA+16] reg20=[CFA+24] reg30=[CFA+8] reg29=[CFA]
  0x0010367c: CFA=reg29: reg31=reg29+16 reg19=[CFA+16] reg20=[CFA+24] reg21=[CFA+32] reg22=[CFA+40] reg23=[CFA+48] reg24=[CFA+56] reg25=[CFA+64] reg26=[CFA+72] reg27=[CFA+80] reg28=[CFA+88] reg30=[CFA+8] reg29=[CFA]
  0x00103c54: CFA=reg29: reg31=reg29+16 reg19=[CFA+16] reg20=[CFA+24] reg21=[CFA+32] reg22=[CFA+40] reg23=[CFA+48] reg24=[CFA+56] reg30=[CFA+8] reg29=[CFA]
  0x00103f24: CFA=reg31
  0x00103f38: CFA=reg29: reg31=reg29+16 reg19=[CFA+16] reg20=[CFA+24] reg21=[CFA+32] reg22=[CFA+40] reg30=[CFA+8] reg29=[CFA]
  0x00103fb0: CFA=reg31
  0x00103fcc: CFA=reg29: reg31=reg29+16 reg19=[CFA+16] reg20=[CFA+24] reg21=[CFA+32] reg22=[CFA+40] reg23=[CFA+48] reg24=[CFA+56] reg25=[CFA+64] reg26=[CFA+72] reg30=[CFA+8] reg29=[CFA]
  0x00104104: CFA=reg31
  0x00104108: CFA=reg29: reg31=reg29+16 reg19=[CFA+16] reg20=[CFA+24] reg21=[CFA+32] reg22=[CFA+40] reg23=[CFA+48] reg24=[CFA+56] reg30=[CFA+8] reg29=[CFA]
  0x001045d4: CFA=reg29: reg31=reg29+16 reg19=[CFA+16] reg20=[CFA+24] reg30=[CFA+8] reg29=[CFA]
  0x0010467c: CFA=reg31
  0x00104690: CFA=reg29: reg31=reg29+16 reg19=[CFA+16] reg20=[CFA+24] reg30=[CFA+8] reg29=[CFA]
  0x001046e8: CFA=reg29: reg31=reg29+16 reg19=[CFA+16] reg20=[CFA+24] reg30=[CFA+8] reg29=[CFA]
  0x00104744: CFA=reg29: reg31=reg29+16 reg19=[CFA+16] reg20=[CFA+24] reg21=[CFA+32] reg22=[CFA+40] reg30=[CFA+8] reg29=[CFA]
  0x0010487c: CFA=reg31
  0x001048a0: CFA=reg29: reg31=reg29+16 reg19=[CFA+16] reg20=[CFA+24] reg21=[CFA+32] reg22=[CFA+40] reg30=[CFA+8] reg29=[CFA]
  0x00104ad0: CFA=reg31
  0x00104ad4: CFA=reg29: reg31=reg29+16 reg19=[CFA+16] reg20=[CFA+24] reg21=[CFA+32] reg22=[CFA+40] reg23=[CFA+48] reg24=[CFA+56] reg25=[CFA+64] reg26=[CFA+72] reg27=[CFA+80] reg28=[CFA+88] reg30=[CFA+8] reg29=[CFA]
  0x00104c18: CFA=reg29: reg31=reg29+16 reg19=[CFA+16] reg20=[CFA+24] reg21=[CFA+32] reg22=[CFA+40] reg23=[CFA+48] reg24=[CFA+56] reg25=[CFA+64] reg26=[CFA+72] reg30=[CFA+8] reg29=[CFA]
  0x001052b0: CFA=reg29: reg31=reg29+16 reg19=[CFA+16] reg20=[CFA+24] reg21=[CFA+32] reg22=[CFA+40] reg23=[CFA+48] reg24=[CFA+56] reg25=[CFA+64] reg26=[CFA+72] reg27=[CFA+80] reg28=[CFA+88] reg30=[CFA+8] reg29=[CFA]
  0x001057a0: CFA=reg31
  0x001057f0: CFA=reg29: reg31=reg29+16 reg19=[CFA+16] reg20=[CFA+24] reg30=[CFA+8] reg29=[CFA]
  0x00105858: CFA=reg29: reg31=reg29+16 reg19=[CFA+16] reg20=[CFA+24] reg21=[CFA+32] reg22=[CFA+40] reg30=[CFA+8] reg29=[CFA]
  0x001059b0: CFA=reg29: reg31=reg29+16 reg30=[CFA+8] reg29=[CFA]
  0x00105a20: CFA=reg29: reg31=reg29+16 reg19=[CFA+16] reg20=[CFA+24] reg30=[CFA+8] reg29=[CFA]
  0x00105b10: CFA=reg31
  0x00105bd8: CFA=reg29: reg31=reg29+16 reg19=[CFA+16] reg20=[CFA+24] reg30=[CFA+8] reg29=[CFA]
  0x00105ce8: CFA=reg29: reg31=reg29+16 reg19=[CFA+16] reg20=[CFA+24] reg30=[CFA+8] reg29=[CFA]
  0x00105dcc: CFA=reg29: reg31=reg29+16 reg19=[CFA+16] reg20=[CFA+24] reg21=[CFA+32] reg22=[CFA+40] reg30=[CFA+8] reg29=[CFA]
  0x00105f68: CFA=reg29: reg31=reg29+16 reg19=[CFA+16] reg20=[CFA+24] reg21=[CFA+32] reg22=[CFA+40] reg30=[CFA+8] reg29=[CFA]
  0x00106104: CFA=reg29: reg31=reg29+16 reg19=[CFA+16] reg20=[CFA+24] reg21=[CFA+32] reg22=[CFA+40] reg23=[CFA+48] reg24=[CFA+56] reg25=[CFA+64] reg26=[CFA+72] reg27=[CFA+80] reg28=[CFA+88] reg30=[CFA+8] reg29=[CFA]
  0x0010638c: CFA=reg29: reg31=reg29+16 reg19=[CFA+16] reg20=[CFA+24] reg21=[CFA+32] reg22=[CFA+40] reg23=[CFA+48] reg24=[CFA+56] reg25=[CFA+64] reg26=[CFA+72] reg27=[CFA+80] reg28=[CFA+88] reg30=[CFA+8] reg29=[CFA]
  0x001066a4: CFA=reg29: reg31=reg29+16 reg19=[CFA+16] reg20=[CFA+24] reg21=[CFA+32] reg22=[CFA+40] reg23=[CFA+48] reg24=[CFA+56] reg25=[CFA+64] reg26=[CFA+72] reg27=[CFA+80] reg28=[CFA+88] reg30=[CFA+8] reg29=[CFA]
  0x001068b4: CFA=reg29: reg31=reg29+16 reg19=[CFA+16] reg20=[CFA+24] reg21=[CFA+32] reg22=[CFA+40] reg23=[CFA+48] reg24=[CFA+56] reg25=[CFA+64] reg26=[CFA+72] reg27=[CFA+80] reg28=[CFA+88] reg30=[CFA+8] reg29=[CFA]
  0x00106b50: CFA=reg29: reg31=reg29+16 reg19=[CFA+16] reg20=[CFA+24] reg21=[CFA+32] reg22=[CFA+40] reg23=[CFA+48] reg24=[CFA+56] reg25=[CFA+64] reg26=[CFA+72] reg27=[CFA+80] reg28=[CFA+88] reg30=[CFA+8] reg29=[CFA]
  0x00106f0c: CFA=reg29: reg31=reg29+16 reg19=[CFA+16] reg20=[CFA+24] reg21=[CFA+32] reg22=[CFA+40] reg30=[CFA+8] reg29=[CFA]
  0x00107110: CFA=reg31
  0x00107244: CFA=reg29: reg31=reg29+16 reg19=[CFA+16] reg20=[CFA+24] reg21=[CFA+32] reg22=[CFA+40] reg23=[CFA+48] reg24=[CFA+56] reg25=[CFA+64] reg26=[CFA+72] reg27=[CFA+80] reg28=[CFA+88] reg30=[CFA+8] reg29=[CFA]
  0x00107358: CFA=reg29: reg31=reg29+16 reg19=[CFA+16] reg20=[CFA+24] reg21=[CFA+32] reg22=[CFA+40] reg23=[CFA+48] reg24=[CFA+56] reg25=[CFA+64] reg26=[CFA+72] reg27=[CFA+80] reg28=[CFA+88] reg30=[CFA+8] reg29=[CFA]
  0x0010748c: CFA=reg29: reg31=reg29+16 reg19=[CFA+16] reg20=[CFA+24] reg30=[CFA+8] reg29=[CFA]
  0x001075b0: CFA=reg29: reg31=reg29+16 reg19=[CFA+16] reg20=[CFA+24] reg30=[CFA+8] reg29=[CFA]
  0x001076c8: CFA=reg29: reg31=reg29+16 reg19=[CFA+16] reg20=[CFA+24] reg21=[CFA+32] reg22=[CFA+40] reg23=[CFA+48] reg24=[CFA+56] reg25=[CFA+64] reg26=[CFA+72] reg27=[CFA+80] reg28=[CFA+88] reg30=[CFA+8] reg29=[CFA]
  0x001077dc: CFA=reg29: reg31=reg29+16 reg19=[CFA+16] reg20=[CFA+24] reg21=[CFA+32] reg22=[CFA+40] reg23=[CFA+48] reg24=[CFA+56] reg25=[CFA+64] reg26=[CFA+72] reg27=[CFA+80] reg28=[CFA+88] reg30=[CFA+8] reg29=[CFA]
  0x001079e0: CFA=reg29: reg31=reg29+16 reg19=[CFA+16] reg20=[CFA+24] reg21=[CFA+32] reg22=[CFA+40] reg23=[CFA+48] reg24=[CFA+56] reg25=[CFA+64] reg26=[CFA+72] reg27=[CFA+80] reg28=[CFA+88] reg30=[CFA+8] reg29=[CFA]
  0x00107b84: CFA=reg29: reg31=reg29+16 reg19=[CFA+16] reg20=[CFA+24] reg21=[CFA+32] reg22=[CFA+40] reg23=[CFA+48] reg24=[CFA+56] reg25=[CFA+64] reg26=[CFA+72] reg27=[CFA+80] reg28=[CFA+88] reg30=[CFA+8] reg29=[CFA]
  0x00107ce0: CFA=reg29: reg31=reg29+16 reg19=[CFA+16] reg20=[CFA+24] reg21=[CFA+32] reg22=[CFA+40] reg23=[CFA+48] reg24=[CFA+56] reg25=[CFA+64] reg26=[CFA+72] reg27=[CFA+80] reg28=[CFA+88] reg30=[CFA+8] reg29=[CFA]
  0x00108028: CFA=reg29: reg31=reg29+16 reg19=[CFA+16] reg20=[CFA+24] reg30=[CFA+8] reg29=[CFA]
  0x00108068: CFA=reg29: reg31=reg29+16 reg19=[CFA+16] reg20=[CFA+24] reg21=[CFA+32] reg22=[CFA+40] reg23=[CFA+48] reg24=[CFA+56] reg30=[CFA+8] reg29=[CFA]
  0x00108550: CFA=reg29: reg31=reg29+16 reg19=[CFA+16] reg20=[CFA+24] reg21=[CFA+32] reg22=[CFA+40] reg23=[CFA+48] reg24=[CFA+56] reg25=[CFA+64] reg26=[CFA+72] reg27=[CFA+80] reg28=[CFA+88] reg30=[CFA+8] reg29=[CFA]
  0x00108664: CFA=reg29: reg31=reg29+16 reg19=[CFA+16] reg20=[CFA+24] reg21=[CFA+32] reg22=[CFA+40] reg23=[CFA+48] reg24=[CFA+56] reg25=[CFA+64] reg26=[CFA+72] reg27=[CFA+80] reg28=[CFA+88] reg30=[CFA+8] reg29=[CFA]
  0x00108874: CFA=reg29: reg31=reg29+16 reg19=[CFA+16] reg20=[CFA+24] reg21=[CFA+32] reg22=[CFA+40] reg23=[CFA+48] reg24=[CFA+56] reg25=[CFA+64] reg26=[CFA+72] reg27=[CFA+80] reg28=[CFA+88] reg30=[CFA+8] reg29=[CFA]
  0x00108980: CFA=reg29: reg31=reg29+16 reg19=[CFA+16] reg20=[CFA+24] reg21=[CFA+32] reg22=[CFA+40] reg23=[CFA+48] reg24=[CFA+56] reg30=[CFA+8] reg29=[CFA]
  0x00108c98: CFA=reg29: reg31=reg29+16 reg19=[CFA+16] reg20=[CFA+24] reg30=[CFA+8] reg29=[CFA]
  0x00108d14: CFA=reg29: reg31=reg29+16 reg19=[CFA+16] reg20=[CFA+24] reg30=[CFA+8] reg29=[CFA]
  0x00108d50: CFA=reg29: reg31=reg29+16 reg19=[CFA+16] reg20=[CFA+24] reg21=[CFA+32] reg22=[CFA+40] reg23=[CFA+48] reg24=[CFA+56] reg25=[CFA+64] reg26=[CFA+72] reg30=[CFA+8] reg29=[CFA]
  0x00109230: CFA=reg29: reg31=reg29+16 reg19=[CFA+16] reg20=[CFA+24] reg30=[CFA+8] reg29=[CFA]
  0x001092c4: CFA=reg29: reg31=reg29+16 reg19=[CFA+16] reg20=[CFA+24] reg21=[CFA+32] reg22=[CFA+40] reg30=[CFA+8] reg29=[CFA]
  0x00109374: CFA=reg31
  0x00109680: CFA=reg29: reg31=reg29+16 reg19=[CFA+16] reg20=[CFA+24] reg21=[CFA+32] reg22=[CFA+40] reg23=[CFA+48] reg24=[CFA+56] reg25=[CFA+64] reg26=[CFA+72] reg27=[CFA+80] reg28=[CFA+88] reg30=[CFA+8] reg29=[CFA]
  0x00109b0c: CFA=reg29: reg31=reg29+16 reg19=[CFA+16] reg20=[CFA+24] reg21=[CFA+32] reg22=[CFA+40] reg30=[CFA+8] reg29=[CFA]
  0x00109dec: CFA=reg29: reg31=reg29+16 reg19=[CFA+16] reg20=[CFA+24] reg21=[CFA+32] reg22=[CFA+40] reg23=[CFA+48] reg24=[CFA+56] reg30=[CFA+8] reg29=[CFA]
  0x0010a1b4: CFA=reg29: reg31=reg29+16 reg19=[CFA+16] reg20=[CFA+24] reg21=[CFA+32] reg22=[CFA+40] reg30=[CFA+8] reg29=[CFA]
  0x0010a328: CFA=reg29: reg31=reg29+16 reg19=[CFA+16] reg20=[CFA+24] reg21=[CFA+32] reg22=[CFA+40] reg30=[CFA+8] reg29=[CFA]
  0x0010a488: CFA=reg31
  0x0010a5ac: CFA=reg29: reg31=reg29+16 reg19=[CFA+16] reg20=[CFA+24] reg21=[CFA+32] reg22=[CFA+40] reg23=[CFA+48] reg24=[CFA+56] reg30=[CFA+8] reg29=[CFA]
  0x0010a750: CFA=reg29: reg31=reg29+16 reg19=[CFA+16] reg20=[CFA+24] reg21=[CFA+32] reg22=[CFA+40] reg30=[CFA+8] reg29=[CFA]
  0x0010a8d8: CFA=reg29: reg31=reg29+16 reg19=[CFA+16] reg20=[CFA+24] reg21=[CFA+32] reg22=[CFA+40] reg30=[CFA+8] reg29=[CFA]
  0x0010aa60: CFA=reg29: reg31=reg29+16 reg19=[CFA+16] reg20=[CFA+24] reg21=[CFA+32] reg22=[CFA+40] reg30=[CFA+8] reg29=[CFA]
  0x0010abd8: CFA=reg29: reg31=reg29+16 reg19=[CFA+16] reg20=[CFA+24] reg21=[CFA+32] reg22=[CFA+40] reg30=[CFA+8] reg29=[CFA]
  0x0010ad50: CFA=reg29: reg31=reg29+16 reg19=[CFA+16] reg20=[CFA+24] reg30=[CFA+8] reg29=[CFA]
  0x0010afe8: CFA=reg29: reg31=reg29+16 reg19=[CFA+16] reg20=[CFA+24] reg21=[CFA+32] reg22=[CFA+40] reg30=[CFA+8] reg29=[CFA]
  0x0010b3bc: CFA=reg29: reg31=reg29+16 reg19=[CFA+16] reg20=[CFA+24] reg21=[CFA+32] reg22=[CFA+40] reg30=[CFA+8] reg29=[CFA]
  0x0010b76c: CFA=reg29: reg31=reg29+16 reg19=[CFA+16] reg20=[CFA+24] reg21=[CFA+32] reg22=[CFA+40] reg23=[CFA+48] reg24=[CFA+56] reg25=[CFA+64] reg26=[CFA+72] reg27=[CFA+80] reg28=[CFA+88] reg30=[CFA+8] reg29=[CFA]
  0x0010d514: CFA=reg29: reg31=reg29+16 reg19=[CFA+16] reg20=[CFA+24] reg21=[CFA+32] reg22=[CFA+40] reg23=[CFA+48] reg24=[CFA+56] reg25=[CFA+64] reg26=[CFA+72] reg30=[CFA+8] reg29=[CFA]
  0x0010d850: CFA=reg29: reg31=reg29+16 reg19=[CFA+16] reg20=[CFA+24] reg21=[CFA+32] reg22=[CFA+40] reg30=[CFA+8] reg29=[CFA]
  0x0010d8e0: CFA=reg31
  0x0010d900: CFA=reg29: reg31=reg29+16 reg19=[CFA+16] reg20=[CFA+24] reg21=[CFA+32] reg22=[CFA+40] reg23=[CFA+48] reg24=[CFA+56] reg30=[CFA+8] reg29=[CFA]
  0x0010da08: CFA=reg31
  0x0010da1c: CFA=reg29: reg31=reg29+16 reg19=[CFA+16] reg20=[CFA+24] reg21=[CFA+32] reg22=[CFA+40] reg23=[CFA+48] reg24=[CFA+56] reg25=[CFA+64] reg26=[CFA+72] reg27=[CFA+80] reg28=[CFA+88] reg30=[CFA+8] reg29=[CFA]
  0x0010f7a4: CFA=reg29: reg31=reg29+16 reg19=[CFA+16] reg20=[CFA+24] reg21=[CFA+32] reg22=[CFA+40] reg23=[CFA+48] reg24=[CFA+56] reg25=[CFA+64] reg26=[CFA+72] reg30=[CFA+8] reg29=[CFA]
  0x0010fae0: CFA=reg29: reg31=reg29+16 reg19=[CFA+16] reg20=[CFA+24] reg30=[CFA+8] reg29=[CFA]
  0x0010fb60: CFA=reg29: reg31=reg29+16 reg30=[CFA+8] reg29=[CFA]
  0x0010fca0: CFA=reg29: reg31=reg29+16 reg19=[CFA+16] reg20=[CFA+24] reg21=[CFA+32] reg22=[CFA+40] reg23=[CFA+48] reg24=[CFA+56] reg25=[CFA+64] reg26=[CFA+72] reg27=[CFA+80] reg28=[CFA+88] reg30=[CFA+8] reg29=[CFA]
  0x001126c4: CFA=reg29: reg31=reg29+16 reg19=[CFA+16] reg20=[CFA+24] reg30=[CFA+8] reg29=[CFA]

0x001127f4: Compressed page with 988 entries and 2 local opcodes
  0x001127f4: CFA=reg29: reg31=reg29+16 reg19=[CFA+16] reg20=[CFA+24] reg21=[CFA+32] reg22=[CFA+40] reg23=[CFA+48] reg24=[CFA+56] reg25=[CFA+64] reg26=[CFA+72] reg27=[CFA+80] reg28=[CFA+88] reg14=[CFA+96] reg15=[CFA+104] reg30=[CFA+8] reg29=[CFA]
  0x00115400: CFA=reg29: reg31=reg29+16 reg19=[CFA+16] reg20=[CFA+24] reg30=[CFA+8] reg29=[CFA]
  0x00115474: CFA=reg29: reg31=reg29+16 reg19=[CFA+16] reg20=[CFA+24] reg21=[CFA+32] reg22=[CFA+40] reg23=[CFA+48] reg24=[CFA+56] reg25=[CFA+64] reg26=[CFA+72] reg27=[CFA+80] reg28=[CFA+88] reg30=[CFA+8] reg29=[CFA]
  0x0011565c: CFA=reg29: reg31=reg29+16 reg19=[CFA+16] reg20=[CFA+24] reg30=[CFA+8] reg29=[CFA]
  0x001156e4: CFA=reg29: reg31=reg29+16 reg19=[CFA+16] reg20=[CFA+24] reg30=[CFA+8] reg29=[CFA]
  0x00115760: CFA=reg29: reg31=reg29+16 reg19=[CFA+16] reg20=[CFA+24] reg30=[CFA+8] reg29=[CFA]
  0x00115834: CFA=reg29: reg31=reg29+16 reg19=[CFA+16] reg20=[CFA+24] reg21=[CFA+32] reg22=[CFA+40] reg23=[CFA+48] reg24=[CFA+56] reg25=[CFA+64] reg26=[CFA+72] reg27=[CFA+80] reg28=[CFA+88] reg30=[CFA+8] reg29=[CFA]
  0x00118fc4: CFA=reg29: reg31=reg29+16 reg19=[CFA+16] reg20=[CFA+24] reg30=[CFA+8] reg29=[CFA]
  0x001190a8: CFA=reg29: reg31=reg29+16 reg19=[CFA+16] reg20=[CFA+24] reg30=[CFA+8] reg29=[CFA]
  0x00119140: CFA=reg31
  0x00119144: CFA=reg29: reg31=reg29+16 reg19=[CFA+16] reg20=[CFA+24] reg30=[CFA+8] reg29=[CFA]
  0x001191a4: CFA=reg29: reg31=reg29+16 reg19=[CFA+16] reg20=[CFA+24] reg21=[CFA+32] reg22=[CFA+40] reg30=[CFA+8] reg29=[CFA]
  0x0011921c: CFA=reg29: reg31=reg29+16 reg19=[CFA+16] reg20=[CFA+24] reg21=[CFA+32] reg22=[CFA+40] reg23=[CFA+48] reg24=[CFA+56] reg30=[CFA+8] reg29=[CFA]
  0x00119304: CFA=reg29: reg31=reg29+16 reg19=[CFA+16] reg20=[CFA+24] reg30=[CFA+8] reg29=[CFA]
  0x00119370: CFA=reg31
  0x00119380: CFA=reg29: reg31=reg29+16 reg19=[CFA+16] reg20=[CFA+24] reg21=[CFA+32] reg22=[CFA+40] reg30=[CFA+8] reg29=[CFA]
  0x00119530: CFA=reg29: reg31=reg29+16 reg19=[CFA+16] reg20=[CFA+24] reg21=[CFA+32] reg22=[CFA+40] reg23=[CFA+48] reg24=[CFA+56] reg30=[CFA+8] reg29=[CFA]
  0x00119948: CFA=reg29: reg31=reg29+16 reg19=[CFA+16] reg20=[CFA+24] reg21=[CFA+32] reg22=[CFA+40] reg30=[CFA+8] reg29=[CFA]
  0x00119a4c: CFA=reg29: reg31=reg29+16 reg19=[CFA+16] reg20=[CFA+24] reg30=[CFA+8] reg29=[CFA]
  0x00119b14: CFA=reg29: reg31=reg29+16 reg19=[CFA+16] reg20=[CFA+24] reg21=[CFA+32] reg22=[CFA+40] reg23=[CFA+48] reg24=[CFA+56] reg25=[CFA+64] reg26=[CFA+72] reg27=[CFA+80] reg28=[CFA+88] reg30=[CFA+8] reg29=[CFA]
  0x00119de0: CFA=reg31
  0x00119df4: CFA=reg29: reg31=reg29+16 reg19=[CFA+16] reg20=[CFA+24] reg21=[CFA+32] reg22=[CFA+40] reg23=[CFA+48] reg24=[CFA+56] reg30=[CFA+8] reg29=[CFA]
  0x00119fb4: CFA=reg29: reg31=reg29+16 reg19=[CFA+16] reg20=[CFA+24] reg21=[CFA+32] reg22=[CFA+40] reg30=[CFA+8] reg29=[CFA]
  0x0011a164: CFA=reg29: reg31=reg29+16 reg19=[CFA+16] reg20=[CFA+24] reg30=[CFA+8] reg29=[CFA]
  0x0011a2b4: CFA=reg29: reg31=reg29+16 reg19=[CFA+16] reg20=[CFA+24] reg21=[CFA+32] reg22=[CFA+40] reg23=[CFA+48] reg24=[CFA+56] reg25=[CFA+64] reg26=[CFA+72] reg27=[CFA+80] reg28=[CFA+88] reg30=[CFA+8] reg29=[CFA]
  0x0011aa30: CFA=reg31
  0x0011aa6c: CFA=reg29: reg31=reg29+16 reg19=[CFA+16] reg20=[CFA+24] reg30=[CFA+8] reg29=[CFA]
  0x0011ab9c: CFA=reg29: reg31=reg29+16 reg19=[CFA+16] reg20=[CFA+24] reg21=[CFA+32] reg22=[CFA+40] reg30=[CFA+8] reg29=[CFA]
  0x0011ad98: CFA=reg31
  0x0011adac: CFA=reg29: reg31=reg29+16 reg19=[CFA+16] reg20=[CFA+24] reg21=[CFA+32] reg22=[CFA+40] reg23=[CFA+48] reg24=[CFA+56] reg30=[CFA+8] reg29=[CFA]
  0x0011af50: CFA=reg29: reg31=reg29+16 reg19=[CFA+16] reg20=[CFA+24] reg30=[CFA+8] reg29=[CFA]
  0x0011afbc: CFA=reg29: reg31=reg29+16 reg19=[CFA+16] reg20=[CFA+24] reg21=[CFA+32] reg22=[CFA+40] reg30=[CFA+8] reg29=[CFA]
  0x0011b038: CFA=reg29: reg31=reg29+16 reg19=[CFA+16] reg20=[CFA+24] reg21=[CFA+32] reg22=[CFA+40] reg23=[CFA+48] reg24=[CFA+56] reg25=[CFA+64] reg26=[CFA+72] reg27=[CFA+80] reg28=[CFA+88] reg30=[CFA+8] reg29=[CFA]
  0x0011c08c: CFA=reg29: reg31=reg29+16 reg19=[CFA+16] reg20=[CFA+24] reg30=[CFA+8] reg29=[CFA]
  0x0011c144: CFA=reg29: reg31=reg29+16 reg19=[CFA+16] reg20=[CFA+24] reg21=[CFA+32] reg22=[CFA+40] reg30=[CFA+8] reg29=[CFA]
  0x0011c338: CFA=reg29: reg31=reg29+16 reg19=[CFA+16] reg20=[CFA+24] reg30=[CFA+8] reg29=[CFA]
  0x0011c41c: CFA=reg31
  0x0011c420: CFA=reg29: reg31=reg29+16 reg19=[CFA+16] reg20=[CFA+24] reg30=[CFA+8] reg29=[CFA]
  0x0011c4e8: CFA=reg29: reg31=reg29+16 reg19=[CFA+16] reg20=[CFA+24] reg21=[CFA+32] reg22=[CFA+40] reg30=[CFA+8] reg29=[CFA]
  0x0011c608: CFA=reg29: reg31=reg29+16 reg19=[CFA+16] reg20=[CFA+24] reg30=[CFA+8] reg29=[CFA]
  0x0011c670: CFA=reg29: reg31=reg29+16 reg19=[CFA+16] reg20=[CFA+24] reg30=[CFA+8] reg29=[CFA]
  0x0011c6ac: CFA=reg29: reg31=reg29+16 reg19=[CFA+16] reg20=[CFA+24] reg21=[CFA+32] reg22=[CFA+40] reg23=[CFA+48] reg24=[CFA+56] reg25=[CFA+64] reg26=[CFA+72] reg27=[CFA+80] reg28=[CFA+88] reg30=[CFA+8] reg29=[CFA]
  0x0011fe3c: CFA=reg31
  0x0011fe44: CFA=reg29: reg31=reg29+16 reg19=[CFA+16] reg20=[CFA+24] reg21=[CFA+32] reg22=[CFA+40] reg30=[CFA+8] reg29=[CFA]
  0x0011fef0: CFA=reg31
  0x0011ff14: CFA=reg29: reg31=reg29+16 reg19=[CFA+16] reg20=[CFA+24] reg21=[CFA+32] reg22=[CFA+40] reg23=[CFA+48] reg24=[CFA+56] reg25=[CFA+64] reg26=[CFA+72] reg27=[CFA+80] reg28=[CFA+88] reg30=[CFA+8] reg29=[CFA]
  0x00120e74: CFA=reg29: reg31=reg29+16 reg19=[CFA+16] reg20=[CFA+24] reg30=[CFA+8] reg29=[CFA]
  0x001214f0: CFA=reg29: reg31=reg29+16 reg19=[CFA+16] reg20=[CFA+24] reg30=[CFA+8] reg29=[CFA]
  0x0012152c: CFA=reg29: reg31=reg29+16 reg19=[CFA+16] reg20=[CFA+24] reg30=[CFA+8] reg29=[CFA]
  0x00121568: CFA=reg29: reg31=reg29+16 reg19=[CFA+16] reg20=[CFA+24] reg21=[CFA+32] reg22=[CFA+40] reg30=[CFA+8] reg29=[CFA]
  0x001215fc: CFA=reg29: reg31=reg29+16 reg30=[CFA+8] reg29=[CFA]
  0x00121644: CFA=reg29: reg31=reg29+16 reg19=[CFA+16] reg20=[CFA+24] reg21=[CFA+32] reg22=[CFA+40] reg30=[CFA+8] reg29=[CFA]
  0x00121778: CFA=reg29: reg31=reg29+16 reg19=[CFA+16] reg20=[CFA+24] reg21=[CFA+32] reg22=[CFA+40] reg23=[CFA+48] reg24=[CFA+56] reg25=[CFA+64] reg26=[CFA+72] reg30=[CFA+8] reg29=[CFA]
  0x00121968: CFA=reg31
  0x0012196c: CFA=reg29: reg31=reg29+16 reg19=[CFA+16] reg20=[CFA+24] reg30=[CFA+8] reg29=[CFA]
  0x0012199c: CFA=reg29: reg31=reg29+16 reg19=[CFA+16] reg20=[CFA+24] reg21=[CFA+32] reg22=[CFA+40] reg23=[CFA+48] reg24=[CFA+56] reg25=[CFA+64] reg26=[CFA+72] reg30=[CFA+8] reg29=[CFA]
  0x00121aa8: CFA=reg29: reg31=reg29+16 reg19=[CFA+16] reg20=[CFA+24] reg21=[CFA+32] reg22=[CFA+40] reg23=[CFA+48] reg24=[CFA+56] reg25=[CFA+64] reg26=[CFA+72] reg30=[CFA+8] reg29=[CFA]
  0x00121bc0: CFA=reg29: reg31=reg29+16 reg19=[CFA+16] reg20=[CFA+24] reg21=[CFA+32] reg22=[CFA+40] reg23=[CFA+48] reg24=[CFA+56] reg25=[CFA+64] reg26=[CFA+72] reg30=[CFA+8] reg29=[CFA]
  0x00121ccc: CFA=reg29: reg31=reg29+16 reg19=[CFA+16] reg20=[CFA+24] reg21=[CFA+32] reg22=[CFA+40] reg23=[CFA+48] reg24=[CFA+56] reg25=[CFA+64] reg26=[CFA+72] reg30=[CFA+8] reg29=[CFA]
  0x00121dd8: CFA=reg29: reg31=reg29+16 reg30=[CFA+8] reg29=[CFA]
  0x00121e34: CFA=reg29: reg31=reg29+16 reg19=[CFA+16] reg20=[CFA+24] reg21=[CFA+32] reg22=[CFA+40] reg23=[CFA+48] reg24=[CFA+56] reg30=[CFA+8] reg29=[CFA]
  0x00122068: CFA=reg29: reg31=reg29+16 reg19=[CFA+16] reg20=[CFA+24] reg21=[CFA+32] reg22=[CFA+40] reg23=[CFA+48] reg24=[CFA+56] reg25=[CFA+64] reg26=[CFA+72] reg30=[CFA+8] reg29=[CFA]
  0x001221fc: CFA=reg31
  0x001222c4: CFA=reg29: reg31=reg29+16 reg19=[CFA+16] reg20=[CFA+24] reg21=[CFA+32] reg22=[CFA+40] reg23=[CFA+48] reg24=[CFA+56] reg30=[CFA+8] reg29=[CFA]
  0x0012257c: CFA=reg29: reg31=reg29+16 reg19=[CFA+16] reg20=[CFA+24] reg21=[CFA+32] reg22=[CFA+40] reg30=[CFA+8] reg29=[CFA]
  0x0012285c: CFA=reg31
  0x00122884: CFA=reg29: reg31=reg29+16 reg19=[CFA+16] reg20=[CFA+24] reg21=[CFA+32] reg22=[CFA+40] reg30=[CFA+8] reg29=[CFA]
  0x00122abc: CFA=reg29: reg31=reg29+16 reg19=[CFA+16] reg20=[CFA+24] reg21=[CFA+32] reg22=[CFA+40] reg30=[CFA+8] reg29=[CFA]
  0x00122c1c: CFA=reg29: reg31=reg29+16 reg19=[CFA+16] reg20=[CFA+24] reg21=[CFA+32] reg22=[CFA+40] reg23=[CFA+48] reg24=[CFA+56] reg25=[CFA+64] reg26=[CFA+72] reg27=[CFA+80] reg28=[CFA+88] reg30=[CFA+8] reg29=[CFA]
  0x00124c30: CFA=reg29: reg31=reg29+16 reg19=[CFA+16] reg20=[CFA+24] reg21=[CFA+32] reg22=[CFA+40] reg23=[CFA+48] reg24=[CFA+56] reg25=[CFA+64] reg26=[CFA+72] reg27=[CFA+80] reg28=[CFA+88] reg30=[CFA+8] reg29=[CFA]
  0x00125b44: CFA=reg29: reg31=reg29+16 reg19=[CFA+16] reg20=[CFA+24] reg30=[CFA+8] reg29=[CFA]
  0x00125ba4: CFA=reg29: reg31=reg29+16 reg19=[CFA+16] reg20=[CFA+24] reg21=[CFA+32] reg22=[CFA+40] reg23=[CFA+48] reg24=[CFA+56] reg25=[CFA+64] reg26=[CFA+72] reg27=[CFA+80] reg28=[CFA+88] reg30=[CFA+8] reg29=[CFA]
  0x00125d6c: CFA=reg29: reg31=reg29+16 reg19=[CFA+16] reg20=[CFA+24] reg21=[CFA+32] reg22=[CFA+40] reg23=[CFA+48] reg24=[CFA+56] reg25=[CFA+64] reg26=[CFA+72] reg27=[CFA+80] reg28=[CFA+88] reg30=[CFA+8] reg29=[CFA]
  0x00126318: CFA=reg29: reg31=reg29+16 reg19=[CFA+16] reg20=[CFA+24] reg30=[CFA+8] reg29=[CFA]
  0x0012637c: CFA=reg29: reg31=reg29+16 reg19=[CFA+16] reg20=[CFA+24] reg30=[CFA+8] reg29=[CFA]
  0x00126548: CFA=reg29: reg31=reg29+16 reg19=[CFA+16] reg20=[CFA+24] reg30=[CFA+8] reg29=[CFA]
  0x00126620: CFA=reg29: reg31=reg29+16 reg19=[CFA+16] reg20=[CFA+24] reg21=[CFA+32] reg22=[CFA+40] reg23=[CFA+48] reg24=[CFA+56] reg25=[CFA+64] reg26=[CFA+72] reg27=[CFA+80] reg28=[CFA+88] reg30=[CFA+8] reg29=[CFA]
  0x001267d4: CFA=reg31
  0x001267f0: CFA=reg29: reg31=reg29+16 reg19=[CFA+16] reg20=[CFA+24] reg21=[CFA+32] reg22=[CFA+40] reg30=[CFA+8] reg29=[CFA]
  0x00126898: CFA=reg29: reg31=reg29+16 reg19=[CFA+16] reg20=[CFA+24] reg30=[CFA+8] reg29=[CFA]
  0x001268f8: CFA=reg29: reg31=reg29+16 reg19=[CFA+16] reg20=[CFA+24] reg21=[CFA+32] reg22=[CFA+40] reg23=[CFA+48] reg24=[CFA+56] reg25=[CFA+64] reg26=[CFA+72] reg27=[CFA+80] reg28=[CFA+88] reg30=[CFA+8] reg29=[CFA]
  0x00126b58: CFA=reg29: reg31=reg29+16 reg19=[CFA+16] reg20=[CFA+24] reg30=[CFA+8] reg29=[CFA]
  0x00126c68: CFA=reg31
  0x00126c88: CFA=reg29: reg31=reg29+16 reg19=[CFA+16] reg20=[CFA+24] reg30=[CFA+8] reg29=[CFA]
  0x00126cec: CFA=reg29: reg31=reg29+16 reg19=[CFA+16] reg20=[CFA+24] reg30=[CFA+8] reg29=[CFA]
  0x00126d4c: CFA=reg31
  0x00126d70: CFA=reg29: reg31=reg29+16 reg19=[CFA+16] reg20=[CFA+24] reg21=[CFA+32] reg22=[CFA+40] reg23=[CFA+48] reg24=[CFA+56] reg25=[CFA+64] reg26=[CFA+72] reg27=[CFA+80] reg28=[CFA+88] reg30=[CFA+8] reg29=[CFA]
  0x00127be4: CFA=reg29: reg31=reg29+16 reg19=[CFA+16] reg20=[CFA+24] reg30=[CFA+8] reg29=[CFA]
  0x00127dc0: CFA=reg29: reg31=reg29+16 reg19=[CFA+16] reg20=[CFA+24] reg21=[CFA+32] reg22=[CFA+40] reg23=[CFA+48] reg24=[CFA+56] reg25=[CFA+64] reg26=[CFA+72] reg30=[CFA+8] reg29=[CFA]
  0x00128090: CFA=reg29: reg31=reg29+16 reg19=[CFA+16] reg20=[CFA+24] reg21=[CFA+32] reg22=[CFA+40] reg23=[CFA+48] reg24=[CFA+56] reg25=[CFA+64] reg26=[CFA+72] reg27=[CFA+80] reg28=[CFA+88] reg30=[CFA+8] reg29=[CFA]
  0x001285c0: CFA=reg31
  0x001285e4: CFA=reg29: reg31=reg29+16 reg19=[CFA+16] reg20=[CFA+24] reg21=[CFA+32] reg22=[CFA+40] reg30=[CFA+8] reg29=[CFA]
  0x0012870c: CFA=reg29: reg31=reg29+16 reg19=[CFA+16] reg20=[CFA+24] reg21=[CFA+32] reg22=[CFA+40] reg23=[CFA+48] reg24=[CFA+56] reg25=[CFA+64] reg26=[CFA+72] reg27=[CFA+80] reg28=[CFA+88] reg30=[CFA+8] reg29=[CFA]
  0x001291d8: CFA=reg31
  0x001295bc: CFA=reg29: reg31=reg29+16 reg19=[CFA+16] reg20=[CFA+24] reg21=[CFA+32] reg22=[CFA+40] reg23=[CFA+48] reg24=[CFA+56] reg30=[CFA+8] reg29=[CFA]
  0x001299c4: CFA=reg29: reg31=reg29+16 reg19=[CFA+16] reg20=[CFA+24] reg21=[CFA+32] reg22=[CFA+40] reg23=[CFA+48] reg24=[CFA+56] reg25=[CFA+64] reg26=[CFA+72] reg27=[CFA+80] reg28=[CFA+88] reg30=[CFA+8] reg29=[CFA]
  0x0012a23c: CFA=reg31
  0x0012a34c: CFA=reg29: reg31=reg29+16 reg19=[CFA+16] reg20=[CFA+24] reg21=[CFA+32] reg22=[CFA+40] reg27=[CFA+48] reg28=[CFA+56] reg30=[CFA+8] reg29=[CFA]
  0x0012a78c: CFA=reg29: reg31=reg29+16 reg19=[CFA+16] reg20=[CFA+24] reg30=[CFA+8] reg29=[CFA]
  0x0012aa1c: CFA=reg29: reg31=reg29+16 reg19=[CFA+16] reg20=[CFA+24] reg21=[CFA+32] reg22=[CFA+40] reg23=[CFA+48] reg24=[CFA+56] reg25=[CFA+64] reg26=[CFA+72] reg27=[CFA+80] reg28=[CFA+88] reg30=[CFA+8] reg29=[CFA]
  0x0012b0d0: CFA=reg29: reg31=reg29+16 reg19=[CFA+16] reg20=[CFA+24] reg30=[CFA+8] reg29=[CFA]
  0x0012b10c: CFA=reg29: reg31=reg29+16 reg19=[CFA+16] reg20=[CFA+24] reg30=[CFA+8] reg29=[CFA]
  0x0012b148: CFA=reg29: reg31=reg29+16 reg19=[CFA+16] reg20=[CFA+24] reg21=[CFA+32] reg22=[CFA+40] reg23=[CFA+48] reg24=[CFA+56] reg25=[CFA+64] reg26=[CFA+72] reg27=[CFA+80] reg28=[CFA+88] reg30=[CFA+8] reg29=[CFA]
  0x0012b318: CFA=reg29: reg31=reg29+16 reg19=[CFA+16] reg20=[CFA+24] reg21=[CFA+32] reg22=[CFA+40] reg23=[CFA+48] reg24=[CFA+56] reg25=[CFA+64] reg26=[CFA+72] reg27=[CFA+80] reg28=[CFA+88] reg30=[CFA+8] reg29=[CFA]
  0x0012b4e8: CFA=reg29: reg31=reg29+16 reg19=[CFA+16] reg20=[CFA+24] reg21=[CFA+32] reg22=[CFA+40] reg23=[CFA+48] reg24=[CFA+56] reg25=[CFA+64] reg26=[CFA+72] reg30=[CFA+8] reg29=[CFA]
  0x0012b6a8: CFA=reg31
  0x0012b6e4: CFA=reg29: reg31=reg29+16 reg19=[CFA+16] reg20=[CFA+24] reg21=[CFA+32] reg22=[CFA+40] reg23=[CFA+48] reg24=[CFA+56] reg25=[CFA+64] reg26=[CFA+72] reg27=[CFA+80] reg28=[CFA+88] reg30=[CFA+8] reg29=[CFA]
  0x0012dde0: CFA=reg29: reg31=reg29+16 reg19=[CFA+16] reg20=[CFA+24] reg21=[CFA+32] reg22=[CFA+40] reg27=[CFA+48] reg28=[CFA+56] reg30=[CFA+8] reg29=[CFA]
  0x0012e0b0: CFA=reg29: reg31=reg29+16 reg19=[CFA+16] reg20=[CFA+24] reg21=[CFA+32] reg22=[CFA+40] reg23=[CFA+48] reg24=[CFA+56] reg25=[CFA+64] reg26=[CFA+72] reg27=[CFA+80] reg28=[CFA+88] reg30=[CFA+8] reg29=[CFA]
  0x00132424: CFA=reg29: reg31=reg29+16 reg19=[CFA+16] reg20=[CFA+24] reg21=[CFA+32] reg22=[CFA+40] reg23=[CFA+48] reg24=[CFA+56] reg30=[CFA+8] reg29=[CFA]
  0x0013256c: CFA=reg29: reg31=reg29+16 reg19=[CFA+16] reg20=[CFA+24] reg21=[CFA+32] reg22=[CFA+40] reg30=[CFA+8] reg29=[CFA]
  0x00132618: CFA=reg29: reg31=reg29+16 reg19=[CFA+16] reg20=[CFA+24] reg30=[CFA+8] reg29=[CFA]
  0x00132664: CFA=reg29: reg31=reg29+16 reg19=[CFA+16] reg20=[CFA+24] reg30=[CFA+8] reg29=[CFA]
  0x001326ec: CFA=reg29: reg31=reg29+16 reg19=[CFA+16] reg20=[CFA+24] reg21=[CFA+32] reg22=[CFA+40] reg30=[CFA+8] reg29=[CFA]
  0x0013279c: CFA=reg29: reg31=reg29+16 reg19=[CFA+16] reg20=[CFA+24] reg21=[CFA+32] reg22=[CFA+40] reg30=[CFA+8] reg29=[CFA]
  0x0013286c: CFA=reg29: reg31=reg29+16 reg19=[CFA+16] reg20=[CFA+24] reg21=[CFA+32] reg22=[CFA+40] reg30=[CFA+8] reg29=[CFA]
  0x00132940: CFA=reg29: reg31=reg29+16 reg19=[CFA+16] reg20=[CFA+24] reg21=[CFA+32] reg22=[CFA+40] reg23=[CFA+48] reg24=[CFA+56] reg25=[CFA+64] reg26=[CFA+72] reg27=[CFA+80] reg28=[CFA+88] reg30=[CFA+8] reg29=[CFA]
  0x00132c64: CFA=reg29: reg31=reg29+16 reg19=[CFA+16] reg20=[CFA+24] reg21=[CFA+32] reg22=[CFA+40] reg23=[CFA+48] reg24=[CFA+56] reg25=[CFA+64] reg26=[CFA+72] reg30=[CFA+8] reg29=[CFA]
  0x00132f50: CFA=reg29: reg31=reg29+16 reg19=[CFA+16] reg20=[CFA+24] reg21=[CFA+32] reg22=[CFA+40] reg23=[CFA+48] reg24=[CFA+56] reg25=[CFA+64] reg26=[CFA+72] reg27=[CFA+80] reg28=[CFA+88] reg30=[CFA+8] reg29=[CFA]
  0x001337c4: CFA=reg31
  0x001337cc: CFA=reg29: reg31=reg29+16 reg19=[CFA+16] reg20=[CFA+24] reg21=[CFA+32] reg22=[CFA+40] reg23=[CFA+48] reg24=[CFA+56] reg25=[CFA+64] reg26=[CFA+72] reg27=[CFA+80] reg28=[CFA+88] reg30=[CFA+8] reg29=[CFA]
  0x00134210: CFA=reg31
  0x00134228: CFA=reg29: reg31=reg29+16 reg19=[CFA+16] reg20=[CFA+24] reg21=[CFA+32] reg22=[CFA+40] reg23=[CFA+48] reg24=[CFA+56] reg25=[CFA+64] reg26=[CFA+72] reg27=[CFA+80] reg28=[CFA+88] reg30=[CFA+8] reg29=[CFA]
  0x00134438: CFA=reg29: reg31=reg29+16 reg19=[CFA+16] reg20=[CFA+24] reg21=[CFA+32] reg22=[CFA+40] reg30=[CFA+8] reg29=[CFA]
  0x0013458c: CFA=reg29: reg31=reg29+16 reg19=[CFA+16] reg20=[CFA+24] reg21=[CFA+32] reg22=[CFA+40] reg30=[CFA+8] reg29=[CFA]
  0x001346f4: CFA=reg29: reg31=reg29+16 reg19=[CFA+16] reg20=[CFA+24] reg21=[CFA+32] reg22=[CFA+40] reg30=[CFA+8] reg29=[CFA]
  0x001348b4: CFA=reg29: reg31=reg29+16 reg19=[CFA+16] reg20=[CFA+24] reg30=[CFA+8] reg29=[CFA]
  0x001349f8: CFA=reg29: reg31=reg29+16 reg30=[CFA+8] reg29=[CFA]
  0x00134c80: CFA=reg29: reg31=reg29+16 reg19=[CFA+16] reg20=[CFA+24] reg21=[CFA+32] reg22=[CFA+40] reg30=[CFA+8] reg29=[CFA]
  0x00134dfc: CFA=reg29: reg31=reg29+16 reg19=[CFA+16] reg20=[CFA+24] reg30=[CFA+8] reg29=[CFA]
  0x0013526c: CFA=reg29: reg31=reg29+16 reg19=[CFA+16] reg20=[CFA+24] reg21=[CFA+32] reg22=[CFA+40] reg27=[CFA+48] reg28=[CFA+56] reg30=[CFA+8] reg29=[CFA]
  0x00135488: CFA=reg29: reg31=reg29+16 reg19=[CFA+16] reg20=[CFA+24] reg21=[CFA+32] reg22=[CFA+40] reg30=[CFA+8] reg29=[CFA]
  0x001356a4: CFA=reg29: reg31=reg29+16 reg19=[CFA+16] reg20=[CFA+24] reg21=[CFA+32] reg22=[CFA+40] reg23=[CFA+48] reg24=[CFA+56] reg25=[CFA+64] reg26=[CFA+72] reg27=[CFA+80] reg28=[CFA+88] reg30=[CFA+8] reg29=[CFA]
  0x001357a0: CFA=reg29: reg31=reg29+16 reg19=[CFA+16] reg20=[CFA+24] reg30=[CFA+8] reg29=[CFA]
  0x001357f8: CFA=reg29: reg31=reg29+16 reg19=[CFA+16] reg20=[CFA+24] reg21=[CFA+32] reg22=[CFA+40] reg30=[CFA+8] reg29=[CFA]
  0x00135888: CFA=reg31
  0x001358ac: CFA=reg29: reg31=reg29+16 reg19=[CFA+16] reg20=[CFA+24] reg21=[CFA+32] reg22=[CFA+40] reg23=[CFA+48] reg24=[CFA+56] reg30=[CFA+8] reg29=[CFA]
  0x00135c74: CFA=reg29: reg31=reg29+16 reg19=[CFA+16] reg20=[CFA+24] reg21=[CFA+32] reg22=[CFA+40] reg30=[CFA+8] reg29=[CFA]
  0x00135ce8: CFA=reg29: reg31=reg29+16 reg19=[CFA+16] reg20=[CFA+24] reg21=[CFA+32] reg22=[CFA+40] reg23=[CFA+48] reg24=[CFA+56] reg25=[CFA+64] reg26=[CFA+72] reg27=[CFA+80] reg28=[CFA+88] reg30=[CFA+8] reg29=[CFA]
  0x0013674c: CFA=reg29: reg31=reg29+16 reg19=[CFA+16] reg20=[CFA+24] reg30=[CFA+8] reg29=[CFA]
  0x001367b0: CFA=reg29: reg31=reg29+16 reg19=[CFA+16] reg20=[CFA+24] reg21=[CFA+32] reg22=[CFA+40] reg30=[CFA+8] reg29=[CFA]
  0x00136a7c: CFA=reg29: reg31=reg29+16 reg19=[CFA+16] reg20=[CFA+24] reg21=[CFA+32] reg22=[CFA+40] reg23=[CFA+48] reg24=[CFA+56] reg25=[CFA+64] reg26=[CFA+72] reg30=[CFA+8] reg29=[CFA]
  0x00136d94: CFA=reg31
  0x00136df0: CFA=reg29: reg31=reg29+16 reg19=[CFA+16] reg20=[CFA+24] reg21=[CFA+32] reg22=[CFA+40] reg23=[CFA+48] reg24=[CFA+56] reg30=[CFA+8] reg29=[CFA]
  0x00137030: CFA=reg29: reg31=reg29+16 reg19=[CFA+16] reg20=[CFA+24] reg21=[CFA+32] reg22=[CFA+40] reg23=[CFA+48] reg24=[CFA+56] reg25=[CFA+64] reg26=[CFA+72] reg27=[CFA+80] reg28=[CFA+88] reg30=[CFA+8] reg29=[CFA]
  0x00137428: CFA=reg29: reg31=reg29+16 reg19=[CFA+16] reg20=[CFA+24] reg21=[CFA+32] reg22=[CFA+40] reg23=[CFA+48] reg24=[CFA+56] reg25=[CFA+64] reg26=[CFA+72] reg27=[CFA+80] reg28=[CFA+88] reg30=[CFA+8] reg29=[CFA]
  0x0013763c: CFA=reg29: reg31=reg29+16 reg19=[CFA+16] reg20=[CFA+24] reg21=[CFA+32] reg22=[CFA+40] reg23=[CFA+48] reg24=[CFA+56] reg27=[CFA+64] reg28=[CFA+72] reg30=[CFA+8] reg29=[CFA]
  0x00137a58: CFA=reg29: reg31=reg29+16 reg19=[CFA+16] reg20=[CFA+24] reg21=[CFA+32] reg22=[CFA+40] reg30=[CFA+8] reg29=[CFA]
  0x00137ae4: CFA=reg31
  0x00137b04: CFA=reg29: reg31=reg29+16 reg19=[CFA+16] reg20=[CFA+24] reg30=[CFA+8] reg29=[CFA]
  0x00137b54: CFA=reg31
  0x00137b60: CFA=reg29: reg31=reg29+16 reg19=[CFA+16] reg20=[CFA+24] reg30=[CFA+8] reg29=[CFA]
  0x00137d6c: CFA=reg29: reg31=reg29+16 reg19=[CFA+16] reg20=[CFA+24] reg21=[CFA+32] reg22=[CFA+40] reg30=[CFA+8] reg29=[CFA]
  0x00137fdc: CFA=reg29: reg31=reg29+16 reg19=[CFA+16] reg20=[CFA+24] reg21=[CFA+32] reg22=[CFA+40] reg23=[CFA+48] reg24=[CFA+56] reg25=[CFA+64] reg26=[CFA+72] reg27=[CFA+80] reg28=[CFA+88] reg30=[CFA+8] reg29=[CFA]
  0x00138eac: CFA=reg29: reg31=reg29+16 reg19=[CFA+16] reg20=[CFA+24] reg21=[CFA+32] reg22=[CFA+40] reg23=[CFA+48] reg24=[CFA+56] reg30=[CFA+8] reg29=[CFA]
  0x0013911c: CFA=reg29: reg31=reg29+16 reg19=[CFA+16] reg20=[CFA+24] reg21=[CFA+32] reg22=[CFA+40] reg23=[CFA+48] reg24=[CFA+56] reg30=[CFA+8] reg29=[CFA]
  0x00139360: CFA=reg29: reg31=reg29+16 reg19=[CFA+16] reg20=[CFA+24] reg21=[CFA+32] reg22=[CFA+40] reg23=[CFA+48] reg24=[CFA+56] reg30=[CFA+8] reg29=[CFA]
  0x001394f8: CFA=reg29: reg31=reg29+16 reg19=[CFA+16] reg20=[CFA+24] reg21=[CFA+32] reg22=[CFA+40] reg23=[CFA+48] reg24=[CFA+56] reg25=[CFA+64] reg26=[CFA+72] reg27=[CFA+80] reg28=[CFA+88] reg30=[CFA+8] reg29=[CFA]
  0x00139964: CFA=reg29: reg31=reg29+16 reg19=[CFA+16] reg20=[CFA+24] reg21=[CFA+32] reg22=[CFA+40] reg23=[CFA+48] reg24=[CFA+56] reg25=[CFA+64] reg26=[CFA+72] reg30=[CFA+8] reg29=[CFA]
  0x00139b60: CFA=reg29: reg31=reg29+16 reg19=[CFA+16] reg20=[CFA+24] reg21=[CFA+32] reg22=[CFA+40] reg23=[CFA+48] reg24=[CFA+56] reg25=[CFA+64] reg26=[CFA+72] reg27=[CFA+80] reg28=[CFA+88] reg30=[CFA+8] reg29=[CFA]
  0x0013a220: CFA=reg29: reg31=reg29+16 reg19=[CFA+16] reg20=[CFA+24] reg30=[CFA+8] reg29=[CFA]
  0x0013a284: CFA=reg31
  0x0013a38c: CFA=reg29: reg31=reg29+16 reg19=[CFA+16] reg20=[CFA+24] reg21=[CFA+32] reg22=[CFA+40] reg30=[CFA+8] reg29=[CFA]
  0x0013a43c: CFA=reg29: reg31=reg29+16 reg19=[CFA+16] reg20=[CFA+24] reg21=[CFA+32] reg22=[CFA+40] reg23=[CFA+48] reg24=[CFA+56] reg25=[CFA+64] reg26=[CFA+72] reg27=[CFA+80] reg28=[CFA+88] reg14=[CFA+96] reg15=[CFA+104] reg30=[CFA+8] reg29=[CFA]
  0x0013accc: CFA=reg29: reg31=reg29+16 reg19=[CFA+16] reg20=[CFA+24] reg21=[CFA+32] reg22=[CFA+40] reg23=[CFA+48] reg24=[CFA+56] reg25=[CFA+64] reg26=[CFA+72] reg27=[CFA+80] reg28=[CFA+88] reg30=[CFA+8] reg29=[CFA]
  0x0013b050: CFA=reg29: reg31=reg29+16 reg19=[CFA+16] reg20=[CFA+24] reg21=[CFA+32] reg22=[CFA+40] reg23=[CFA+48] reg24=[CFA+56] reg25=[CFA+64] reg26=[CFA+72] reg27=[CFA+80] reg28=[CFA+88] reg30=[CFA+8] reg29=[CFA]
  0x0013b3cc: CFA=reg29: reg31=reg29+16 reg19=[CFA+16] reg20=[CFA+24] reg21=[CFA+32] reg22=[CFA+40] reg23=[CFA+48] reg24=[CFA+56] reg30=[CFA+8] reg29=[CFA]
  0x0013b518: CFA=reg29: reg31=reg29+16 reg19=[CFA+16] reg20=[CFA+24] reg21=[CFA+32] reg22=[CFA+40] reg23=[CFA+48] reg24=[CFA+56] reg25=[CFA+64] reg26=[CFA+72] reg27=[CFA+80] reg28=[CFA+88] reg30=[CFA+8] reg29=[CFA]
  0x0013b72c: CFA=reg29: reg31=reg29+16 reg19=[CFA+16] reg20=[CFA+24] reg21=[CFA+32] reg22=[CFA+40] reg23=[CFA+48] reg24=[CFA+56] reg30=[CFA+8] reg29=[CFA]
  0x0013b908: CFA=reg29: reg31=reg29+16 reg19=[CFA+16] reg20=[CFA+24] reg21=[CFA+32] reg22=[CFA+40] reg23=[CFA+48] reg24=[CFA+56] reg30=[CFA+8] reg29=[CFA]
  0x0013bacc: CFA=reg29: reg31=reg29+16 reg19=[CFA+16] reg20=[CFA+24] reg21=[CFA+32] reg22=[CFA+40] reg23=[CFA+48] reg24=[CFA+56] reg25=[CFA+64] reg26=[CFA+72] reg30=[CFA+8] reg29=[CFA]
  0x0013bc40: CFA=reg31
  0x0013bc80: CFA=reg29: reg31=reg29+16 reg30=[CFA+8] reg29=[CFA]
  0x0013bd04: CFA=reg29: reg31=reg29+16 reg19=[CFA+16] reg20=[CFA+24] reg21=[CFA+32] reg22=[CFA+40] reg23=[CFA+48] reg24=[CFA+56] reg25=[CFA+64] reg26=[CFA+72] reg27=[CFA+80] reg28=[CFA+88] reg30=[CFA+8] reg29=[CFA]
  0x0013c33c: CFA=reg29: reg31=reg29+16 reg19=[CFA+16] reg20=[CFA+24] reg21=[CFA+32] reg22=[CFA+40] reg30=[CFA+8] reg29=[CFA]
  0x0013c420: CFA=reg29: reg31=reg29+16 reg19=[CFA+16] reg20=[CFA+24] reg21=[CFA+32] reg22=[CFA+40] reg23=[CFA+48] reg24=[CFA+56] reg30=[CFA+8] reg29=[CFA]
  0x0013c530: CFA=reg31
  0x0013c54c: CFA=reg29: reg31=reg29+16 reg19=[CFA+16] reg20=[CFA+24] reg21=[CFA+32] reg22=[CFA+40] reg23=[CFA+48] reg24=[CFA+56] reg25=[CFA+64] reg26=[CFA+72] reg27=[CFA+80] reg28=[CFA+88] reg30=[CFA+8] reg29=[CFA]
  0x0013c8f4: CFA=reg29: reg31=reg29+16 reg19=[CFA+16] reg20=[CFA+24] reg21=[CFA+32] reg22=[CFA+40] reg23=[CFA+48] reg24=[CFA+56] reg25=[CFA+64] reg26=[CFA+72] reg27=[CFA+80] reg28=[CFA+88] reg30=[CFA+8] reg29=[CFA]
  0x0013ce14: CFA=reg29: reg31=reg29+16 reg19=[CFA+16] reg20=[CFA+24] reg21=[CFA+32] reg22=[CFA+40] reg23=[CFA+48] reg24=[CFA+56] reg25=[CFA+64] reg26=[CFA+72] reg27=[CFA+80] reg28=[CFA+88] reg30=[CFA+8] reg29=[CFA]
  0x0013d25c: CFA=reg29: reg31=reg29+16 reg19=[CFA+16] reg20=[CFA+24] reg21=[CFA+32] reg22=[CFA+40] reg23=[CFA+48] reg24=[CFA+56] reg25=[CFA+64] reg26=[CFA+72] reg27=[CFA+80] reg28=[CFA+88] reg30=[CFA+8] reg29=[CFA]
  0x0013d88c: CFA=reg31
  0x0013d8bc: CFA=reg29: reg31=reg29+16 reg19=[CFA+16] reg20=[CFA+24] reg21=[CFA+32] reg22=[CFA+40] reg30=[CFA+8] reg29=[CFA]
  0x0013db40: CFA=reg29: reg31=reg29+16 reg19=[CFA+16] reg20=[CFA+24] reg21=[CFA+32] reg22=[CFA+40] reg23=[CFA+48] reg24=[CFA+56] reg30=[CFA+8] reg29=[CFA]
  0x0013de68: CFA=reg29: reg31=reg29+16 reg30=[CFA+8] reg29=[CFA]
  0x0013e368: CFA=reg29: reg31=reg29+16 reg19=[CFA+16] reg20=[CFA+24] reg21=[CFA+32] reg22=[CFA+40] reg30=[CFA+8] reg29=[CFA]
  0x0013e958: CFA=reg29: reg31=reg29+16 reg19=[CFA+16] reg20=[CFA+24] reg21=[CFA+32] reg22=[CFA+40] reg23=[CFA+48] reg24=[CFA+56] reg25=[CFA+64] reg26=[CFA+72] reg27=[CFA+80] reg28=[CFA+88] reg30=[CFA+8] reg29=[CFA]
  0x0013ec90: CFA=reg29: reg31=reg29+16 reg19=[CFA+16] reg20=[CFA+24] reg30=[CFA+8] reg29=[CFA]
  0x0013ed80: CFA=reg31
  0x0013ed90: CFA=reg29: reg31=reg29+16 reg19=[CFA+16] reg20=[CFA+24] reg30=[CFA+8] reg29=[CFA]
  0x0013edec: CFA=reg29: reg31=reg29+16 reg19=[CFA+16] reg20=[CFA+24] reg21=[CFA+32] reg22=[CFA+40] reg23=[CFA+48] reg24=[CFA+56] reg25=[CFA+64] reg26=[CFA+72] reg27=[CFA+80] reg28=[CFA+88] reg30=[CFA+8] reg29=[CFA]
  0x0013f028: CFA=reg31
  0x0013f040: CFA=reg29: reg31=reg29+16 reg19=[CFA+16] reg20=[CFA+24] reg21=[CFA+32] reg22=[CFA+40] reg23=[CFA+48] reg24=[CFA+56] reg25=[CFA+64] reg26=[CFA+72] reg27=[CFA+80] reg28=[CFA+88] reg30=[CFA+8] reg29=[CFA]
  0x0013f300: CFA=reg29: reg31=reg29+16 reg19=[CFA+16] reg20=[CFA+24] reg21=[CFA+32] reg22=[CFA+40] reg30=[CFA+8] reg29=[CFA]
  0x0013f3d8: CFA=reg31
  0x0013f43c: CFA=reg29: reg31=reg29+16 reg30=[CFA+8] reg29=[CFA]
  0x0013f550: CFA=reg29: reg31=reg29+16 reg19=[CFA+16] reg20=[CFA+24] reg21=[CFA+32] reg22=[CFA+40] reg23=[CFA+48] reg24=[CFA+56] reg25=[CFA+64] reg26=[CFA+72] reg27=[CFA+80] reg28=[CFA+88] reg30=[CFA+8] reg29=[CFA]
  0x00140a30: CFA=reg29: reg31=reg29+16 reg19=[CFA+16] reg20=[CFA+24] reg21=[CFA+32] reg22=[CFA+40] reg30=[CFA+8] reg29=[CFA]
  0x00140b1c: CFA=reg29: reg31=reg29+16 reg19=[CFA+16] reg20=[CFA+24] reg21=[CFA+32] reg22=[CFA+40] reg23=[CFA+48] reg24=[CFA+56] reg25=[CFA+64] reg26=[CFA+72] reg27=[CFA+80] reg28=[CFA+88] reg30=[CFA+8] reg29=[CFA]
  0x00141a24: CFA=reg31
  0x00141ae4: CFA=reg29: reg31=reg29+16 reg19=[CFA+16] reg20=[CFA+24] reg30=[CFA+8] reg29=[CFA]
  0x00141bc8: CFA=reg29: reg31=reg29+16 reg30=[CFA+8] reg29=[CFA]
  0x00141bec: CFA=reg29: reg31=reg29+16 reg19=[CFA+16] reg20=[CFA+24] reg30=[CFA+8] reg29=[CFA]
  0x00141c38: CFA=reg29: reg31=reg29+16 reg19=[CFA+16] reg20=[CFA+24] reg21=[CFA+32] reg22=[CFA+40] reg23=[CFA+48] reg24=[CFA+56] reg25=[CFA+64] reg26=[CFA+72] reg30=[CFA+8] reg29=[CFA]
  0x00141e08: CFA=reg29: reg31=reg29+16 reg19=[CFA+16] reg20=[CFA+24] reg30=[CFA+8] reg29=[CFA]
  0x00141f6c: CFA=reg31
  0x001420c8: CFA=reg29: reg31=reg29+16 reg19=[CFA+16] reg20=[CFA+24] reg30=[CFA+8] reg29=[CFA]
  0x00142774: CFA=reg29: reg31=reg29+16 reg19=[CFA+16] reg20=[CFA+24] reg21=[CFA+32] reg22=[CFA+40] reg30=[CFA+8] reg29=[CFA]
  0x001429e8: CFA=reg29: reg31=reg29+16 reg19=[CFA+16] reg20=[CFA+24] reg21=[CFA+32] reg22=[CFA+40] reg23=[CFA+48] reg24=[CFA+56] reg25=[CFA+64] reg26=[CFA+72] reg30=[CFA+8] reg29=[CFA]
  0x00143220: CFA=reg29: reg31=reg29+16 reg19=[CFA+16] reg20=[CFA+24] reg21=[CFA+32] reg22=[CFA+40] reg30=[CFA+8] reg29=[CFA]
  0x0014344c: CFA=reg31
  0x00143458: CFA=reg29: reg31=reg29+16 reg19=[CFA+16] reg20=[CFA+24] reg30=[CFA+8] reg29=[CFA]
  0x00143564: CFA=reg29: reg31=reg29+16 reg19=[CFA+16] reg20=[CFA+24] reg21=[CFA+32] reg22=[CFA+40] reg30=[CFA+8] reg29=[CFA]
  0x001436b8: CFA=reg29: reg31=reg29+16 reg19=[CFA+16] reg20=[CFA+24] reg30=[CFA+8] reg29=[CFA]
  0x001436f4: CFA=reg29: reg31=reg29+16 reg19=[CFA+16] reg20=[CFA+24] reg21=[CFA+32] reg22=[CFA+40] reg23=[CFA+48] reg24=[CFA+56] reg25=[CFA+64] reg26=[CFA+72] reg27=[CFA+80] reg28=[CFA+88] reg30=[CFA+8] reg29=[CFA]
  0x00143a88: CFA=reg29: reg31=reg29+16 reg19=[CFA+16] reg20=[CFA+24] reg21=[CFA+32] reg22=[CFA+40] reg30=[CFA+8] reg29=[CFA]
  0x00143c4c: CFA=reg29: reg31=reg29+16 reg19=[CFA+16] reg20=[CFA+24] reg21=[CFA+32] reg22=[CFA+40] reg23=[CFA+48] reg24=[CFA+56] reg30=[CFA+8] reg29=[CFA]
  0x00143e84: CFA=reg29: reg31=reg29+16 reg19=[CFA+16] reg20=[CFA+24] reg21=[CFA+32] reg22=[CFA+40] reg30=[CFA+8] reg29=[CFA]
  0x00143f84: CFA=reg29: reg31=reg29+16 reg19=[CFA+16] reg20=[CFA+24] reg21=[CFA+32] reg22=[CFA+40] reg23=[CFA+48] reg24=[CFA+56] reg30=[CFA+8] reg29=[CFA]
  0x001440e8: CFA=reg29: reg31=reg29+16 reg19=[CFA+16] reg20=[CFA+24] reg21=[CFA+32] reg22=[CFA+40] reg23=[CFA+48] reg24=[CFA+56] reg25=[CFA+64] reg26=[CFA+72] reg27=[CFA+80] reg28=[CFA+88] reg30=[CFA+8] reg29=[CFA]
  0x00144710: CFA=reg29: reg31=reg29+16 reg19=[CFA+16] reg20=[CFA+24] reg21=[CFA+32] reg22=[CFA+40] reg23=[CFA+48] reg24=[CFA+56] reg25=[CFA+64] reg26=[CFA+72] reg27=[CFA+80] reg28=[CFA+88] reg30=[CFA+8] reg29=[CFA]
  0x0014504c: CFA=reg29: reg31=reg29+16 reg19=[CFA+16] reg20=[CFA+24] reg21=[CFA+32] reg22=[CFA+40] reg30=[CFA+8] reg29=[CFA]
  0x00145134: CFA=reg29: reg31=reg29+16 reg19=[CFA+16] reg20=[CFA+24] reg30=[CFA+8] reg29=[CFA]
  0x001451d8: CFA=reg31
  0x001451f4: CFA=reg29: reg31=reg29+16 reg19=[CFA+16] reg20=[CFA+24] reg21=[CFA+32] reg22=[CFA+40] reg30=[CFA+8] reg29=[CFA]
  0x00145340: CFA=reg29: reg31=reg29+16 reg19=[CFA+16] reg20=[CFA+24] reg30=[CFA+8] reg29=[CFA]
  0x001453d8: CFA=reg31
  0x001453f0: CFA=reg29: reg31=reg29+16 reg19=[CFA+16] reg20=[CFA+24] reg30=[CFA+8] reg29=[CFA]
  0x00145450: CFA=reg29: reg31=reg29+16 reg19=[CFA+16] reg20=[CFA+24] reg21=[CFA+32] reg22=[CFA+40] reg23=[CFA+48] reg24=[CFA+56] reg25=[CFA+64] reg26=[CFA+72] reg27=[CFA+80] reg28=[CFA+88] reg30=[CFA+8] reg29=[CFA]
  0x001458f8: CFA=reg31
  0x00145a20: CFA=reg29: reg31=reg29+16 reg19=[CFA+16] reg20=[CFA+24] reg30=[CFA+8] reg29=[CFA]
  0x00145db8: CFA=reg29: reg31=reg29+16 reg19=[CFA+16] reg20=[CFA+24] reg21=[CFA+32] reg22=[CFA+40] reg30=[CFA+8] reg29=[CFA]
  0x001463c8: CFA=reg29: reg31=reg29+16 reg19=[CFA+16] reg20=[CFA+24] reg30=[CFA+8] reg29=[CFA]
  0x001464b0: CFA=reg29: reg31=reg29+16 reg19=[CFA+16] reg20=[CFA+24] reg30=[CFA+8] reg29=[CFA]
  0x00146510: CFA=reg29: reg31=reg29+16 reg19=[CFA+16] reg20=[CFA+24] reg21=[CFA+32] reg22=[CFA+40] reg23=[CFA+48] reg24=[CFA+56] reg25=[CFA+64] reg26=[CFA+72] reg27=[CFA+80] reg28=[CFA+88] reg30=[CFA+8] reg29=[CFA]
  0x00146c4c: CFA=reg29: reg31=reg29+16 reg19=[CFA+16] reg20=[CFA+24] reg21=[CFA+32] reg22=[CFA+40] reg30=[CFA+8] reg29=[CFA]
  0x00146d04: CFA=reg29: reg31=reg29+16 reg19=[CFA+16] reg20=[CFA+24] reg21=[CFA+32] reg22=[CFA+40] reg23=[CFA+48] reg24=[CFA+56] reg25=[CFA+64] reg26=[CFA+72] reg27=[CFA+80] reg28=[CFA+88] reg30=[CFA+8] reg29=[CFA]
  0x00147150: CFA=reg29: reg31=reg29+16 reg19=[CFA+16] reg20=[CFA+24] reg21=[CFA+32] reg22=[CFA+40] reg23=[CFA+48] reg24=[CFA+56] reg25=[CFA+64] reg26=[CFA+72] reg27=[CFA+80] reg28=[CFA+88] reg30=[CFA+8] reg29=[CFA]
  0x001478f0: CFA=reg29: reg31=reg29+16 reg19=[CFA+16] reg20=[CFA+24] reg21=[CFA+32] reg22=[CFA+40] reg23=[CFA+48] reg24=[CFA+56] reg25=[CFA+64] reg26=[CFA+72] reg27=[CFA+80] reg28=[CFA+88] reg30=[CFA+8] reg29=[CFA]
  0x00147d24: CFA=reg29: reg31=reg29+16 reg19=[CFA+16] reg20=[CFA+24] reg21=[CFA+32] reg22=[CFA+40] reg23=[CFA+48] reg24=[CFA+56] reg30=[CFA+8] reg29=[CFA]
  0x00147ef8: CFA=reg29: reg31=reg29+16 reg19=[CFA+16] reg20=[CFA+24] reg21=[CFA+32] reg22=[CFA+40] reg23=[CFA+48] reg24=[CFA+56] reg30=[CFA+8] reg29=[CFA]
  0x00147ff8: CFA=reg29: reg31=reg29+16 reg19=[CFA+16] reg20=[CFA+24] reg21=[CFA+32] reg22=[CFA+40] reg30=[CFA+8] reg29=[CFA]
  0x00148238: CFA=reg31
  0x00148244: CFA=reg29: reg31=reg29+16 reg19=[CFA+16] reg20=[CFA+24] reg21=[CFA+32] reg22=[CFA+40] reg30=[CFA+8] reg29=[CFA]
  0x0014837c: CFA=reg29: reg31=reg29+16 reg19=[CFA+16] reg20=[CFA+24] reg21=[CFA+32] reg22=[CFA+40] reg23=[CFA+48] reg24=[CFA+56] reg25=[CFA+64] reg26=[CFA+72] reg27=[CFA+80] reg28=[CFA+88] reg30=[CFA+8] reg29=[CFA]
  0x00148608: CFA=reg31
  0x00148630: CFA=reg29: reg31=reg29+16 reg19=[CFA+16] reg20=[CFA+24] reg21=[CFA+32] reg22=[CFA+40] reg30=[CFA+8] reg29=[CFA]
  0x001486e8: CFA=reg29: reg31=reg29+16 reg19=[CFA+16] reg20=[CFA+24] reg21=[CFA+32] reg22=[CFA+40] reg23=[CFA+48] reg24=[CFA+56] reg25=[CFA+64] reg26=[CFA+72] reg27=[CFA+80] reg28=[CFA+88] reg30=[CFA+8] reg29=[CFA]
  0x001487fc: CFA=reg29: reg31=reg29+16 reg19=[CFA+16] reg20=[CFA+24] reg21=[CFA+32] reg22=[CFA+40] reg30=[CFA+8] reg29=[CFA]
  0x0014887c: CFA=reg29: reg31=reg29+16 reg19=[CFA+16] reg20=[CFA+24] reg21=[CFA+32] reg22=[CFA+40] reg23=[CFA+48] reg24=[CFA+56] reg25=[CFA+64] reg26=[CFA+72] reg27=[CFA+80] reg28=[CFA+88] reg30=[CFA+8] reg29=[CFA]
  0x001489e8: CFA=reg29: reg31=reg29+16 reg19=[CFA+16] reg20=[CFA+24] reg21=[CFA+32] reg22=[CFA+40] reg23=[CFA+48] reg24=[CFA+56] reg25=[CFA+64] reg26=[CFA+72] reg27=[CFA+80] reg28=[CFA+88] reg30=[CFA+8] reg29=[CFA]
  0x00148b1c: CFA=reg29: reg31=reg29+16 reg19=[CFA+16] reg20=[CFA+24] reg21=[CFA+32] reg22=[CFA+40] reg30=[CFA+8] reg29=[CFA]
  0x00148b8c: CFA=reg29: reg31=reg29+16 reg19=[CFA+16] reg20=[CFA+24] reg21=[CFA+32] reg22=[CFA+40] reg23=[CFA+48] reg24=[CFA+56] reg25=[CFA+64] reg26=[CFA+72] reg27=[CFA+80] reg28=[CFA+88] reg30=[CFA+8] reg29=[CFA]
  0x00148cf8: CFA=reg29: reg31=reg29+16 reg19=[CFA+16] reg20=[CFA+24] reg21=[CFA+32] reg22=[CFA+40] reg30=[CFA+8] reg29=[CFA]
  0x00148de8: CFA=reg29: reg31=reg29+16 reg19=[CFA+16] reg20=[CFA+24] reg21=[CFA+32] reg22=[CFA+40] reg23=[CFA+48] reg24=[CFA+56] reg30=[CFA+8] reg29=[CFA]
  0x00148eb0: CFA=reg29: reg31=reg29+16 reg19=[CFA+16] reg20=[CFA+24] reg21=[CFA+32] reg22=[CFA+40] reg23=[CFA+48] reg24=[CFA+56] reg30=[CFA+8] reg29=[CFA]
  0x00149010: CFA=reg29: reg31=reg29+16 reg19=[CFA+16] reg20=[CFA+24] reg21=[CFA+32] reg22=[CFA+40] reg23=[CFA+48] reg24=[CFA+56] reg30=[CFA+8] reg29=[CFA]
  0x001492b0: CFA=reg29: reg31=reg29+16 reg19=[CFA+16] reg20=[CFA+24] reg30=[CFA+8] reg29=[CFA]
  0x00149324: CFA=reg29: reg31=reg29+16 reg19=[CFA+16] reg20=[CFA+24] reg21=[CFA+32] reg22=[CFA+40] reg30=[CFA+8] reg29=[CFA]
  0x001493d4: CFA=reg31
  0x001493f8: CFA=reg29: reg31=reg29+16 reg19=[CFA+16] reg20=[CFA+24] reg30=[CFA+8] reg29=[CFA]
  0x001494c0: CFA=reg29: reg31=reg29+16 reg19=[CFA+16] reg20=[CFA+24] reg30=[CFA+8] reg29=[CFA]
  0x001494fc: CFA=reg29: reg31=reg29+16 reg19=[CFA+16] reg20=[CFA+24] reg21=[CFA+32] reg22=[CFA+40] reg30=[CFA+8] reg29=[CFA]
  0x001495ac: CFA=reg29: reg31=reg29+16 reg19=[CFA+16] reg20=[CFA+24] reg21=[CFA+32] reg22=[CFA+40] reg23=[CFA+48] reg24=[CFA+56] reg30=[CFA+8] reg29=[CFA]
  0x00149738: CFA=reg29: reg31=reg29+16 reg19=[CFA+16] reg20=[CFA+24] reg30=[CFA+8] reg29=[CFA]
  0x00149828: CFA=reg29: reg31=reg29+16 reg19=[CFA+16] reg20=[CFA+24] reg21=[CFA+32] reg22=[CFA+40] reg30=[CFA+8] reg29=[CFA]
  0x001498b0: CFA=reg29: reg31=reg29+16 reg19=[CFA+16] reg20=[CFA+24] reg21=[CFA+32] reg22=[CFA+40] reg23=[CFA+48] reg24=[CFA+56] reg30=[CFA+8] reg29=[CFA]
  0x001499e0: CFA=reg29: reg31=reg29+16 reg19=[CFA+16] reg20=[CFA+24] reg30=[CFA+8] reg29=[CFA]
  0x00149a48: CFA=reg29: reg31=reg29+16 reg19=[CFA+16] reg20=[CFA+24] reg30=[CFA+8] reg29=[CFA]
  0x00149b38: CFA=reg29: reg31=reg29+16 reg19=[CFA+16] reg20=[CFA+24] reg21=[CFA+32] reg22=[CFA+40] reg23=[CFA+48] reg24=[CFA+56] reg25=[CFA+64] reg26=[CFA+72] reg30=[CFA+8] reg29=[CFA]
  0x00149d3c: CFA=reg29: reg31=reg29+16 reg19=[CFA+16] reg20=[CFA+24] reg21=[CFA+32] reg22=[CFA+40] reg23=[CFA+48] reg24=[CFA+56] reg30=[CFA+8] reg29=[CFA]
  0x00149f18: CFA=reg29: reg31=reg29+16 reg19=[CFA+16] reg20=[CFA+24] reg21=[CFA+32] reg22=[CFA+40] reg23=[CFA+48] reg24=[CFA+56] reg30=[CFA+8] reg29=[CFA]
  0x0014a0dc: CFA=reg31
  0x0014a130: CFA=reg29: reg31=reg29+16 reg30=[CFA+8] reg29=[CFA]
  0x0014a3b8: CFA=reg29: reg31=reg29+16 reg19=[CFA+16] reg20=[CFA+24] reg30=[CFA+8] reg29=[CFA]
  0x0014a4cc: CFA=reg29: reg31=reg29+16 reg19=[CFA+16] reg20=[CFA+24] reg21=[CFA+32] reg22=[CFA+40] reg30=[CFA+8] reg29=[CFA]
  0x0014a5f8: CFA=reg29: reg31=reg29+16 reg19=[CFA+16] reg20=[CFA+24] reg21=[CFA+32] reg22=[CFA+40] reg23=[CFA+48] reg24=[CFA+56] reg25=[CFA+64] reg26=[CFA+72] reg30=[CFA+8] reg29=[CFA]
  0x0014a93c: CFA=reg29: reg31=reg29+16 reg19=[CFA+16] reg20=[CFA+24] reg21=[CFA+32] reg22=[CFA+40] reg23=[CFA+48] reg24=[CFA+56] reg30=[CFA+8] reg29=[CFA]
  0x0014acd4: CFA=reg29: reg31=reg29+16 reg19=[CFA+16] reg20=[CFA+24] reg21=[CFA+32] reg22=[CFA+40] reg23=[CFA+48] reg24=[CFA+56] reg25=[CFA+64] reg26=[CFA+72] reg27=[CFA+80] reg28=[CFA+88] reg30=[CFA+8] reg29=[CFA]
  0x0014af24: CFA=reg31
  0x0014af5c: CFA=reg29: reg31=reg29+16 reg19=[CFA+16] reg20=[CFA+24] reg21=[CFA+32] reg22=[CFA+40] reg23=[CFA+48] reg24=[CFA+56] reg25=[CFA+64] reg26=[CFA+72] reg27=[CFA+80] reg28=[CFA+88] reg30=[CFA+8] reg29=[CFA]
  0x0014b174: CFA=reg29: reg31=reg29+16 reg19=[CFA+16] reg20=[CFA+24] reg30=[CFA+8] reg29=[CFA]
  0x0014b1b8: CFA=reg29: reg31=reg29+16 reg19=[CFA+16] reg20=[CFA+24] reg21=[CFA+32] reg22=[CFA+40] reg23=[CFA+48] reg24=[CFA+56] reg25=[CFA+64] reg26=[CFA+72] reg27=[CFA+80] reg28=[CFA+88] reg30=[CFA+8] reg29=[CFA]
  0x0014c15c: CFA=reg29: reg31=reg29+16 reg19=[CFA+16] reg20=[CFA+24] reg21=[CFA+32] reg22=[CFA+40] reg30=[CFA+8] reg29=[CFA]
  0x0014c1fc: CFA=reg29: reg31=reg29+16 reg19=[CFA+16] reg20=[CFA+24] reg21=[CFA+32] reg22=[CFA+40] reg23=[CFA+48] reg24=[CFA+56] reg25=[CFA+64] reg26=[CFA+72] reg27=[CFA+80] reg28=[CFA+88] reg30=[CFA+8] reg29=[CFA]
  0x0014c438: CFA=reg29: reg31=reg29+16 reg19=[CFA+16] reg20=[CFA+24] reg21=[CFA+32] reg22=[CFA+40] reg23=[CFA+48] reg24=[CFA+56] reg30=[CFA+8] reg29=[CFA]
  0x0014c5b0: CFA=reg29: reg31=reg29+16 reg19=[CFA+16] reg20=[CFA+24] reg21=[CFA+32] reg22=[CFA+40] reg23=[CFA+48] reg24=[CFA+56] reg25=[CFA+64] reg26=[CFA+72] reg27=[CFA+80] reg28=[CFA+88] reg30=[CFA+8] reg29=[CFA]
  0x0014c708: CFA=reg31
  0x0014c778: CFA=reg29: reg31=reg29+16 reg30=[CFA+8] reg29=[CFA]
  0x0014c7dc: CFA=reg31
  0x0014c824: CFA=reg29: reg31=reg29+16 reg30=[CFA+8] reg29=[CFA]
  0x0014c8d4: CFA=reg29: reg31=reg29+16 reg19=[CFA+16] reg20=[CFA+24] reg21=[CFA+32] reg22=[CFA+40] reg23=[CFA+48] reg24=[CFA+56] reg27=[CFA+64] reg28=[CFA+72] reg30=[CFA+8] reg29=[CFA]
  0x0014cb54: CFA=reg29: reg31=reg29+16 reg19=[CFA+16] reg20=[CFA+24] reg21=[CFA+32] reg22=[CFA+40] reg23=[CFA+48] reg24=[CFA+56] reg25=[CFA+64] reg26=[CFA+72] reg30=[CFA+8] reg29=[CFA]
  0x0014cd08: CFA=reg29: reg31=reg29+16 reg19=[CFA+16] reg20=[CFA+24] reg30=[CFA+8] reg29=[CFA]
  0x0014cd54: CFA=reg29: reg31=reg29+16 reg19=[CFA+16] reg20=[CFA+24] reg21=[CFA+32] reg22=[CFA+40] reg23=[CFA+48] reg24=[CFA+56] reg25=[CFA+64] reg26=[CFA+72] reg27=[CFA+80] reg28=[CFA+88] reg30=[CFA+8] reg29=[CFA]
  0x0014cf9c: CFA=reg29: reg31=reg29+16 reg19=[CFA+16] reg20=[CFA+24] reg21=[CFA+32] reg22=[CFA+40] reg23=[CFA+48] reg24=[CFA+56] reg25=[CFA+64] reg26=[CFA+72] reg27=[CFA+80] reg28=[CFA+88] reg30=[CFA+8] reg29=[CFA]
  0x0014d5c4: CFA=reg29: reg31=reg29+16 reg19=[CFA+16] reg20=[CFA+24] reg21=[CFA+32] reg22=[CFA+40] reg23=[CFA+48] reg24=[CFA+56] reg25=[CFA+64] reg26=[CFA+72] reg27=[CFA+80] reg28=[CFA+88] reg30=[CFA+8] reg29=[CFA]
  0x0014d6fc: CFA=reg29: reg31=reg29+16 reg19=[CFA+16] reg20=[CFA+24] reg21=[CFA+32] reg22=[CFA+40] reg23=[CFA+48] reg24=[CFA+56] reg25=[CFA+64] reg26=[CFA+72] reg27=[CFA+80] reg28=[CFA+88] reg30=[CFA+8] reg29=[CFA]
  0x0014db5c: CFA=reg29: reg31=reg29+16 reg19=[CFA+16] reg20=[CFA+24] reg21=[CFA+32] reg22=[CFA+40] reg23=[CFA+48] reg24=[CFA+56] reg25=[CFA+64] reg26=[CFA+72] reg27=[CFA+80] reg28=[CFA+88] reg30=[CFA+8] reg29=[CFA]
  0x0014e120: CFA=reg31
  0x0014e148: CFA=reg29: reg31=reg29+16 reg19=[CFA+16] reg20=[CFA+24] reg21=[CFA+32] reg22=[CFA+40] reg23=[CFA+48] reg24=[CFA+56] reg25=[CFA+64] reg26=[CFA+72] reg27=[CFA+80] reg28=[CFA+88] reg30=[CFA+8] reg29=[CFA]
  0x0014e9b4: CFA=reg29: reg31=reg29+16 reg30=[CFA+8] reg29=[CFA]
  0x0014ec6c: CFA=reg29: reg31=reg29+16 reg19=[CFA+16] reg20=[CFA+24] reg30=[CFA+8] reg29=[CFA]
  0x0014ee74: CFA=reg29: reg31=reg29+16 reg30=[CFA+8] reg29=[CFA]
  0x0014eed8: CFA=reg31
  0x0014eee0: CFA=reg29: reg31=reg29+16 reg19=[CFA+16] reg20=[CFA+24] reg21=[CFA+32] reg22=[CFA+40] reg23=[CFA+48] reg24=[CFA+56] reg25=[CFA+64] reg26=[CFA+72] reg27=[CFA+80] reg28=[CFA+88] reg30=[CFA+8] reg29=[CFA]
  0x0014fa10: CFA=reg29: reg31=reg29+16 reg19=[CFA+16] reg20=[CFA+24] reg21=[CFA+32] reg22=[CFA+40] reg23=[CFA+48] reg24=[CFA+56] reg25=[CFA+64] reg26=[CFA+72] reg27=[CFA+80] reg28=[CFA+88] reg30=[CFA+8] reg29=[CFA]
  0x00150664: CFA=reg29: reg31=reg29+16 reg19=[CFA+16] reg20=[CFA+24] reg21=[CFA+32] reg22=[CFA+40] reg30=[CFA+8] reg29=[CFA]
  0x00150700: CFA=reg31
  0x0015074c: CFA=reg29: reg31=reg29+16 reg19=[CFA+16] reg20=[CFA+24] reg21=[CFA+32] reg22=[CFA+40] reg23=[CFA+48] reg24=[CFA+56] reg25=[CFA+64] reg26=[CFA+72] reg27=[CFA+80] reg28=[CFA+88] reg30=[CFA+8] reg29=[CFA]
  0x00150870: CFA=reg29: reg31=reg29+16 reg19=[CFA+16] reg20=[CFA+24] reg21=[CFA+32] reg22=[CFA+40] reg30=[CFA+8] reg29=[CFA]
  0x00150994: CFA=reg29: reg31=reg29+16 reg19=[CFA+16] reg20=[CFA+24] reg21=[CFA+32] reg22=[CFA+40] reg30=[CFA+8] reg29=[CFA]
  0x00150adc: CFA=reg29: reg31=reg29+16 reg19=[CFA+16] reg20=[CFA+24] reg21=[CFA+32] reg22=[CFA+40] reg30=[CFA+8] reg29=[CFA]
  0x00150d14: CFA=reg31
  0x00150d28: CFA=reg29: reg31=reg29+16 reg19=[CFA+16] reg20=[CFA+24] reg21=[CFA+32] reg22=[CFA+40] reg30=[CFA+8] reg29=[CFA]
  0x00150e30: CFA=reg29: reg31=reg29+16 reg19=[CFA+16] reg20=[CFA+24] reg21=[CFA+32] reg22=[CFA+40] reg23=[CFA+48] reg24=[CFA+56] reg25=[CFA+64] reg26=[CFA+72] reg27=[CFA+80] reg28=[CFA+88] reg14=[CFA+96] reg15=[CFA+104] reg30=[CFA+8] reg29=[CFA]
  0x001576d4: CFA=reg29: reg31=reg29+16 reg19=[CFA+16] reg20=[CFA+24] reg21=[CFA+32] reg22=[CFA+40] reg23=[CFA+48] reg24=[CFA+56] reg25=[CFA+64] reg26=[CFA+72] reg30=[CFA+8] reg29=[CFA]
  0x001579f0: CFA=reg29: reg31=reg29+16 reg19=[CFA+16] reg20=[CFA+24] reg21=[CFA+32] reg22=[CFA+40] reg30=[CFA+8] reg29=[CFA]
  0x00157a68: CFA=reg29: reg31=reg29+16 reg19=[CFA+16] reg20=[CFA+24] reg30=[CFA+8] reg29=[CFA]
  0x00157aa0: CFA=reg31
  0x00157ad4: CFA=reg29: reg31=reg29+16 reg19=[CFA+16] reg20=[CFA+24] reg21=[CFA+32] reg22=[CFA+40] reg30=[CFA+8] reg29=[CFA]
  0x00157b80: CFA=reg29: reg31=reg29+16 reg19=[CFA+16] reg20=[CFA+24] reg21=[CFA+32] reg22=[CFA+40] reg30=[CFA+8] reg29=[CFA]
  0x00157cc8: CFA=reg29: reg31=reg29+16 reg19=[CFA+16] reg20=[CFA+24] reg21=[CFA+32] reg22=[CFA+40] reg23=[CFA+48] reg24=[CFA+56] reg30=[CFA+8] reg29=[CFA]
  0x00157e18: CFA=reg31
  0x00157e3c: CFA=reg29: reg31=reg29+16 reg19=[CFA+16] reg20=[CFA+24] reg21=[CFA+32] reg22=[CFA+40] reg30=[CFA+8] reg29=[CFA]
  0x00157ec0: CFA=reg29: reg31=reg29+16 reg19=[CFA+16] reg20=[CFA+24] reg21=[CFA+32] reg22=[CFA+40] reg30=[CFA+8] reg29=[CFA]
  0x001580f8: CFA=reg29: reg31=reg29+16 reg19=[CFA+16] reg20=[CFA+24] reg21=[CFA+32] reg22=[CFA+40] reg30=[CFA+8] reg29=[CFA]
  0x00158290: CFA=reg31
  0x001582c4: CFA=reg29: reg31=reg29+16 reg19=[CFA+16] reg20=[CFA+24] reg21=[CFA+32] reg22=[CFA+40] reg23=[CFA+48] reg24=[CFA+56] reg30=[CFA+8] reg29=[CFA]
  0x00158620: CFA=reg31
  0x00158644: CFA=reg29: reg31=reg29+16 reg19=[CFA+16] reg20=[CFA+24] reg30=[CFA+8] reg29=[CFA]
  0x0015869c: CFA=reg29: reg31=reg29+16 reg19=[CFA+16] reg20=[CFA+24] reg21=[CFA+32] reg22=[CFA+40] reg30=[CFA+8] reg29=[CFA]
  0x0015883c: CFA=reg29: reg31=reg29+16 reg19=[CFA+16] reg20=[CFA+24] reg27=[CFA+32] reg28=[CFA+40] reg30=[CFA+8] reg29=[CFA]
  0x00158964: CFA=reg29: reg31=reg29+16 reg19=[CFA+16] reg20=[CFA+24] reg30=[CFA+8] reg29=[CFA]
  0x00158a14: CFA=reg29: reg31=reg29+16 reg19=[CFA+16] reg20=[CFA+24] reg21=[CFA+32] reg22=[CFA+40] reg30=[CFA+8] reg29=[CFA]
  0x00158bc4: CFA=reg29: reg31=reg29+16 reg19=[CFA+16] reg20=[CFA+24] reg21=[CFA+32] reg22=[CFA+40] reg23=[CFA+48] reg24=[CFA+56] reg30=[CFA+8] reg29=[CFA]
  0x00158dc0: CFA=reg31
  0x00158de4: CFA=reg29: reg31=reg29+16 reg19=[CFA+16] reg20=[CFA+24] reg21=[CFA+32] reg22=[CFA+40] reg30=[CFA+8] reg29=[CFA]
  0x00158e94: CFA=reg31
  0x00158eb8: CFA=reg29: reg31=reg29+16 reg19=[CFA+16] reg20=[CFA+24] reg21=[CFA+32] reg22=[CFA+40] reg30=[CFA+8] reg29=[CFA]
  0x00158f44: CFA=reg29: reg31=reg29+16 reg19=[CFA+16] reg20=[CFA+24] reg21=[CFA+32] reg22=[CFA+40] reg23=[CFA+48] reg24=[CFA+56] reg25=[CFA+64] reg26=[CFA+72] reg30=[CFA+8] reg29=[CFA]
  0x00159070: CFA=reg29: reg31=reg29+16 reg19=[CFA+16] reg20=[CFA+24] reg21=[CFA+32] reg22=[CFA+40] reg23=[CFA+48] reg24=[CFA+56] reg25=[CFA+64] reg26=[CFA+72] reg27=[CFA+80] reg28=[CFA+88] reg30=[CFA+8] reg29=[CFA]
  0x00160de0: CFA=reg29: reg31=reg29+16 reg30=[CFA+8] reg29=[CFA]
  0x00160f40: CFA=reg29: reg31=reg29+16 reg19=[CFA+16] reg20=[CFA+24] reg21=[CFA+32] reg22=[CFA+40] reg30=[CFA+8] reg29=[CFA]
  0x00161024: CFA=reg29: reg31=reg29+16 reg19=[CFA+16] reg20=[CFA+24] reg21=[CFA+32] reg22=[CFA+40] reg23=[CFA+48] reg24=[CFA+56] reg25=[CFA+64] reg26=[CFA+72] reg27=[CFA+80] reg28=[CFA+88] reg30=[CFA+8] reg29=[CFA]
  0x001614c0: CFA=reg29: reg31=reg29+16 reg30=[CFA+8] reg29=[CFA]
  0x001615d0: CFA=reg29: reg31=reg29+16 reg19=[CFA+16] reg20=[CFA+24] reg21=[CFA+32] reg22=[CFA+40] reg23=[CFA+48] reg24=[CFA+56] reg25=[CFA+64] reg26=[CFA+72] reg27=[CFA+80] reg28=[CFA+88] reg30=[CFA+8] reg29=[CFA]
  0x00161fec: CFA=reg29: reg31=reg29+16 reg19=[CFA+16] reg20=[CFA+24] reg21=[CFA+32] reg22=[CFA+40] reg23=[CFA+48] reg24=[CFA+56] reg25=[CFA+64] reg26=[CFA+72] reg27=[CFA+80] reg28=[CFA+88] reg30=[CFA+8] reg29=[CFA]
  0x0016284c: CFA=reg29: reg31=reg29+16 reg19=[CFA+16] reg20=[CFA+24] reg21=[CFA+32] reg22=[CFA+40] reg23=[CFA+48] reg24=[CFA+56] reg30=[CFA+8] reg29=[CFA]
  0x00162b84: CFA=reg29: reg31=reg29+16 reg19=[CFA+16] reg20=[CFA+24] reg21=[CFA+32] reg22=[CFA+40] reg23=[CFA+48] reg24=[CFA+56] reg25=[CFA+64] reg26=[CFA+72] reg30=[CFA+8] reg29=[CFA]
  0x00162c70: CFA=reg29: reg31=reg29+16 reg19=[CFA+16] reg20=[CFA+24] reg21=[CFA+32] reg22=[CFA+40] reg23=[CFA+48] reg24=[CFA+56] reg30=[CFA+8] reg29=[CFA]
  0x00162e10: CFA=reg29: reg31=reg29+16 reg19=[CFA+16] reg20=[CFA+24] reg21=[CFA+32] reg22=[CFA+40] reg23=[CFA+48] reg24=[CFA+56] reg25=[CFA+64] reg26=[CFA+72] reg30=[CFA+8] reg29=[CFA]
  0x0016340c: CFA=reg29: reg31=reg29+16 reg19=[CFA+16] reg20=[CFA+24] reg30=[CFA+8] reg29=[CFA]
  0x0016347c: CFA=reg29: reg31=reg29+16 reg19=[CFA+16] reg20=[CFA+24] reg21=[CFA+32] reg22=[CFA+40] reg23=[CFA+48] reg24=[CFA+56] reg27=[CFA+64] reg28=[CFA+72] reg30=[CFA+8] reg29=[CFA]
  0x00163964: CFA=reg29: reg31=reg29+16 reg19=[CFA+16] reg20=[CFA+24] reg21=[CFA+32] reg22=[CFA+40] reg23=[CFA+48] reg24=[CFA+56] reg25=[CFA+64] reg26=[CFA+72] reg27=[CFA+80] reg28=[CFA+88] reg30=[CFA+8] reg29=[CFA]
  0x001646a4: CFA=reg29: reg31=reg29+16 reg19=[CFA+16] reg20=[CFA+24] reg21=[CFA+32] reg22=[CFA+40] reg23=[CFA+48] reg24=[CFA+56] reg25=[CFA+64] reg26=[CFA+72] reg27=[CFA+80] reg28=[CFA+88] reg30=[CFA+8] reg29=[CFA]
  0x00164cb8: CFA=reg29: reg31=reg29+16 reg19=[CFA+16] reg20=[CFA+24] reg21=[CFA+32] reg22=[CFA+40] reg23=[CFA+48] reg24=[CFA+56] reg25=[CFA+64] reg26=[CFA+72] reg27=[CFA+80] reg28=[CFA+88] reg30=[CFA+8] reg29=[CFA]
  0x001654e0: CFA=reg29: reg31=reg29+16 reg19=[CFA+16] reg20=[CFA+24] reg21=[CFA+32] reg22=[CFA+40] reg23=[CFA+48] reg24=[CFA+56] reg25=[CFA+64] reg26=[CFA+72] reg27=[CFA+80] reg28=[CFA+88] reg30=[CFA+8] reg29=[CFA]
  0x00165a68: CFA=reg29: reg31=reg29+16 reg19=[CFA+16] reg20=[CFA+24] reg21=[CFA+32] reg22=[CFA+40] reg23=[CFA+48] reg24=[CFA+56] reg25=[CFA+64] reg26=[CFA+72] reg27=[CFA+80] reg28=[CFA+88] reg30=[CFA+8] reg29=[CFA]
  0x0016625c: CFA=reg29: reg31=reg29+16 reg19=[CFA+16] reg20=[CFA+24] reg21=[CFA+32] reg22=[CFA+40] reg30=[CFA+8] reg29=[CFA]
  0x0016630c: CFA=reg31
  0x00166330: CFA=reg29: reg31=reg29+16 reg19=[CFA+16] reg20=[CFA+24] reg21=[CFA+32] reg22=[CFA+40] reg23=[CFA+48] reg24=[CFA+56] reg25=[CFA+64] reg26=[CFA+72] reg30=[CFA+8] reg29=[CFA]
  0x0016678c: CFA=reg31+128
  0x00166918: CFA=reg29: reg31=reg29+16 reg19=[CFA+16] reg20=[CFA+24] reg21=[CFA+32] reg22=[CFA+40] reg30=[CFA+8] reg29=[CFA]
  0x00166968: CFA=reg29: reg31=reg29+16 reg19=[CFA+16] reg20=[CFA+24] reg21=[CFA+32] reg22=[CFA+40] reg30=[CFA+8] reg29=[CFA]
  0x001669e0: CFA=reg29: reg31=reg29+16 reg19=[CFA+16] reg20=[CFA+24] reg21=[CFA+32] reg22=[CFA+40] reg23=[CFA+48] reg24=[CFA+56] reg30=[CFA+8] reg29=[CFA]
  0x00166b24: CFA=reg29: reg31=reg29+16 reg19=[CFA+16] reg20=[CFA+24] reg21=[CFA+32] reg22=[CFA+40] reg23=[CFA+48] reg24=[CFA+56] reg25=[CFA+64] reg26=[CFA+72] reg27=[CFA+80] reg28=[CFA+88] reg30=[CFA+8] reg29=[CFA]
  0x001671e0: CFA=reg29: reg31=reg29+16 reg19=[CFA+16] reg20=[CFA+24] reg21=[CFA+32] reg22=[CFA+40] reg23=[CFA+48] reg24=[CFA+56] reg25=[CFA+64] reg26=[CFA+72] reg30=[CFA+8] reg29=[CFA]
  0x001677e0: CFA=reg29: reg31=reg29+16 reg19=[CFA+16] reg20=[CFA+24] reg21=[CFA+32] reg22=[CFA+40] reg30=[CFA+8] reg29=[CFA]
  0x0016791c: CFA=reg29: reg31=reg29+16 reg19=[CFA+16] reg20=[CFA+24] reg21=[CFA+32] reg22=[CFA+40] reg23=[CFA+48] reg24=[CFA+56] reg30=[CFA+8] reg29=[CFA]
  0x00167bd0: CFA=reg29: reg31=reg29+16 reg19=[CFA+16] reg20=[CFA+24] reg21=[CFA+32] reg22=[CFA+40] reg23=[CFA+48] reg24=[CFA+56] reg30=[CFA+8] reg29=[CFA]
  0x00167f50: CFA=reg29: reg31=reg29+16 reg19=[CFA+16] reg20=[CFA+24] reg21=[CFA+32] reg22=[CFA+40] reg23=[CFA+48] reg24=[CFA+56] reg25=[CFA+64] reg26=[CFA+72] reg30=[CFA+8] reg29=[CFA]
  0x0016843c: CFA=reg29: reg31=reg29+16 reg19=[CFA+16] reg20=[CFA+24] reg21=[CFA+32] reg22=[CFA+40] reg30=[CFA+8] reg29=[CFA]
  0x001684ec: CFA=reg29: reg31=reg29+16 reg19=[CFA+16] reg20=[CFA+24] reg21=[CFA+32] reg22=[CFA+40] reg23=[CFA+48] reg24=[CFA+56] reg25=[CFA+64] reg26=[CFA+72] reg27=[CFA+80] reg28=[CFA+88] reg30=[CFA+8] reg29=[CFA]
  0x00168a08: CFA=reg29: reg31=reg29+16 reg19=[CFA+16] reg20=[CFA+24] reg21=[CFA+32] reg22=[CFA+40] reg23=[CFA+48] reg24=[CFA+56] reg30=[CFA+8] reg29=[CFA]
  0x00168b2c: CFA=reg29: reg31=reg29+16 reg19=[CFA+16] reg20=[CFA+24] reg30=[CFA+8] reg29=[CFA]
  0x00168b94: CFA=reg29: reg31=reg29+16 reg19=[CFA+16] reg20=[CFA+24] reg21=[CFA+32] reg22=[CFA+40] reg23=[CFA+48] reg24=[CFA+56] reg30=[CFA+8] reg29=[CFA]
  0x00168d20: CFA=reg29: reg31=reg29+16 reg19=[CFA+16] reg20=[CFA+24] reg30=[CFA+8] reg29=[CFA]
  0x00168d88: CFA=reg29: reg31=reg29+16 reg19=[CFA+16] reg20=[CFA+24] reg21=[CFA+32] reg22=[CFA+40] reg23=[CFA+48] reg24=[CFA+56] reg30=[CFA+8] reg29=[CFA]
  0x00168f74: CFA=reg29: reg31=reg29+16 reg19=[CFA+16] reg20=[CFA+24] reg30=[CFA+8] reg29=[CFA]
  0x00168fb0: CFA=reg29: reg31=reg29+16 reg19=[CFA+16] reg20=[CFA+24] reg30=[CFA+8] reg29=[CFA]
  0x00169014: CFA=reg29: reg31=reg29+16 reg19=[CFA+16] reg20=[CFA+24] reg21=[CFA+32] reg22=[CFA+40] reg23=[CFA+48] reg24=[CFA+56] reg30=[CFA+8] reg29=[CFA]
  0x00169464: CFA=reg29: reg31=reg29+16 reg19=[CFA+16] reg20=[CFA+24] reg21=[CFA+32] reg22=[CFA+40] reg23=[CFA+48] reg24=[CFA+56] reg30=[CFA+8] reg29=[CFA]
  0x00169578: CFA=reg29: reg31=reg29+16 reg19=[CFA+16] reg20=[CFA+24] reg21=[CFA+32] reg22=[CFA+40] reg23=[CFA+48] reg24=[CFA+56] reg25=[CFA+64] reg26=[CFA+72] reg30=[CFA+8] reg29=[CFA]
  0x00169848: CFA=reg29: reg31=reg29+16 reg19=[CFA+16] reg20=[CFA+24] reg21=[CFA+32] reg22=[CFA+40] reg23=[CFA+48] reg24=[CFA+56] reg30=[CFA+8] reg29=[CFA]
  0x001699b8: CFA=reg29: reg31=reg29+16 reg19=[CFA+16] reg20=[CFA+24] reg21=[CFA+32] reg22=[CFA+40] reg23=[CFA+48] reg24=[CFA+56] reg30=[CFA+8] reg29=[CFA]
  0x00169b18: CFA=reg29: reg31=reg29+16 reg19=[CFA+16] reg20=[CFA+24] reg21=[CFA+32] reg22=[CFA+40] reg30=[CFA+8] reg29=[CFA]
  0x00169bc4: CFA=reg29: reg31=reg29+16 reg19=[CFA+16] reg20=[CFA+24] reg30=[CFA+8] reg29=[CFA]
  0x00169c38: CFA=reg29: reg31=reg29+16 reg19=[CFA+16] reg20=[CFA+24] reg30=[CFA+8] reg29=[CFA]
  0x00169c74: CFA=reg31
  0x00169cb0: CFA=reg29: reg31=reg29+16 reg19=[CFA+16] reg20=[CFA+24] reg21=[CFA+32] reg22=[CFA+40] reg23=[CFA+48] reg24=[CFA+56] reg25=[CFA+64] reg26=[CFA+72] reg27=[CFA+80] reg28=[CFA+88] reg30=[CFA+8] reg29=[CFA]
  0x0016a76c: CFA=reg31
  0x0016a790: CFA=reg29: reg31=reg29+16 reg19=[CFA+16] reg20=[CFA+24] reg21=[CFA+32] reg22=[CFA+40] reg23=[CFA+48] reg24=[CFA+56] reg25=[CFA+64] reg26=[CFA+72] reg27=[CFA+80] reg28=[CFA+88] reg30=[CFA+8] reg29=[CFA]
  0x0016adec: CFA=reg29: reg31=reg29+16 reg19=[CFA+16] reg20=[CFA+24] reg21=[CFA+32] reg22=[CFA+40] reg23=[CFA+48] reg24=[CFA+56] reg25=[CFA+64] reg26=[CFA+72] reg27=[CFA+80] reg28=[CFA+88] reg30=[CFA+8] reg29=[CFA]
  0x0016b3cc: CFA=reg31
  0x0016b3f0: CFA=reg29: reg31=reg29+16 reg19=[CFA+16] reg20=[CFA+24] reg21=[CFA+32] reg22=[CFA+40] reg23=[CFA+48] reg24=[CFA+56] reg30=[CFA+8] reg29=[CFA]
  0x0016b53c: CFA=reg31
  0x0016b54c: CFA=reg29: reg31=reg29+16 reg19=[CFA+16] reg20=[CFA+24] reg21=[CFA+32] reg22=[CFA+40] reg23=[CFA+48] reg24=[CFA+56] reg30=[CFA+8] reg29=[CFA]
  0x0016b984: CFA=reg29: reg31=reg29+16 reg19=[CFA+16] reg20=[CFA+24] reg21=[CFA+32] reg22=[CFA+40] reg23=[CFA+48] reg24=[CFA+56] reg25=[CFA+64] reg26=[CFA+72] reg27=[CFA+80] reg28=[CFA+88] reg30=[CFA+8] reg29=[CFA]
  0x0016c344: CFA=reg29: reg31=reg29+16 reg19=[CFA+16] reg20=[CFA+24] reg21=[CFA+32] reg22=[CFA+40] reg23=[CFA+48] reg24=[CFA+56] reg30=[CFA+8] reg29=[CFA]
  0x0016c47c: CFA=reg29: reg31=reg29+16 reg19=[CFA+16] reg20=[CFA+24] reg21=[CFA+32] reg22=[CFA+40] reg30=[CFA+8] reg29=[CFA]
  0x0016c62c: CFA=reg29: reg31=reg29+16 reg19=[CFA+16] reg20=[CFA+24] reg21=[CFA+32] reg22=[CFA+40] reg23=[CFA+48] reg24=[CFA+56] reg30=[CFA+8] reg29=[CFA]
  0x0016c740: CFA=reg29: reg31=reg29+16 reg30=[CFA+8] reg29=[CFA]
  0x0016c7cc: CFA=reg29: reg31=reg29+16 reg19=[CFA+16] reg20=[CFA+24] reg21=[CFA+32] reg22=[CFA+40] reg23=[CFA+48] reg24=[CFA+56] reg25=[CFA+64] reg26=[CFA+72] reg27=[CFA+80] reg28=[CFA+88] reg30=[CFA+8] reg29=[CFA]
  0x0016cdb0: CFA=reg29: reg31=reg29+16 reg19=[CFA+16] reg20=[CFA+24] reg21=[CFA+32] reg22=[CFA+40] reg23=[CFA+48] reg24=[CFA+56] reg25=[CFA+64] reg26=[CFA+72] reg27=[CFA+80] reg28=[CFA+88] reg30=[CFA+8] reg29=[CFA]
  0x0016d2ac: CFA=reg29: reg31=reg29+16 reg19=[CFA+16] reg20=[CFA+24] reg30=[CFA+8] reg29=[CFA]
  0x0016d374: CFA=reg29: reg31=reg29+16 reg19=[CFA+16] reg20=[CFA+24] reg30=[CFA+8] reg29=[CFA]
  0x0016d3b0: CFA=reg31
  0x0016d3e8: CFA=reg29: reg31=reg29+16 reg30=[CFA+8] reg29=[CFA]
  0x0016d6a0: CFA=reg29: reg31=reg29+16 reg19=[CFA+16] reg20=[CFA+24] reg30=[CFA+8] reg29=[CFA]
  0x0016d7dc: CFA=reg29: reg31=reg29+16 reg19=[CFA+16] reg20=[CFA+24] reg21=[CFA+32] reg22=[CFA+40] reg23=[CFA+48] reg24=[CFA+56] reg30=[CFA+8] reg29=[CFA]
  0x0016d968: CFA=reg29: reg31=reg29+16 reg19=[CFA+16] reg20=[CFA+24] reg21=[CFA+32] reg22=[CFA+40] reg23=[CFA+48] reg24=[CFA+56] reg25=[CFA+64] reg26=[CFA+72] reg27=[CFA+80] reg28=[CFA+88] reg30=[CFA+8] reg29=[CFA]
  0x0016de94: CFA=reg29: reg31=reg29+16 reg19=[CFA+16] reg20=[CFA+24] reg30=[CFA+8] reg29=[CFA]
  0x0016defc: CFA=reg29: reg31=reg29+16 reg19=[CFA+16] reg20=[CFA+24] reg30=[CFA+8] reg29=[CFA]
  0x0016dfac: CFA=reg29: reg31=reg29+16 reg19=[CFA+16] reg20=[CFA+24] reg30=[CFA+8] reg29=[CFA]
  0x0016dfe8: CFA=reg29: reg31=reg29+16 reg19=[CFA+16] reg20=[CFA+24] reg21=[CFA+32] reg22=[CFA+40] reg30=[CFA+8] reg29=[CFA]
  0x0016e094: CFA=reg31
  0x0016e0b8: CFA=reg29: reg31=reg29+16 reg19=[CFA+16] reg20=[CFA+24] reg21=[CFA+32] reg22=[CFA+40] reg23=[CFA+48] reg24=[CFA+56] reg25=[CFA+64] reg26=[CFA+72] reg30=[CFA+8] reg29=[CFA]
  0x0016e504: CFA=reg29: reg31=reg29+16 reg19=[CFA+16] reg20=[CFA+24] reg21=[CFA+32] reg22=[CFA+40] reg23=[CFA+48] reg24=[CFA+56] reg30=[CFA+8] reg29=[CFA]
  0x0016e83c: CFA=reg29: reg31=reg29+16 reg19=[CFA+16] reg20=[CFA+24] reg30=[CFA+8] reg29=[CFA]
  0x0016e904: CFA=reg29: reg31=reg29+16 reg19=[CFA+16] reg20=[CFA+24] reg30=[CFA+8] reg29=[CFA]
  0x0016e940: CFA=reg29: reg31=reg29+16 reg19=[CFA+16] reg20=[CFA+24] reg30=[CFA+8] reg29=[CFA]
  0x0016e9b4: CFA=reg29: reg31=reg29+16 reg19=[CFA+16] reg20=[CFA+24] reg30=[CFA+8] reg29=[CFA]
  0x0016eb74: CFA=reg29: reg31=reg29+16 reg19=[CFA+16] reg20=[CFA+24] reg30=[CFA+8] reg29=[CFA]
  0x0016ebb8: CFA=reg29: reg31=reg29+16 reg19=[CFA+16] reg20=[CFA+24] reg21=[CFA+32] reg22=[CFA+40] reg23=[CFA+48] reg24=[CFA+56] reg25=[CFA+64] reg26=[CFA+72] reg27=[CFA+80] reg28=[CFA+88] reg30=[CFA+8] reg29=[CFA]
  0x0016f674: CFA=reg31
  0x0016f694: CFA=reg29: reg31=reg29+16 reg19=[CFA+16] reg20=[CFA+24] reg30=[CFA+8] reg29=[CFA]
  0x0016f6d8: CFA=reg29: reg31=reg29+16 reg19=[CFA+16] reg20=[CFA+24] reg21=[CFA+32] reg22=[CFA+40] reg23=[CFA+48] reg24=[CFA+56] reg25=[CFA+64] reg26=[CFA+72] reg27=[CFA+80] reg28=[CFA+88] reg14=[CFA+96] reg15=[CFA+104] reg30=[CFA+8] reg29=[CFA]
  0x00170148: CFA=reg31
  0x00170160: CFA=reg29: reg31=reg29+16 reg19=[CFA+16] reg20=[CFA+24] reg21=[CFA+32] reg22=[CFA+40] reg23=[CFA+48] reg24=[CFA+56] reg25=[CFA+64] reg26=[CFA+72] reg27=[CFA+80] reg28=[CFA+88] reg30=[CFA+8] reg29=[CFA]
  0x00170948: CFA=reg29: reg31=reg29+16 reg19=[CFA+16] reg20=[CFA+24] reg21=[CFA+32] reg22=[CFA+40] reg23=[CFA+48] reg24=[CFA+56] reg25=[CFA+64] reg26=[CFA+72] reg27=[CFA+80] reg28=[CFA+88] reg14=[CFA+96] reg15=[CFA+104] reg30=[CFA+8] reg29=[CFA]
  0x00170dc8: CFA=reg29: reg31=reg29+16 reg19=[CFA+16] reg20=[CFA+24] reg21=[CFA+32] reg22=[CFA+40] reg30=[CFA+8] reg29=[CFA]
  0x00170f44: CFA=reg29: reg31=reg29+16 reg19=[CFA+16] reg20=[CFA+24] reg21=[CFA+32] reg22=[CFA+40] reg23=[CFA+48] reg24=[CFA+56] reg30=[CFA+8] reg29=[CFA]
  0x001711a0: CFA=reg29: reg31=reg29+16 reg19=[CFA+16] reg20=[CFA+24] reg21=[CFA+32] reg22=[CFA+40] reg30=[CFA+8] reg29=[CFA]
  0x00171274: CFA=reg31
  0x00171298: CFA=reg29: reg31=reg29+16 reg19=[CFA+16] reg20=[CFA+24] reg21=[CFA+32] reg22=[CFA+40] reg30=[CFA+8] reg29=[CFA]
  0x00171404: CFA=reg29: reg31=reg29+16 reg19=[CFA+16] reg20=[CFA+24] reg21=[CFA+32] reg22=[CFA+40] reg23=[CFA+48] reg24=[CFA+56] reg30=[CFA+8] reg29=[CFA]
  0x00171590: CFA=reg29: reg31=reg29+16 reg19=[CFA+16] reg20=[CFA+24] reg21=[CFA+32] reg22=[CFA+40] reg30=[CFA+8] reg29=[CFA]
  0x00171678: CFA=reg29: reg31=reg29+16 reg19=[CFA+16] reg20=[CFA+24] reg30=[CFA+8] reg29=[CFA]
  0x001716e0: CFA=reg29: reg31=reg29+16 reg19=[CFA+16] reg20=[CFA+24] reg30=[CFA+8] reg29=[CFA]
  0x00171790: CFA=reg29: reg31=reg29+16 reg19=[CFA+16] reg20=[CFA+24] reg30=[CFA+8] reg29=[CFA]
  0x001717cc: CFA=reg29: reg31=reg29+16 reg19=[CFA+16] reg20=[CFA+24] reg21=[CFA+32] reg22=[CFA+40] reg23=[CFA+48] reg24=[CFA+56] reg30=[CFA+8] reg29=[CFA]
  0x00171a08: CFA=reg29: reg31=reg29+16 reg19=[CFA+16] reg20=[CFA+24] reg21=[CFA+32] reg22=[CFA+40] reg23=[CFA+48] reg24=[CFA+56] reg30=[CFA+8] reg29=[CFA]
  0x00171d40: CFA=reg29: reg31=reg29+16 reg19=[CFA+16] reg20=[CFA+24] reg21=[CFA+32] reg22=[CFA+40] reg27=[CFA+48] reg28=[CFA+56] reg30=[CFA+8] reg29=[CFA]
  0x00171e90: CFA=reg29: reg31=reg29+16 reg19=[CFA+16] reg20=[CFA+24] reg30=[CFA+8] reg29=[CFA]
  0x00171f58: CFA=reg29: reg31=reg29+16 reg19=[CFA+16] reg20=[CFA+24] reg30=[CFA+8] reg29=[CFA]
  0x00171f94: CFA=reg29: reg31=reg29+16 reg19=[CFA+16] reg20=[CFA+24] reg30=[CFA+8] reg29=[CFA]
  0x00172008: CFA=reg29: reg31=reg29+16 reg30=[CFA+8] reg29=[CFA]
  0x0017202c: CFA=reg29: reg31=reg29+16 reg19=[CFA+16] reg20=[CFA+24] reg30=[CFA+8] reg29=[CFA]
  0x00172078: CFA=reg29: reg31=reg29+16 reg19=[CFA+16] reg20=[CFA+24] reg21=[CFA+32] reg22=[CFA+40] reg23=[CFA+48] reg24=[CFA+56] reg25=[CFA+64] reg26=[CFA+72] reg27=[CFA+80] reg28=[CFA+88] reg30=[CFA+8] reg29=[CFA]
  0x001722fc: CFA=reg29: reg31=reg29+16 reg19=[CFA+16] reg20=[CFA+24] reg21=[CFA+32] reg22=[CFA+40] reg23=[CFA+48] reg24=[CFA+56] reg30=[CFA+8] reg29=[CFA]
  0x001725c4: CFA=reg29: reg31=reg29+16 reg19=[CFA+16] reg20=[CFA+24] reg21=[CFA+32] reg22=[CFA+40] reg23=[CFA+48] reg24=[CFA+56] reg25=[CFA+64] reg26=[CFA+72] reg27=[CFA+80] reg28=[CFA+88] reg30=[CFA+8] reg29=[CFA]
  0x001727c0: CFA=reg29: reg31=reg29+16 reg19=[CFA+16] reg20=[CFA+24] reg21=[CFA+32] reg22=[CFA+40] reg23=[CFA+48] reg24=[CFA+56] reg25=[CFA+64] reg26=[CFA+72] reg30=[CFA+8] reg29=[CFA]
  0x0017287c: CFA=reg29: reg31=reg29+16 reg19=[CFA+16] reg20=[CFA+24] reg21=[CFA+32] reg22=[CFA+40] reg23=[CFA+48] reg24=[CFA+56] reg25=[CFA+64] reg26=[CFA+72] reg30=[CFA+8] reg29=[CFA]
  0x00172b04: CFA=reg31
  0x00172b1c: CFA=reg29: reg31=reg29+16 reg19=[CFA+16] reg20=[CFA+24] reg21=[CFA+32] reg22=[CFA+40] reg23=[CFA+48] reg24=[CFA+56] reg25=[CFA+64] reg26=[CFA+72] reg30=[CFA+8] reg29=[CFA]
  0x00172e28: CFA=reg29: reg31=reg29+16 reg19=[CFA+16] reg20=[CFA+24] reg21=[CFA+32] reg22=[CFA+40] reg23=[CFA+48] reg24=[CFA+56] reg25=[CFA+64] reg26=[CFA+72] reg30=[CFA+8] reg29=[CFA]
  0x00173124: CFA=reg29: reg31=reg29+16 reg19=[CFA+16] reg20=[CFA+24] reg21=[CFA+32] reg22=[CFA+40] reg30=[CFA+8] reg29=[CFA]
  0x001731d8: CFA=reg29: reg31=reg29+16 reg19=[CFA+16] reg20=[CFA+24] reg21=[CFA+32] reg22=[CFA+40] reg23=[CFA+48] reg24=[CFA+56] reg25=[CFA+64] reg26=[CFA+72] reg27=[CFA+80] reg28=[CFA+88] reg14=[CFA+96] reg15=[CFA+104] reg30=[CFA+8] reg29=[CFA]
  0x00173978: CFA=reg29: reg31=reg29+16 reg19=[CFA+16] reg20=[CFA+24] reg21=[CFA+32] reg22=[CFA+40] reg23=[CFA+48] reg24=[CFA+56] reg25=[CFA+64] reg26=[CFA+72] reg27=[CFA+80] reg28=[CFA+88] reg30=[CFA+8] reg29=[CFA]
  0x00173b20: CFA=reg29: reg31=reg29+16 reg19=[CFA+16] reg20=[CFA+24] reg21=[CFA+32] reg22=[CFA+40] reg23=[CFA+48] reg24=[CFA+56] reg25=[CFA+64] reg26=[CFA+72] reg27=[CFA+80] reg28=[CFA+88] reg30=[CFA+8] reg29=[CFA]
  0x001744fc: CFA=reg31
  0x00174510: CFA=reg29: reg31=reg29+16 reg30=[CFA+8] reg29=[CFA]
  0x00174544: CFA=reg31
  0x00174560: CFA=reg29: reg31=reg29+16 reg19=[CFA+16] reg20=[CFA+24] reg30=[CFA+8] reg29=[CFA]
  0x00174684: CFA=reg29: reg31=reg29+16 reg30=[CFA+8] reg29=[CFA]
  0x001748a0: CFA=reg31
  0x001748ac: CFA=reg29: reg31=reg29+16 reg30=[CFA+8] reg29=[CFA]
  0x001748ec: CFA=reg29: reg31=reg29+16 reg19=[CFA+16] reg20=[CFA+24] reg21=[CFA+32] reg22=[CFA+40] reg30=[CFA+8] reg29=[CFA]
  0x00174a2c: CFA=reg29: reg31=reg29+16 reg30=[CFA+8] reg29=[CFA]
  0x00174ca4: CFA=reg29: reg31=reg29+16 reg19=[CFA+16] reg20=[CFA+24] reg21=[CFA+32] reg22=[CFA+40] reg23=[CFA+48] reg24=[CFA+56] reg25=[CFA+64] reg26=[CFA+72] reg27=[CFA+80] reg28=[CFA+88] reg30=[CFA+8] reg29=[CFA]
  0x00174e94: CFA=reg29: reg31=reg29+16 reg19=[CFA+16] reg20=[CFA+24] reg30=[CFA+8] reg29=[CFA]
  0x00175718: CFA=reg29: reg31=reg29+16 reg19=[CFA+16] reg20=[CFA+24] reg21=[CFA+32] reg22=[CFA+40] reg23=[CFA+48] reg24=[CFA+56] reg30=[CFA+8] reg29=[CFA]
  0x00175b0c: CFA=reg31
  0x00175b20: CFA=reg29: reg31=reg29+16 reg19=[CFA+16] reg20=[CFA+24] reg30=[CFA+8] reg29=[CFA]
  0x00175ca4: CFA=reg29: reg31=reg29+16 reg30=[CFA+8] reg29=[CFA]
  0x00175e38: CFA=reg29: reg31=reg29+16 reg19=[CFA+16] reg20=[CFA+24] reg30=[CFA+8] reg29=[CFA]
  0x00175f18: CFA=reg29: reg31=reg29+16 reg19=[CFA+16] reg20=[CFA+24] reg21=[CFA+32] reg22=[CFA+40] reg30=[CFA+8] reg29=[CFA]
  0x00176014: CFA=reg29: reg31=reg29+16 reg19=[CFA+16] reg20=[CFA+24] reg30=[CFA+8] reg29=[CFA]
  0x00176448: CFA=reg29: reg31=reg29+16 reg19=[CFA+16] reg20=[CFA+24] reg21=[CFA+32] reg22=[CFA+40] reg30=[CFA+8] reg29=[CFA]
  0x00176870: CFA=reg29: reg31=reg29+16 reg19=[CFA+16] reg20=[CFA+24] reg30=[CFA+8] reg29=[CFA]
  0x001769ec: CFA=reg29: reg31=reg29+16 reg19=[CFA+16] reg20=[CFA+24] reg21=[CFA+32] reg22=[CFA+40] reg30=[CFA+8] reg29=[CFA]
  0x00176c0c: CFA=reg31
  0x00176d0c: CFA=reg29: reg31=reg29+16 reg19=[CFA+16] reg20=[CFA+24] reg30=[CFA+8] reg29=[CFA]
  0x001770a4: CFA=reg29: reg31=reg29+16 reg30=[CFA+8] reg29=[CFA]
  0x001771b0: CFA=reg29: reg31=reg29+16 reg19=[CFA+16] reg20=[CFA+24] reg21=[CFA+32] reg22=[CFA+40] reg23=[CFA+48] reg24=[CFA+56] reg25=[CFA+64] reg26=[CFA+72] reg30=[CFA+8] reg29=[CFA]
  0x00177534: CFA=reg29: reg31=reg29+16 reg19=[CFA+16] reg20=[CFA+24] reg21=[CFA+32] reg22=[CFA+40] reg23=[CFA+48] reg24=[CFA+56] reg30=[CFA+8] reg29=[CFA]
  0x00177790: CFA=reg29: reg31=reg29+16 reg19=[CFA+16] reg20=[CFA+24] reg21=[CFA+32] reg22=[CFA+40] reg23=[CFA+48] reg24=[CFA+56] reg30=[CFA+8] reg29=[CFA]
  0x00177878: CFA=reg29: reg31=reg29+16 reg19=[CFA+16] reg20=[CFA+24] reg30=[CFA+8] reg29=[CFA]
  0x001778b0: CFA=reg29: reg31=reg29+16 reg30=[CFA+8] reg29=[CFA]
  0x00177918: CFA=reg31+32
  0x00177b04: CFA=reg29: reg31=reg29+16 reg19=[CFA+16] reg20=[CFA+24] reg30=[CFA+8] reg29=[CFA]
  0x00177e90: CFA=reg31
  0x00177eb0: CFA=reg29: reg31=reg29+16 reg19=[CFA+16] reg20=[CFA+24] reg30=[CFA+8] reg29=[CFA]
  0x00178014: CFA=reg29: reg31=reg29+16 reg19=[CFA+16] reg20=[CFA+24] reg21=[CFA+32] reg22=[CFA+40] reg23=[CFA+48] reg24=[CFA+56] reg25=[CFA+64] reg26=[CFA+72] reg27=[CFA+80] reg28=[CFA+88] reg30=[CFA+8] reg29=[CFA]
  0x00178744: CFA=reg29: reg31=reg29+16 reg19=[CFA+16] reg20=[CFA+24] reg21=[CFA+32] reg22=[CFA+40] reg23=[CFA+48] reg24=[CFA+56] reg30=[CFA+8] reg29=[CFA]
  0x001789b8: CFA=reg29: reg31=reg29+16 reg19=[CFA+16] reg20=[CFA+24] reg21=[CFA+32] reg22=[CFA+40] reg30=[CFA+8] reg29=[CFA]
  0x00178b28: CFA=reg29: reg31=reg29+16 reg19=[CFA+16] reg20=[CFA+24] reg21=[CFA+32] reg22=[CFA+40] reg23=[CFA+48] reg24=[CFA+56] reg25=[CFA+64] reg26=[CFA+72] reg27=[CFA+80] reg28=[CFA+88] reg30=[CFA+8] reg29=[CFA]
  0x00179bd8: CFA=reg29: reg31=reg29+16 reg19=[CFA+16] reg20=[CFA+24] reg21=[CFA+32] reg22=[CFA+40] reg23=[CFA+48] reg24=[CFA+56] reg30=[CFA+8] reg29=[CFA]
  0x00179ef4: CFA=reg29: reg31=reg29+16 reg19=[CFA+16] reg20=[CFA+24] reg21=[CFA+32] reg22=[CFA+40] reg23=[CFA+48] reg24=[CFA+56] reg25=[CFA+64] reg26=[CFA+72] reg27=[CFA+80] reg28=[CFA+88] reg30=[CFA+8] reg29=[CFA]
  0x0017a4c8: CFA=reg29: reg31=reg29+16 reg19=[CFA+16] reg20=[CFA+24] reg30=[CFA+8] reg29=[CFA]
  0x0017a610: CFA=reg29: reg31=reg29+16 reg19=[CFA+16] reg20=[CFA+24] reg21=[CFA+32] reg22=[CFA+40] reg23=[CFA+48] reg24=[CFA+56] reg25=[CFA+64] reg26=[CFA+72] reg30=[CFA+8] reg29=[CFA]
  0x0017aa2c: CFA=reg29: reg31=reg29+16 reg19=[CFA+16] reg20=[CFA+24] reg21=[CFA+32] reg22=[CFA+40] reg23=[CFA+48] reg24=[CFA+56] reg25=[CFA+64] reg26=[CFA+72] reg27=[CFA+80] reg28=[CFA+88] reg30=[CFA+8] reg29=[CFA]
  0x0017afb0: CFA=reg29: reg31=reg29+16 reg19=[CFA+16] reg20=[CFA+24] reg21=[CFA+32] reg22=[CFA+40] reg23=[CFA+48] reg24=[CFA+56] reg25=[CFA+64] reg26=[CFA+72] reg27=[CFA+80] reg28=[CFA+88] reg30=[CFA+8] reg29=[CFA]
  0x0017b3a4: CFA=reg29: reg31=reg29+16 reg19=[CFA+16] reg20=[CFA+24] reg21=[CFA+32] reg22=[CFA+40] reg23=[CFA+48] reg24=[CFA+56] reg30=[CFA+8] reg29=[CFA]
  0x0017b67c: CFA=reg29: reg31=reg29+16 reg19=[CFA+16] reg20=[CFA+24] reg21=[CFA+32] reg22=[CFA+40] reg23=[CFA+48] reg24=[CFA+56] reg25=[CFA+64] reg26=[CFA+72] reg27=[CFA+80] reg28=[CFA+88] reg30=[CFA+8] reg29=[CFA]
  0x0017b88c: CFA=reg29: reg31=reg29+16 reg19=[CFA+16] reg20=[CFA+24] reg21=[CFA+32] reg22=[CFA+40] reg30=[CFA+8] reg29=[CFA]
  0x0017b8fc: CFA=reg31
  0x0017b924: CFA=reg29: reg31=reg29+16 reg19=[CFA+16] reg20=[CFA+24] reg21=[CFA+32] reg22=[CFA+40] reg23=[CFA+48] reg24=[CFA+56] reg25=[CFA+64] reg26=[CFA+72] reg27=[CFA+80] reg28=[CFA+88] reg30=[CFA+8] reg29=[CFA]
  0x0017ca00: CFA=reg29: reg31=reg29+16 reg19=[CFA+16] reg20=[CFA+24] reg30=[CFA+8] reg29=[CFA]
  0x0017ccdc: CFA=reg29: reg31=reg29+16 reg19=[CFA+16] reg20=[CFA+24] reg21=[CFA+32] reg22=[CFA+40] reg23=[CFA+48] reg24=[CFA+56] reg30=[CFA+8] reg29=[CFA]
  0x0017ce4c: CFA=reg31
  0x0017ceb0: CFA=reg29: reg31=reg29+16 reg19=[CFA+16] reg20=[CFA+24] reg21=[CFA+32] reg22=[CFA+40] reg23=[CFA+48] reg24=[CFA+56] reg30=[CFA+8] reg29=[CFA]
  0x0017d0ec: CFA=reg29: reg31=reg29+16 reg19=[CFA+16] reg20=[CFA+24] reg21=[CFA+32] reg22=[CFA+40] reg23=[CFA+48] reg24=[CFA+56] reg30=[CFA+8] reg29=[CFA]
  0x0017d314: CFA=reg29: reg31=reg29+16 reg19=[CFA+16] reg20=[CFA+24] reg21=[CFA+32] reg22=[CFA+40] reg30=[CFA+8] reg29=[CFA]
  0x0017d40c: CFA=reg29: reg31=reg29+16 reg19=[CFA+16] reg20=[CFA+24] reg21=[CFA+32] reg22=[CFA+40] reg23=[CFA+48] reg24=[CFA+56] reg25=[CFA+64] reg26=[CFA+72] reg27=[CFA+80] reg28=[CFA+88] reg30=[CFA+8] reg29=[CFA]
  0x0017eea4: CFA=reg29: reg31=reg29+16 reg19=[CFA+16] reg20=[CFA+24] reg21=[CFA+32] reg22=[CFA+40] reg23=[CFA+48] reg24=[CFA+56] reg25=[CFA+64] reg26=[CFA+72] reg27=[CFA+80] reg28=[CFA+88] reg30=[CFA+8] reg29=[CFA]
  0x0017fecc: CFA=reg29: reg31=reg29+16 reg30=[CFA+8] reg29=[CFA]
  0x0017ff68: CFA=reg29: reg31=reg29+16 reg19=[CFA+16] reg20=[CFA+24] reg30=[CFA+8] reg29=[CFA]
  0x0017fff8: CFA=reg29: reg31=reg29+16 reg19=[CFA+16] reg20=[CFA+24] reg21=[CFA+32] reg22=[CFA+40] reg23=[CFA+48] reg24=[CFA+56] reg25=[CFA+64] reg26=[CFA+72] reg30=[CFA+8] reg29=[CFA]
  0x00180114: CFA=reg29: reg31=reg29+16 reg19=[CFA+16] reg20=[CFA+24] reg30=[CFA+8] reg29=[CFA]
  0x001801a4: CFA=reg29: reg31=reg29+16 reg19=[CFA+16] reg20=[CFA+24] reg21=[CFA+32] reg22=[CFA+40] reg23=[CFA+48] reg24=[CFA+56] reg30=[CFA+8] reg29=[CFA]
  0x0018029c: CFA=reg29: reg31=reg29+16 reg19=[CFA+16] reg20=[CFA+24] reg30=[CFA+8] reg29=[CFA]
  0x00180384: CFA=reg29: reg31=reg29+16 reg19=[CFA+16] reg20=[CFA+24] reg21=[CFA+32] reg22=[CFA+40] reg30=[CFA+8] reg29=[CFA]
  0x001804b0: CFA=reg31
  0x001804d4: CFA=reg29: reg31=reg29+16 reg19=[CFA+16] reg20=[CFA+24] reg21=[CFA+32] reg22=[CFA+40] reg23=[CFA+48] reg24=[CFA+56] reg25=[CFA+64] reg26=[CFA+72] reg30=[CFA+8] reg29=[CFA]
  0x0018062c: CFA=reg31
  0x00180690: CFA=reg29: reg31=reg29+16 reg19=[CFA+16] reg20=[CFA+24] reg21=[CFA+32] reg22=[CFA+40] reg30=[CFA+8] reg29=[CFA]
  0x00180900: CFA=reg29: reg31=reg29+16 reg19=[CFA+16] reg20=[CFA+24] reg21=[CFA+32] reg22=[CFA+40] reg23=[CFA+48] reg24=[CFA+56] reg30=[CFA+8] reg29=[CFA]
  0x00180a60: CFA=reg29: reg31=reg29+16 reg19=[CFA+16] reg20=[CFA+24] reg21=[CFA+32] reg22=[CFA+40] reg23=[CFA+48] reg24=[CFA+56] reg30=[CFA+8] reg29=[CFA]
  0x00180d00: CFA=reg29: reg31=reg29+16 reg19=[CFA+16] reg20=[CFA+24] reg30=[CFA+8] reg29=[CFA]
  0x00180d74: CFA=reg29: reg31=reg29+16 reg19=[CFA+16] reg20=[CFA+24] reg30=[CFA+8] reg29=[CFA]
  0x00180e3c: CFA=reg29: reg31=reg29+16 reg19=[CFA+16] reg20=[CFA+24] reg30=[CFA+8] reg29=[CFA]
  0x00180e78: CFA=reg29: reg31=reg29+16 reg19=[CFA+16] reg20=[CFA+24] reg21=[CFA+32] reg22=[CFA+40] reg30=[CFA+8] reg29=[CFA]
  0x00180f28: CFA=reg29: reg31=reg29+16 reg19=[CFA+16] reg20=[CFA+24] reg21=[CFA+32] reg22=[CFA+40] reg23=[CFA+48] reg24=[CFA+56] reg30=[CFA+8] reg29=[CFA]
  0x001810b4: CFA=reg29: reg31=reg29+16 reg19=[CFA+16] reg20=[CFA+24] reg30=[CFA+8] reg29=[CFA]
  0x0018111c: CFA=reg29: reg31=reg29+16 reg19=[CFA+16] reg20=[CFA+24] reg21=[CFA+32] reg22=[CFA+40] reg23=[CFA+48] reg24=[CFA+56] reg30=[CFA+8] reg29=[CFA]
  0x00181308: CFA=reg29: reg31=reg29+16 reg19=[CFA+16] reg20=[CFA+24] reg30=[CFA+8] reg29=[CFA]
  0x00181344: CFA=reg29: reg31=reg29+16 reg19=[CFA+16] reg20=[CFA+24] reg30=[CFA+8] reg29=[CFA]
  0x001813ac: CFA=reg29: reg31=reg29+16 reg19=[CFA+16] reg20=[CFA+24] reg21=[CFA+32] reg22=[CFA+40] reg23=[CFA+48] reg24=[CFA+56] reg30=[CFA+8] reg29=[CFA]
  0x001814d0: CFA=reg29: reg31=reg29+16 reg19=[CFA+16] reg20=[CFA+24] reg21=[CFA+32] reg22=[CFA+40] reg23=[CFA+48] reg24=[CFA+56] reg25=[CFA+64] reg26=[CFA+72] reg27=[CFA+80] reg28=[CFA+88] reg30=[CFA+8] reg29=[CFA]
  0x00181720: CFA=reg31
  0x00181744: CFA=reg29: reg31=reg29+16 reg19=[CFA+16] reg20=[CFA+24] reg21=[CFA+32] reg22=[CFA+40] reg30=[CFA+8] reg29=[CFA]
  0x001817d8: CFA=reg31
  0x001817fc: CFA=reg29: reg31=reg29+16 reg19=[CFA+16] reg20=[CFA+24] reg21=[CFA+32] reg22=[CFA+40] reg23=[CFA+48] reg24=[CFA+56] reg25=[CFA+64] reg26=[CFA+72] reg30=[CFA+8] reg29=[CFA]
  0x0018191c: CFA=reg29: reg31=reg29+16 reg19=[CFA+16] reg20=[CFA+24] reg21=[CFA+32] reg22=[CFA+40] reg23=[CFA+48] reg24=[CFA+56] reg25=[CFA+64] reg26=[CFA+72] reg30=[CFA+8] reg29=[CFA]
  0x00181cd0: CFA=reg29: reg31=reg29+16 reg19=[CFA+16] reg20=[CFA+24] reg21=[CFA+32] reg22=[CFA+40] reg23=[CFA+48] reg24=[CFA+56] reg30=[CFA+8] reg29=[CFA]
  0x00181db8: CFA=reg29: reg31=reg29+16 reg19=[CFA+16] reg20=[CFA+24] reg21=[CFA+32] reg22=[CFA+40] reg23=[CFA+48] reg24=[CFA+56] reg30=[CFA+8] reg29=[CFA]
  0x0018200c: CFA=reg29: reg31=reg29+16 reg19=[CFA+16] reg20=[CFA+24] reg30=[CFA+8] reg29=[CFA]
  0x00182044: CFA=reg31
  0x00182064: CFA=reg29: reg31=reg29+16 reg19=[CFA+16] reg20=[CFA+24] reg30=[CFA+8] reg29=[CFA]
  0x00182158: CFA=reg31
  0x0018215c: CFA=reg29: reg31=reg29+16 reg19=[CFA+16] reg20=[CFA+24] reg27=[CFA+32] reg28=[CFA+40] reg30=[CFA+8] reg29=[CFA]
  0x00182308: CFA=reg31
  0x00182310: CFA=reg29: reg31=reg29+16 reg19=[CFA+16] reg20=[CFA+24] reg21=[CFA+32] reg22=[CFA+40] reg30=[CFA+8] reg29=[CFA]
  0x00182500: CFA=reg29: reg31=reg29+16 reg19=[CFA+16] reg20=[CFA+24] reg21=[CFA+32] reg22=[CFA+40] reg23=[CFA+48] reg24=[CFA+56] reg27=[CFA+64] reg28=[CFA+72] reg30=[CFA+8] reg29=[CFA]
  0x00182724: CFA=reg31
  0x0018272c: CFA=reg29: reg31=reg29+16 reg19=[CFA+16] reg20=[CFA+24] reg30=[CFA+8] reg29=[CFA]
  0x00182764: CFA=reg29: reg31=reg29+16 reg19=[CFA+16] reg20=[CFA+24] reg21=[CFA+32] reg22=[CFA+40] reg23=[CFA+48] reg24=[CFA+56] reg30=[CFA+8] reg29=[CFA]
  0x0018286c: CFA=reg29: reg31=reg29+16 reg19=[CFA+16] reg20=[CFA+24] reg21=[CFA+32] reg22=[CFA+40] reg23=[CFA+48] reg24=[CFA+56] reg25=[CFA+64] reg26=[CFA+72] reg27=[CFA+80] reg28=[CFA+88] reg30=[CFA+8] reg29=[CFA]
  0x00182db0: CFA=reg29: reg31=reg29+16 reg19=[CFA+16] reg20=[CFA+24] reg30=[CFA+8] reg29=[CFA]
  0x00182e14: CFA=reg29: reg31=reg29+16 reg19=[CFA+16] reg20=[CFA+24] reg21=[CFA+32] reg22=[CFA+40] reg23=[CFA+48] reg24=[CFA+56] reg25=[CFA+64] reg26=[CFA+72] reg27=[CFA+80] reg28=[CFA+88] reg30=[CFA+8] reg29=[CFA]
  0x00185524: CFA=reg29: reg31=reg29+16 reg19=[CFA+16] reg20=[CFA+24] reg21=[CFA+32] reg22=[CFA+40] reg23=[CFA+48] reg24=[CFA+56] reg25=[CFA+64] reg26=[CFA+72] reg27=[CFA+80] reg28=[CFA+88] reg30=[CFA+8] reg29=[CFA]
  0x00185714: CFA=reg29: reg31=reg29+16 reg19=[CFA+16] reg20=[CFA+24] reg21=[CFA+32] reg22=[CFA+40] reg23=[CFA+48] reg24=[CFA+56] reg25=[CFA+64] reg26=[CFA+72] reg30=[CFA+8] reg29=[CFA]
  0x00185e08: CFA=reg29: reg31=reg29+16 reg19=[CFA+16] reg20=[CFA+24] reg30=[CFA+8] reg29=[CFA]
  0x00186020: CFA=reg29: reg31=reg29+16 reg19=[CFA+16] reg20=[CFA+24] reg21=[CFA+32] reg22=[CFA+40] reg30=[CFA+8] reg29=[CFA]
  0x001860dc: CFA=reg29: reg31=reg29+16 reg19=[CFA+16] reg20=[CFA+24] reg21=[CFA+32] reg22=[CFA+40] reg23=[CFA+48] reg24=[CFA+56] reg30=[CFA+8] reg29=[CFA]
  0x00186708: CFA=reg31
  0x00186880: CFA=reg29: reg31=reg29+16 reg30=[CFA+8] reg29=[CFA]
  0x00186b0c: CFA=reg29: reg31=reg29+16 reg19=[CFA+16] reg20=[CFA+24] reg21=[CFA+32] reg22=[CFA+40] reg23=[CFA+48] reg24=[CFA+56] reg25=[CFA+64] reg26=[CFA+72] reg27=[CFA+80] reg28=[CFA+88] reg30=[CFA+8] reg29=[CFA]
  0x00186f88: CFA=reg29: reg31=reg29+16 reg19=[CFA+16] reg20=[CFA+24] reg21=[CFA+32] reg22=[CFA+40] reg23=[CFA+48] reg24=[CFA+56] reg30=[CFA+8] reg29=[CFA]
  0x00187208: CFA=reg29: reg31=reg29+16 reg19=[CFA+16] reg20=[CFA+24] reg30=[CFA+8] reg29=[CFA]
  0x00187418: CFA=reg29: reg31=reg29+16 reg19=[CFA+16] reg20=[CFA+24] reg21=[CFA+32] reg22=[CFA+40] reg23=[CFA+48] reg24=[CFA+56] reg30=[CFA+8] reg29=[CFA]
  0x001877b8: CFA=reg31
  0x001878fc: CFA=reg29: reg31=reg29+16 reg19=[CFA+16] reg20=[CFA+24] reg21=[CFA+32] reg22=[CFA+40] reg30=[CFA+8] reg29=[CFA]
  0x001887b8: CFA=reg29: reg31=reg29+16 reg19=[CFA+16] reg20=[CFA+24] reg30=[CFA+8] reg29=[CFA]
  0x001889d0: CFA=reg29: reg31=reg29+16 reg19=[CFA+16] reg20=[CFA+24] reg21=[CFA+32] reg22=[CFA+40] reg23=[CFA+48] reg24=[CFA+56] reg25=[CFA+64] reg26=[CFA+72] reg27=[CFA+80] reg28=[CFA+88] reg30=[CFA+8] reg29=[CFA]
  0x00188ca0: CFA=reg29: reg31=reg29+16 reg19=[CFA+16] reg20=[CFA+24] reg21=[CFA+32] reg22=[CFA+40] reg30=[CFA+8] reg29=[CFA]
  0x00188d84: CFA=reg29: reg31=reg29+16 reg19=[CFA+16] reg20=[CFA+24] reg21=[CFA+32] reg22=[CFA+40] reg23=[CFA+48] reg24=[CFA+56] reg25=[CFA+64] reg26=[CFA+72] reg27=[CFA+80] reg28=[CFA+88] reg30=[CFA+8] reg29=[CFA]
  0x0018918c: CFA=reg29: reg31=reg29+16 reg30=[CFA+8] reg29=[CFA]
  0x0018925c: CFA=reg29: reg31=reg29+16 reg19=[CFA+16] reg20=[CFA+24] reg21=[CFA+32] reg22=[CFA+40] reg30=[CFA+8] reg29=[CFA]
  0x00189410: CFA=reg29: reg31=reg29+16 reg19=[CFA+16] reg20=[CFA+24] reg21=[CFA+32] reg22=[CFA+40] reg23=[CFA+48] reg24=[CFA+56] reg25=[CFA+64] reg26=[CFA+72] reg27=[CFA+80] reg28=[CFA+88] reg30=[CFA+8] reg29=[CFA]
  0x00189750: CFA=reg29: reg31=reg29+16 reg19=[CFA+16] reg20=[CFA+24] reg21=[CFA+32] reg22=[CFA+40] reg23=[CFA+48] reg24=[CFA+56] reg30=[CFA+8] reg29=[CFA]
  0x00189ae4: CFA=reg29: reg31=reg29+16 reg30=[CFA+8] reg29=[CFA]
  0x00189f10: CFA=reg31
  0x00189f24: CFA=reg29: reg31=reg29+16 reg19=[CFA+16] reg20=[CFA+24] reg21=[CFA+32] reg22=[CFA+40] reg30=[CFA+8] reg29=[CFA]
  0x00189fe4: CFA=reg29: reg31=reg29+16 reg19=[CFA+16] reg20=[CFA+24] reg21=[CFA+32] reg22=[CFA+40] reg23=[CFA+48] reg24=[CFA+56] reg25=[CFA+64] reg26=[CFA+72] reg30=[CFA+8] reg29=[CFA]
  0x0018a200: CFA=reg29: reg31=reg29+16 reg19=[CFA+16] reg20=[CFA+24] reg21=[CFA+32] reg22=[CFA+40] reg30=[CFA+8] reg29=[CFA]
  0x0018a56c: CFA=reg29: reg31=reg29+16 reg19=[CFA+16] reg20=[CFA+24] reg30=[CFA+8] reg29=[CFA]
  0x0018a724: CFA=reg29: reg31=reg29+16 reg19=[CFA+16] reg20=[CFA+24] reg21=[CFA+32] reg22=[CFA+40] reg23=[CFA+48] reg24=[CFA+56] reg25=[CFA+64] reg26=[CFA+72] reg27=[CFA+80] reg28=[CFA+88] reg30=[CFA+8] reg29=[CFA]
  0x0018ac8c: CFA=reg29: reg31=reg29+16 reg19=[CFA+16] reg20=[CFA+24] reg21=[CFA+32] reg22=[CFA+40] reg23=[CFA+48] reg24=[CFA+56] reg30=[CFA+8] reg29=[CFA]
  0x0018b760: CFA=reg29: reg31=reg29+16 reg19=[CFA+16] reg20=[CFA+24] reg21=[CFA+32] reg22=[CFA+40] reg23=[CFA+48] reg24=[CFA+56] reg25=[CFA+64] reg26=[CFA+72] reg27=[CFA+80] reg28=[CFA+88] reg30=[CFA+8] reg29=[CFA]
  0x0018c334: CFA=reg31
  0x0018c388: CFA=reg29: reg31=reg29+16 reg30=[CFA+8] reg29=[CFA]
  0x0018c4d4: CFA=reg29: reg31=reg29+16 reg19=[CFA+16] reg20=[CFA+24] reg21=[CFA+32] reg22=[CFA+40] reg23=[CFA+48] reg24=[CFA+56] reg30=[CFA+8] reg29=[CFA]
  0x0018cae4: CFA=reg31
  0x0018caf4: CFA=reg29: reg31=reg29+16 reg19=[CFA+16] reg20=[CFA+24] reg21=[CFA+32] reg22=[CFA+40] reg30=[CFA+8] reg29=[CFA]
  0x0018cc74: CFA=reg29: reg31=reg29+16 reg19=[CFA+16] reg20=[CFA+24] reg21=[CFA+32] reg22=[CFA+40] reg23=[CFA+48] reg24=[CFA+56] reg25=[CFA+64] reg26=[CFA+72] reg30=[CFA+8] reg29=[CFA]
  0x0018ce44: CFA=reg29: reg31=reg29+16 reg30=[CFA+8] reg29=[CFA]
  0x0018cec0: CFA=reg29: reg31=reg29+16 reg19=[CFA+16] reg20=[CFA+24] reg30=[CFA+8] reg29=[CFA]
  0x0018cf20: CFA=reg29: reg31=reg29+16 reg19=[CFA+16] reg20=[CFA+24] reg21=[CFA+32] reg22=[CFA+40] reg23=[CFA+48] reg24=[CFA+56] reg30=[CFA+8] reg29=[CFA]
  0x0018d54c: CFA=reg31
  0x0018d5b8: CFA=reg29: reg31=reg29+16 reg30=[CFA+8] reg29=[CFA]
  0x0018d844: CFA=reg29: reg31=reg29+16 reg19=[CFA+16] reg20=[CFA+24] reg21=[CFA+32] reg22=[CFA+40] reg23=[CFA+48] reg24=[CFA+56] reg25=[CFA+64] reg26=[CFA+72] reg27=[CFA+80] reg28=[CFA+88] reg30=[CFA+8] reg29=[CFA]
  0x0018dd08: CFA=reg29: reg31=reg29+16 reg19=[CFA+16] reg20=[CFA+24] reg21=[CFA+32] reg22=[CFA+40] reg23=[CFA+48] reg24=[CFA+56] reg30=[CFA+8] reg29=[CFA]
  0x0018df14: CFA=reg29: reg31=reg29+16 reg19=[CFA+16] reg20=[CFA+24] reg30=[CFA+8] reg29=[CFA]
  0x0018e070: CFA=reg29: reg31=reg29+16 reg19=[CFA+16] reg20=[CFA+24] reg21=[CFA+32] reg22=[CFA+40] reg23=[CFA+48] reg24=[CFA+56] reg30=[CFA+8] reg29=[CFA]
  0x0018e298: CFA=reg31
  0x0018e3e4: CFA=reg29: reg31=reg29+16 reg19=[CFA+16] reg20=[CFA+24] reg21=[CFA+32] reg22=[CFA+40] reg30=[CFA+8] reg29=[CFA]
  0x0018e704: CFA=reg29: reg31=reg29+16 reg19=[CFA+16] reg20=[CFA+24] reg21=[CFA+32] reg22=[CFA+40] reg23=[CFA+48] reg24=[CFA+56] reg30=[CFA+8] reg29=[CFA]
  0x0018ed88: CFA=reg29: reg31=reg29+16 reg19=[CFA+16] reg20=[CFA+24] reg21=[CFA+32] reg22=[CFA+40] reg30=[CFA+8] reg29=[CFA]
  0x0018f3b0: CFA=reg31
  0x0018f3ec: CFA=reg29: reg31=reg29+16 reg19=[CFA+16] reg20=[CFA+24] reg21=[CFA+32] reg22=[CFA+40] reg23=[CFA+48] reg24=[CFA+56] reg25=[CFA+64] reg26=[CFA+72] reg30=[CFA+8] reg29=[CFA]
  0x0018f648: CFA=reg29: reg31=reg29+16 reg19=[CFA+16] reg20=[CFA+24] reg21=[CFA+32] reg22=[CFA+40] reg30=[CFA+8] reg29=[CFA]
  0x0018f7ec: CFA=reg29: reg31=reg29+16 reg19=[CFA+16] reg20=[CFA+24] reg21=[CFA+32] reg22=[CFA+40] reg23=[CFA+48] reg24=[CFA+56] reg25=[CFA+64] reg26=[CFA+72] reg27=[CFA+80] reg28=[CFA+88] reg30=[CFA+8] reg29=[CFA]
  0x0018fc00: CFA=reg29: reg31=reg29+16 reg30=[CFA+8] reg29=[CFA]
  0x0018fccc: CFA=reg29: reg31=reg29+16 reg19=[CFA+16] reg20=[CFA+24] reg21=[CFA+32] reg22=[CFA+40] reg23=[CFA+48] reg24=[CFA+56] reg25=[CFA+64] reg26=[CFA+72] reg27=[CFA+80] reg28=[CFA+88] reg30=[CFA+8] reg29=[CFA]
  0x001904cc: CFA=reg29: reg31=reg29+16 reg30=[CFA+8] reg29=[CFA]
  0x00190850: CFA=reg31
  0x00190918: CFA=reg29: reg31=reg29+16 reg19=[CFA+16] reg20=[CFA+24] reg21=[CFA+32] reg22=[CFA+40] reg23=[CFA+48] reg24=[CFA+56] reg25=[CFA+64] reg26=[CFA+72] reg27=[CFA+80] reg28=[CFA+88] reg30=[CFA+8] reg29=[CFA]
  0x00190bac: CFA=reg29: reg31=reg29+16 reg19=[CFA+16] reg20=[CFA+24] reg30=[CFA+8] reg29=[CFA]
  0x00190dec: CFA=reg29: reg31=reg29+16 reg19=[CFA+16] reg20=[CFA+24] reg21=[CFA+32] reg22=[CFA+40] reg23=[CFA+48] reg24=[CFA+56] reg25=[CFA+64] reg26=[CFA+72] reg30=[CFA+8] reg29=[CFA]
  0x00191224: CFA=reg29: reg31=reg29+16 reg19=[CFA+16] reg20=[CFA+24] reg21=[CFA+32] reg22=[CFA+40] reg23=[CFA+48] reg24=[CFA+56] reg25=[CFA+64] reg26=[CFA+72] reg27=[CFA+80] reg28=[CFA+88] reg30=[CFA+8] reg29=[CFA]
  0x001913b0: CFA=reg29: reg31=reg29+16 reg19=[CFA+16] reg20=[CFA+24] reg21=[CFA+32] reg22=[CFA+40] reg30=[CFA+8] reg29=[CFA]
  0x0019153c: CFA=reg29: reg31=reg29+16 reg19=[CFA+16] reg20=[CFA+24] reg21=[CFA+32] reg22=[CFA+40] reg23=[CFA+48] reg24=[CFA+56] reg25=[CFA+64] reg26=[CFA+72] reg27=[CFA+80] reg28=[CFA+88] reg30=[CFA+8] reg29=[CFA]
  0x001921ac: CFA=reg31
  0x00192200: CFA=reg29: reg31=reg29+16 reg30=[CFA+8] reg29=[CFA]
  0x0019234c: CFA=reg29: reg31=reg29+16 reg19=[CFA+16] reg20=[CFA+24] reg21=[CFA+32] reg22=[CFA+40] reg30=[CFA+8] reg29=[CFA]
  0x0019240c: CFA=reg31
  0x0019257c: CFA=reg29: reg31=reg29+16 reg19=[CFA+16] reg20=[CFA+24] reg21=[CFA+32] reg22=[CFA+40] reg23=[CFA+48] reg24=[CFA+56] reg25=[CFA+64] reg26=[CFA+72] reg30=[CFA+8] reg29=[CFA]
  0x00192ee4: CFA=reg31
  0x00192eec: CFA=reg29: reg31=reg29+16 reg30=[CFA+8] reg29=[CFA]
  0x00193134: CFA=reg31
  0x00193158: CFA=reg29: reg31=reg29+16 reg30=[CFA+8] reg29=[CFA]
  0x001933c4: CFA=reg31
  0x001933cc: CFA=reg29: reg31=reg29+16 reg30=[CFA+8] reg29=[CFA]
  0x00193424: CFA=reg29: reg31=reg29+16 reg19=[CFA+16] reg20=[CFA+24] reg21=[CFA+32] reg22=[CFA+40] reg30=[CFA+8] reg29=[CFA]
  0x00193494: CFA=reg29: reg31=reg29+16 reg19=[CFA+16] reg20=[CFA+24] reg30=[CFA+8] reg29=[CFA]
  0x0019353c: CFA=reg29: reg31=reg29+16 reg19=[CFA+16] reg20=[CFA+24] reg21=[CFA+32] reg22=[CFA+40] reg30=[CFA+8] reg29=[CFA]
  0x00193900: CFA=reg29: reg31=reg29+16 reg19=[CFA+16] reg20=[CFA+24] reg30=[CFA+8] reg29=[CFA]
  0x001939e0: CFA=reg29: reg31=reg29+16 reg19=[CFA+16] reg20=[CFA+24] reg30=[CFA+8] reg29=[CFA]
  0x00193bc4: CFA=reg29: reg31=reg29+16 reg19=[CFA+16] reg20=[CFA+24] reg30=[CFA+8] reg29=[CFA]
  0x00193c58: CFA=reg31
  0x00193d14: CFA=reg29: reg31=reg29+16 reg19=[CFA+16] reg20=[CFA+24] reg21=[CFA+32] reg22=[CFA+40] reg23=[CFA+48] reg24=[CFA+56] reg25=[CFA+64] reg26=[CFA+72] reg30=[CFA+8] reg29=[CFA]
  0x00194014: CFA=reg29: reg31=reg29+16 reg19=[CFA+16] reg20=[CFA+24] reg21=[CFA+32] reg22=[CFA+40] reg23=[CFA+48] reg24=[CFA+56] reg25=[CFA+64] reg26=[CFA+72] reg27=[CFA+80] reg28=[CFA+88] reg30=[CFA+8] reg29=[CFA]
  0x001944c8: CFA=reg29: reg31=reg29+16 reg19=[CFA+16] reg20=[CFA+24] reg30=[CFA+8] reg29=[CFA]
  0x001945b4: CFA=reg29: reg31=reg29+16 reg19=[CFA+16] reg20=[CFA+24] reg21=[CFA+32] reg22=[CFA+40] reg23=[CFA+48] reg24=[CFA+56] reg25=[CFA+64] reg26=[CFA+72] reg27=[CFA+80] reg28=[CFA+88] reg30=[CFA+8] reg29=[CFA]
  0x00194f0c: CFA=reg29: reg31=reg29+16 reg19=[CFA+16] reg20=[CFA+24] reg21=[CFA+32] reg22=[CFA+40] reg23=[CFA+48] reg24=[CFA+56] reg25=[CFA+64] reg26=[CFA+72] reg30=[CFA+8] reg29=[CFA]
  0x001955b4: CFA=reg29: reg31=reg29+16 reg19=[CFA+16] reg20=[CFA+24] reg21=[CFA+32] reg22=[CFA+40] reg23=[CFA+48] reg24=[CFA+56] reg25=[CFA+64] reg26=[CFA+72] reg27=[CFA+80] reg28=[CFA+88] reg30=[CFA+8] reg29=[CFA]
  0x001960b8: CFA=reg31
  0x001962d0: CFA=reg29: reg31=reg29+16 reg19=[CFA+16] reg20=[CFA+24] reg21=[CFA+32] reg22=[CFA+40] reg30=[CFA+8] reg29=[CFA]
  0x00196480: CFA=reg29: reg31=reg29+16 reg19=[CFA+16] reg20=[CFA+24] reg21=[CFA+32] reg22=[CFA+40] reg23=[CFA+48] reg24=[CFA+56] reg30=[CFA+8] reg29=[CFA]
  0x00196a6c: CFA=reg29: reg31=reg29+16 reg19=[CFA+16] reg20=[CFA+24] reg30=[CFA+8] reg29=[CFA]
  0x00196c1c: CFA=reg29: reg31=reg29+16 reg30=[CFA+8] reg29=[CFA]
  0x00196d4c: CFA=reg31
  0x00196d74: CFA=reg29: reg31=reg29+16 reg30=[CFA+8] reg29=[CFA]
  0x00196db4: CFA=reg29: reg31=reg29+16 reg19=[CFA+16] reg20=[CFA+24] reg21=[CFA+32] reg22=[CFA+40] reg30=[CFA+8] reg29=[CFA]
  0x00196e28: CFA=reg29: reg31=reg29+16 reg30=[CFA+8] reg29=[CFA]
  0x00196e6c: CFA=reg29: reg31=reg29+16 reg19=[CFA+16] reg20=[CFA+24] reg21=[CFA+32] reg22=[CFA+40] reg30=[CFA+8] reg29=[CFA]
  0x00196f68: CFA=reg29: reg31=reg29+16 reg19=[CFA+16] reg20=[CFA+24] reg30=[CFA+8] reg29=[CFA]
  0x00197074: CFA=reg29: reg31=reg29+16 reg19=[CFA+16] reg20=[CFA+24] reg21=[CFA+32] reg22=[CFA+40] reg23=[CFA+48] reg24=[CFA+56] reg25=[CFA+64] reg26=[CFA+72] reg27=[CFA+80] reg28=[CFA+88] reg30=[CFA+8] reg29=[CFA]
  0x00197180: CFA=reg29: reg31=reg29+16 reg19=[CFA+16] reg20=[CFA+24] reg21=[CFA+32] reg22=[CFA+40] reg23=[CFA+48] reg24=[CFA+56] reg30=[CFA+8] reg29=[CFA]
  0x00197498: CFA=reg29: reg31=reg29+16 reg19=[CFA+16] reg20=[CFA+24] reg30=[CFA+8] reg29=[CFA]
  0x00197514: CFA=reg29: reg31=reg29+16 reg19=[CFA+16] reg20=[CFA+24] reg30=[CFA+8] reg29=[CFA]
  0x00197550: CFA=reg29: reg31=reg29+16 reg19=[CFA+16] reg20=[CFA+24] reg21=[CFA+32] reg22=[CFA+40] reg23=[CFA+48] reg24=[CFA+56] reg25=[CFA+64] reg26=[CFA+72] reg27=[CFA+80] reg28=[CFA+88] reg30=[CFA+8] reg29=[CFA]
  0x00197664: CFA=reg29: reg31=reg29+16 reg19=[CFA+16] reg20=[CFA+24] reg30=[CFA+8] reg29=[CFA]
  0x001976ac: CFA=reg29: reg31=reg29+16 reg19=[CFA+16] reg20=[CFA+24] reg21=[CFA+32] reg22=[CFA+40] reg30=[CFA+8] reg29=[CFA]
  0x00197824: CFA=reg29: reg31=reg29+16 reg19=[CFA+16] reg20=[CFA+24] reg30=[CFA+8] reg29=[CFA]
  0x00197854: CFA=reg29: reg31=reg29+16 reg19=[CFA+16] reg20=[CFA+24] reg21=[CFA+32] reg22=[CFA+40] reg23=[CFA+48] reg24=[CFA+56] reg25=[CFA+64] reg26=[CFA+72] reg27=[CFA+80] reg28=[CFA+88] reg14=[CFA+96] reg15=[CFA+104] reg30=[CFA+8] reg29=[CFA]
  0x0019888c: CFA=reg29: reg31=reg29+16 reg19=[CFA+16] reg20=[CFA+24] reg21=[CFA+32] reg22=[CFA+40] reg23=[CFA+48] reg24=[CFA+56] reg25=[CFA+64] reg26=[CFA+72] reg27=[CFA+80] reg28=[CFA+88] reg30=[CFA+8] reg29=[CFA]
  0x00198c28: CFA=reg29: reg31=reg29+16 reg19=[CFA+16] reg20=[CFA+24] reg30=[CFA+8] reg29=[CFA]
  0x00198cd4: CFA=reg29: reg31=reg29+16 reg19=[CFA+16] reg20=[CFA+24] reg21=[CFA+32] reg22=[CFA+40] reg30=[CFA+8] reg29=[CFA]
  0x00198d44: CFA=reg31
  0x00198d4c: CFA=reg29: reg31=reg29+16 reg19=[CFA+16] reg20=[CFA+24] reg21=[CFA+32] reg22=[CFA+40] reg23=[CFA+48] reg24=[CFA+56] reg30=[CFA+8] reg29=[CFA]
  0x00198eac: CFA=reg29: reg31=reg29+16 reg19=[CFA+16] reg20=[CFA+24] reg30=[CFA+8] reg29=[CFA]
  0x00198f80: CFA=reg31
  0x00198f88: CFA=reg29: reg31=reg29+16 reg19=[CFA+16] reg20=[CFA+24] reg21=[CFA+32] reg22=[CFA+40] reg23=[CFA+48] reg24=[CFA+56] reg30=[CFA+8] reg29=[CFA]
  0x0019909c: CFA=reg29: reg31=reg29+16 reg19=[CFA+16] reg20=[CFA+24] reg21=[CFA+32] reg22=[CFA+40] reg23=[CFA+48] reg24=[CFA+56] reg30=[CFA+8] reg29=[CFA]
  0x00199244: CFA=reg29: reg31=reg29+16 reg19=[CFA+16] reg20=[CFA+24] reg21=[CFA+32] reg22=[CFA+40] reg23=[CFA+48] reg24=[CFA+56] reg25=[CFA+64] reg26=[CFA+72] reg27=[CFA+80] reg28=[CFA+88] reg30=[CFA+8] reg29=[CFA]
  0x00199378: CFA=reg29: reg31=reg29+16 reg19=[CFA+16] reg20=[CFA+24] reg21=[CFA+32] reg22=[CFA+40] reg23=[CFA+48] reg24=[CFA+56] reg25=[CFA+64] reg26=[CFA+72] reg27=[CFA+80] reg28=[CFA+88] reg30=[CFA+8] reg29=[CFA]
  0x001996e8: CFA=reg29: reg31=reg29+16 reg19=[CFA+16] reg20=[CFA+24] reg21=[CFA+32] reg22=[CFA+40] reg23=[CFA+48] reg24=[CFA+56] reg25=[CFA+64] reg26=[CFA+72] reg30=[CFA+8] reg29=[CFA]
  0x001999d4: CFA=reg29: reg31=reg29+16 reg19=[CFA+16] reg20=[CFA+24] reg21=[CFA+32] reg22=[CFA+40] reg30=[CFA+8] reg29=[CFA]
  0x00199a44: CFA=reg29: reg31=reg29+16 reg19=[CFA+16] reg20=[CFA+24] reg21=[CFA+32] reg22=[CFA+40] reg23=[CFA+48] reg24=[CFA+56] reg25=[CFA+64] reg26=[CFA+72] reg27=[CFA+80] reg28=[CFA+88] reg30=[CFA+8] reg29=[CFA]
  0x00199c88: CFA=reg29: reg31=reg29+16 reg19=[CFA+16] reg20=[CFA+24] reg21=[CFA+32] reg22=[CFA+40] reg23=[CFA+48] reg24=[CFA+56] reg25=[CFA+64] reg26=[CFA+72] reg27=[CFA+80] reg28=[CFA+88] reg30=[CFA+8] reg29=[CFA]
  0x00199ee0: CFA=reg29: reg31=reg29+16 reg19=[CFA+16] reg20=[CFA+24] reg30=[CFA+8] reg29=[CFA]
  0x0019a03c: CFA=reg29: reg31=reg29+16 reg19=[CFA+16] reg20=[CFA+24] reg21=[CFA+32] reg22=[CFA+40] reg23=[CFA+48] reg24=[CFA+56] reg27=[CFA+64] reg28=[CFA+72] reg30=[CFA+8] reg29=[CFA]
  0x0019a2ec: CFA=reg29: reg31=reg29+16 reg19=[CFA+16] reg20=[CFA+24] reg21=[CFA+32] reg22=[CFA+40] reg23=[CFA+48] reg24=[CFA+56] reg25=[CFA+64] reg26=[CFA+72] reg30=[CFA+8] reg29=[CFA]
  0x0019a7ec: CFA=reg29: reg31=reg29+16 reg19=[CFA+16] reg20=[CFA+24] reg21=[CFA+32] reg22=[CFA+40] reg30=[CFA+8] reg29=[CFA]
  0x0019a888: CFA=reg29: reg31=reg29+16 reg19=[CFA+16] reg20=[CFA+24] reg21=[CFA+32] reg22=[CFA+40] reg23=[CFA+48] reg24=[CFA+56] reg30=[CFA+8] reg29=[CFA]
  0x0019aa30: CFA=reg29: reg31=reg29+16 reg19=[CFA+16] reg20=[CFA+24] reg21=[CFA+32] reg22=[CFA+40] reg23=[CFA+48] reg24=[CFA+56] reg25=[CFA+64] reg26=[CFA+72] reg27=[CFA+80] reg28=[CFA+88] reg30=[CFA+8] reg29=[CFA]
  0x0019b56c: CFA=reg29: reg31=reg29+16 reg19=[CFA+16] reg20=[CFA+24] reg21=[CFA+32] reg22=[CFA+40] reg23=[CFA+48] reg24=[CFA+56] reg25=[CFA+64] reg26=[CFA+72] reg27=[CFA+80] reg28=[CFA+88] reg30=[CFA+8] reg29=[CFA]
  0x0019b8f8: CFA=reg29: reg31=reg29+16 reg19=[CFA+16] reg20=[CFA+24] reg21=[CFA+32] reg22=[CFA+40] reg23=[CFA+48] reg24=[CFA+56] reg25=[CFA+64] reg26=[CFA+72] reg27=[CFA+80] reg28=[CFA+88] reg30=[CFA+8] reg29=[CFA]
  0x0019bd34: CFA=reg29: reg31=reg29+16 reg19=[CFA+16] reg20=[CFA+24] reg21=[CFA+32] reg22=[CFA+40] reg23=[CFA+48] reg24=[CFA+56] reg25=[CFA+64] reg26=[CFA+72] reg27=[CFA+80] reg28=[CFA+88] reg30=[CFA+8] reg29=[CFA]
  0x0019c16c: CFA=reg29: reg31=reg29+16 reg19=[CFA+16] reg20=[CFA+24] reg21=[CFA+32] reg22=[CFA+40] reg23=[CFA+48] reg24=[CFA+56] reg25=[CFA+64] reg26=[CFA+72] reg27=[CFA+80] reg28=[CFA+88] reg30=[CFA+8] reg29=[CFA]
  0x0019c470: CFA=reg31
  0x0019c484: CFA=reg29: reg31=reg29+16 reg19=[CFA+16] reg20=[CFA+24] reg21=[CFA+32] reg22=[CFA+40] reg30=[CFA+8] reg29=[CFA]
  0x0019c4f4: CFA=reg29: reg31=reg29+16 reg19=[CFA+16] reg20=[CFA+24] reg21=[CFA+32] reg22=[CFA+40] reg30=[CFA+8] reg29=[CFA]
  0x0019c564: CFA=reg29: reg31=reg29+16 reg19=[CFA+16] reg20=[CFA+24] reg21=[CFA+32] reg22=[CFA+40] reg23=[CFA+48] reg24=[CFA+56] reg30=[CFA+8] reg29=[CFA]
  0x0019c678: CFA=reg29: reg31=reg29+16 reg19=[CFA+16] reg20=[CFA+24] reg21=[CFA+32] reg22=[CFA+40] reg23=[CFA+48] reg24=[CFA+56] reg27=[CFA+64] reg28=[CFA+72] reg30=[CFA+8] reg29=[CFA]
  0x0019c7b0: CFA=reg29: reg31=reg29+16 reg19=[CFA+16] reg20=[CFA+24] reg21=[CFA+32] reg22=[CFA+40] reg23=[CFA+48] reg24=[CFA+56] reg25=[CFA+64] reg26=[CFA+72] reg27=[CFA+80] reg28=[CFA+88] reg30=[CFA+8] reg29=[CFA]
  0x0019c98c: CFA=reg29: reg31=reg29+16 reg30=[CFA+8] reg29=[CFA]
  0x0019c9cc: CFA=reg29: reg31=reg29+16 reg19=[CFA+16] reg20=[CFA+24] reg21=[CFA+32] reg22=[CFA+40] reg30=[CFA+8] reg29=[CFA]
  0x0019ca40: CFA=reg29: reg31=reg29+16 reg30=[CFA+8] reg29=[CFA]
  0x0019ca84: CFA=reg31
  0x0019cabc: CFA=reg29: reg31=reg29+16 reg30=[CFA+8] reg29=[CFA]
  0x0019caec: CFA=reg29: reg31=reg29+16 reg19=[CFA+16] reg20=[CFA+24] reg21=[CFA+32] reg22=[CFA+40] reg23=[CFA+48] reg24=[CFA+56] reg30=[CFA+8] reg29=[CFA]
  0x0019cd5c: CFA=reg29: reg31=reg29+16 reg19=[CFA+16] reg20=[CFA+24] reg21=[CFA+32] reg22=[CFA+40] reg23=[CFA+48] reg24=[CFA+56] reg25=[CFA+64] reg26=[CFA+72] reg30=[CFA+8] reg29=[CFA]
  0x0019ce10: CFA=reg29: reg31=reg29+16 reg19=[CFA+16] reg20=[CFA+24] reg30=[CFA+8] reg29=[CFA]
  0x0019ceb4: CFA=reg29: reg31=reg29+16 reg30=[CFA+8] reg29=[CFA]
  0x0019cf10: CFA=reg29: reg31=reg29+16 reg19=[CFA+16] reg20=[CFA+24] reg21=[CFA+32] reg22=[CFA+40] reg23=[CFA+48] reg24=[CFA+56] reg30=[CFA+8] reg29=[CFA]
  0x0019d068: CFA=reg29: reg31=reg29+16 reg19=[CFA+16] reg20=[CFA+24] reg30=[CFA+8] reg29=[CFA]
  0x0019d0f0: CFA=reg31
  0x0019d108: CFA=reg29: reg31=reg29+16 reg19=[CFA+16] reg20=[CFA+24] reg30=[CFA+8] reg29=[CFA]
  0x0019d2f0: CFA=reg31
  0x0019d310: CFA=reg29: reg31=reg29+16 reg19=[CFA+16] reg20=[CFA+24] reg30=[CFA+8] reg29=[CFA]
  0x0019d390: CFA=reg31
  0x0019d3a4: CFA=reg29: reg31=reg29+16 reg19=[CFA+16] reg20=[CFA+24] reg21=[CFA+32] reg22=[CFA+40] reg30=[CFA+8] reg29=[CFA]
  0x0019d720: CFA=reg31
  0x0019d868: CFA=reg29: reg31=reg29+16 reg19=[CFA+16] reg20=[CFA+24] reg21=[CFA+32] reg22=[CFA+40] reg30=[CFA+8] reg29=[CFA]
  0x0019d968: CFA=reg31
  0x0019ddbc: CFA=reg29: reg31=reg29+16 reg30=[CFA+8] reg29=[CFA]
  0x0019dee8: CFA=reg29: reg31=reg29+16 reg19=[CFA+16] reg20=[CFA+24] reg21=[CFA+32] reg22=[CFA+40] reg23=[CFA+48] reg24=[CFA+56] reg25=[CFA+64] reg26=[CFA+72] reg27=[CFA+80] reg28=[CFA+88] reg30=[CFA+8] reg29=[CFA]
  0x0019e550: CFA=reg29: reg31=reg29+16 reg30=[CFA+8] reg29=[CFA]
  0x0019e57c: CFA=reg29: reg31=reg29+16 reg19=[CFA+16] reg20=[CFA+24] reg30=[CFA+8] reg29=[CFA]
  0x0019e6a0: CFA=reg31
  0x0019e6b4: CFA=reg29: reg31=reg29+16 reg30=[CFA+8] reg29=[CFA]
  0x0019e744: CFA=reg29: reg31=reg29+16 reg19=[CFA+16] reg20=[CFA+24] reg30=[CFA+8] reg29=[CFA]
  0x0019e7c4: CFA=reg29: reg31=reg29+16 reg30=[CFA+8] reg29=[CFA]
  0x0019e7d0: CFA=reg29: reg31=reg29+16 reg19=[CFA+16] reg20=[CFA+24] reg21=[CFA+32] reg22=[CFA+40] reg23=[CFA+48] reg24=[CFA+56] reg25=[CFA+64] reg26=[CFA+72] reg30=[CFA+8] reg29=[CFA]
  0x0019e9d8: CFA=reg31
  0x0019ea00: CFA=reg29: reg31=reg29+16 reg19=[CFA+16] reg20=[CFA+24] reg30=[CFA+8] reg29=[CFA]
  0x0019ea58: CFA=reg29: reg31=reg29+16 reg19=[CFA+16] reg20=[CFA+24] reg30=[CFA+8] reg29=[CFA]
  0x0019ead8: CFA=reg29: reg31=reg29+16 reg30=[CFA+8] reg29=[CFA]
  0x0019eb40: CFA=reg29: reg31=reg29+16 reg19=[CFA+16] reg20=[CFA+24] reg21=[CFA+32] reg22=[CFA+40] reg27=[CFA+48] reg28=[CFA+56] reg30=[CFA+8] reg29=[CFA]
  0x0019ecfc: CFA=reg29: reg31=reg29+16 reg19=[CFA+16] reg20=[CFA+24] reg21=[CFA+32] reg22=[CFA+40] reg30=[CFA+8] reg29=[CFA]
  0x0019ee64: CFA=reg29: reg31=reg29+16 reg19=[CFA+16] reg20=[CFA+24] reg30=[CFA+8] reg29=[CFA]
  0x0019ef00: CFA=reg31
  0x0019ef1c: CFA=reg29: reg31=reg29+16 reg30=[CFA+8] reg29=[CFA]
  0x0019ef58: CFA=reg31
  0x0019ef5c: CFA=reg29: reg31=reg29+16 reg19=[CFA+16] reg20=[CFA+24] reg21=[CFA+32] reg22=[CFA+40] reg30=[CFA+8] reg29=[CFA]
  0x0019f0c4: CFA=reg29: reg31=reg29+16 reg19=[CFA+16] reg20=[CFA+24] reg21=[CFA+32] reg22=[CFA+40] reg23=[CFA+48] reg24=[CFA+56] reg25=[CFA+64] reg26=[CFA+72] reg27=[CFA+80] reg28=[CFA+88] reg14=[CFA+96] reg15=[CFA+104] reg30=[CFA+8] reg29=[CFA]
  0x001a1fa8: CFA=reg29: reg31=reg29+16 reg19=[CFA+16] reg20=[CFA+24] reg21=[CFA+32] reg22=[CFA+40] reg23=[CFA+48] reg24=[CFA+56] reg25=[CFA+64] reg26=[CFA+72] reg27=[CFA+80] reg28=[CFA+88] reg30=[CFA+8] reg29=[CFA]
  0x001a2498: CFA=reg31
  0x001a24ac: CFA=reg29: reg31=reg29+16 reg19=[CFA+16] reg20=[CFA+24] reg30=[CFA+8] reg29=[CFA]
  0x001a2598: CFA=reg29: reg31=reg29+16 reg19=[CFA+16] reg20=[CFA+24] reg21=[CFA+32] reg22=[CFA+40] reg23=[CFA+48] reg24=[CFA+56] reg25=[CFA+64] reg26=[CFA+72] reg30=[CFA+8] reg29=[CFA]
  0x001a27b8: CFA=reg29: reg31=reg29+16 reg19=[CFA+16] reg20=[CFA+24] reg21=[CFA+32] reg22=[CFA+40] reg30=[CFA+8] reg29=[CFA]
  0x001a2874: CFA=reg31
  0x001a288c: CFA=reg29: reg31=reg29+16 reg19=[CFA+16] reg20=[CFA+24] reg30=[CFA+8] reg29=[CFA]
  0x001a28e0: CFA=reg29: reg31=reg29+16 reg19=[CFA+16] reg20=[CFA+24] reg21=[CFA+32] reg22=[CFA+40] reg30=[CFA+8] reg29=[CFA]
  0x001a2990: CFA=reg29: reg31=reg29+16 reg19=[CFA+16] reg20=[CFA+24] reg21=[CFA+32] reg22=[CFA+40] reg30=[CFA+8] reg29=[CFA]
  0x001a2a7c: CFA=reg31
  0x001a2aa0: CFA=reg29: reg31=reg29+16 reg19=[CFA+16] reg20=[CFA+24] reg21=[CFA+32] reg22=[CFA+40] reg30=[CFA+8] reg29=[CFA]
  0x001a2bfc: CFA=reg31
  0x001a2e00: CFA=reg29: reg31=reg29+16 reg19=[CFA+16] reg20=[CFA+24] reg21=[CFA+32] reg22=[CFA+40] reg23=[CFA+48] reg24=[CFA+56] reg25=[CFA+64] reg26=[CFA+72] reg27=[CFA+80] reg28=[CFA+88] reg30=[CFA+8] reg29=[CFA]
  0x001a343c: CFA=reg29: reg31=reg29+16 reg19=[CFA+16] reg20=[CFA+24] reg21=[CFA+32] reg22=[CFA+40] reg23=[CFA+48] reg24=[CFA+56] reg25=[CFA+64] reg26=[CFA+72] reg27=[CFA+80] reg28=[CFA+88] reg30=[CFA+8] reg29=[CFA]
  0x001a4708: CFA=reg29: reg31=reg29+16 reg19=[CFA+16] reg20=[CFA+24] reg21=[CFA+32] reg22=[CFA+40] reg23=[CFA+48] reg24=[CFA+56] reg25=[CFA+64] reg26=[CFA+72] reg27=[CFA+80] reg28=[CFA+88] reg30=[CFA+8] reg29=[CFA]
  0x001a5000: CFA=reg29: reg31=reg29+16 reg19=[CFA+16] reg20=[CFA+24] reg21=[CFA+32] reg22=[CFA+40] reg30=[CFA+8] reg29=[CFA]
  0x001a50ac: CFA=reg31
  0x001a50b0: CFA=reg29: reg31=reg29+16 reg19=[CFA+16] reg20=[CFA+24] reg21=[CFA+32] reg22=[CFA+40] reg23=[CFA+48] reg24=[CFA+56] reg25=[CFA+64] reg26=[CFA+72] reg30=[CFA+8] reg29=[CFA]
  0x001a52d0: CFA=reg29: reg31=reg29+16 reg19=[CFA+16] reg20=[CFA+24] reg21=[CFA+32] reg22=[CFA+40] reg27=[CFA+48] reg28=[CFA+56] reg30=[CFA+8] reg29=[CFA]
  0x001a5460: CFA=reg31
  0x001a5484: CFA=reg29: reg31=reg29+16 reg19=[CFA+16] reg20=[CFA+24] reg30=[CFA+8] reg29=[CFA]
  0x001a54ec: CFA=reg31
  0x001a5510: CFA=reg29: reg31=reg29+16 reg19=[CFA+16] reg20=[CFA+24] reg21=[CFA+32] reg22=[CFA+40] reg23=[CFA+48] reg24=[CFA+56] reg30=[CFA+8] reg29=[CFA]
  0x001a5674: CFA=reg29: reg31=reg29+16 reg19=[CFA+16] reg20=[CFA+24] reg21=[CFA+32] reg22=[CFA+40] reg23=[CFA+48] reg24=[CFA+56] reg25=[CFA+64] reg26=[CFA+72] reg27=[CFA+80] reg28=[CFA+88] reg30=[CFA+8] reg29=[CFA]
  0x001a7b44: CFA=reg29: reg31=reg29+16 reg19=[CFA+16] reg20=[CFA+24] reg21=[CFA+32] reg22=[CFA+40] reg23=[CFA+48] reg24=[CFA+56] reg25=[CFA+64] reg26=[CFA+72] reg30=[CFA+8] reg29=[CFA]
  0x001a7d7c: CFA=reg31
  0x001a7da0: CFA=reg29: reg31=reg29+16 reg19=[CFA+16] reg20=[CFA+24] reg21=[CFA+32] reg22=[CFA+40] reg23=[CFA+48] reg24=[CFA+56] reg30=[CFA+8] reg29=[CFA]
  0x001a819c: CFA=reg29: reg31=reg29+16 reg30=[CFA+8] reg29=[CFA]
  0x001a8598: CFA=reg29: reg31=reg29+16 reg19=[CFA+16] reg20=[CFA+24] reg21=[CFA+32] reg22=[CFA+40] reg23=[CFA+48] reg24=[CFA+56] reg25=[CFA+64] reg26=[CFA+72] reg27=[CFA+80] reg28=[CFA+88] reg30=[CFA+8] reg29=[CFA]
  0x001aa330: CFA=reg31
  0x001aa8c4: CFA=reg29: reg31=reg29+16 reg19=[CFA+16] reg20=[CFA+24] reg30=[CFA+8] reg29=[CFA]
  0x001aa968: CFA=reg29: reg31=reg29+16 reg19=[CFA+16] reg20=[CFA+24] reg21=[CFA+32] reg22=[CFA+40] reg30=[CFA+8] reg29=[CFA]
  0x001aa9f8: CFA=reg29: reg31=reg29+16 reg19=[CFA+16] reg20=[CFA+24] reg21=[CFA+32] reg22=[CFA+40] reg23=[CFA+48] reg24=[CFA+56] reg25=[CFA+64] reg26=[CFA+72] reg30=[CFA+8] reg29=[CFA]
  0x001aacfc: CFA=reg29: reg31=reg29+16 reg19=[CFA+16] reg20=[CFA+24] reg30=[CFA+8] reg29=[CFA]
  0x001aae64: CFA=reg29: reg31=reg29+16 reg19=[CFA+16] reg20=[CFA+24] reg21=[CFA+32] reg22=[CFA+40] reg30=[CFA+8] reg29=[CFA]
  0x001aaef8: CFA=reg29: reg31=reg29+16 reg19=[CFA+16] reg20=[CFA+24] reg30=[CFA+8] reg29=[CFA]
  0x001aaf9c: CFA=reg31
  0x001aafb8: CFA=reg29: reg31=reg29+16 reg19=[CFA+16] reg20=[CFA+24] reg21=[CFA+32] reg22=[CFA+40] reg30=[CFA+8] reg29=[CFA]
  0x001ab098: CFA=reg31
  0x001ab28c: CFA=reg29: reg31=reg29+16 reg19=[CFA+16] reg20=[CFA+24] reg21=[CFA+32] reg22=[CFA+40] reg30=[CFA+8] reg29=[CFA]
  0x001abff0: CFA=reg29: reg31=reg29+16 reg19=[CFA+16] reg20=[CFA+24] reg30=[CFA+8] reg29=[CFA]
  0x001ac4d4: CFA=reg31+80
  0x001acfd4: CFA=reg29: reg31=reg29+16 reg19=[CFA+16] reg20=[CFA+24] reg30=[CFA+8] reg29=[CFA]
  0x001ad0f4: CFA=reg29: reg31=reg29+16 reg19=[CFA+16] reg20=[CFA+24] reg21=[CFA+32] reg22=[CFA+40] reg30=[CFA+8] reg29=[CFA]
  0x001ad270: CFA=reg29: reg31=reg29+16 reg30=[CFA+8] reg29=[CFA]
  0x001ad3d8: CFA=reg29: reg31=reg29+16 reg19=[CFA+16] reg20=[CFA+24] reg21=[CFA+32] reg22=[CFA+40] reg23=[CFA+48] reg24=[CFA+56] reg25=[CFA+64] reg26=[CFA+72] reg27=[CFA+80] reg28=[CFA+88] reg30=[CFA+8] reg29=[CFA]
  0x001add68: CFA=reg31
  0x001add9c: CFA=reg29: reg31=reg29+16 reg19=[CFA+16] reg20=[CFA+24] reg30=[CFA+8] reg29=[CFA]
  0x001ade40: CFA=reg31
  0x001adfe0: CFA=reg29: reg31=reg29+16 reg19=[CFA+16] reg20=[CFA+24] reg30=[CFA+8] reg29=[CFA]
  0x001ae0a0: CFA=reg29: reg31=reg29+16 reg19=[CFA+16] reg20=[CFA+24] reg21=[CFA+32] reg22=[CFA+40] reg23=[CFA+48] reg24=[CFA+56] reg25=[CFA+64] reg26=[CFA+72] reg27=[CFA+80] reg28=[CFA+88] reg30=[CFA+8] reg29=[CFA]
  0x001ae48c: CFA=reg31
  0x001ae724: CFA=reg29: reg31=reg29+16 reg19=[CFA+16] reg20=[CFA+24] reg30=[CFA+8] reg29=[CFA]
  0x001ae848: CFA=reg29: reg31=reg29+16 reg19=[CFA+16] reg20=[CFA+24] reg30=[CFA+8] reg29=[CFA]
  0x001ae8d0: CFA=reg29: reg31=reg29+16 reg19=[CFA+16] reg20=[CFA+24] reg21=[CFA+32] reg22=[CFA+40] reg23=[CFA+48] reg24=[CFA+56] reg25=[CFA+64] reg26=[CFA+72] reg27=[CFA+80] reg28=[CFA+88] reg30=[CFA+8] reg29=[CFA]
  0x001aeb54: CFA=reg29: reg31=reg29+16 reg30=[CFA+8] reg29=[CFA]
  0x001aec64: CFA=reg29: reg31=reg29+16 reg19=[CFA+16] reg20=[CFA+24] reg30=[CFA+8] reg29=[CFA]
  0x001aecd4: CFA=reg29: reg31=reg29+16 reg19=[CFA+16] reg20=[CFA+24] reg21=[CFA+32] reg22=[CFA+40] reg23=[CFA+48] reg24=[CFA+56] reg25=[CFA+64] reg26=[CFA+72] reg27=[CFA+80] reg28=[CFA+88] reg30=[CFA+8] reg29=[CFA]
  0x001b35e0: CFA=reg29: reg31=reg29+16 reg19=[CFA+16] reg20=[CFA+24] reg30=[CFA+8] reg29=[CFA]
  0x001b3690: CFA=reg29: reg31=reg29+16 reg19=[CFA+16] reg20=[CFA+24] reg21=[CFA+32] reg22=[CFA+40] reg30=[CFA+8] reg29=[CFA]
  0x001b37d0: CFA=reg31
  0x001b3814: CFA=reg29: reg31=reg29+16 reg19=[CFA+16] reg20=[CFA+24] reg21=[CFA+32] reg22=[CFA+40] reg23=[CFA+48] reg24=[CFA+56] reg30=[CFA+8] reg29=[CFA]
  0x001b394c: CFA=reg31
  0x001b396c: CFA=reg29: reg31=reg29+16 reg19=[CFA+16] reg20=[CFA+24] reg30=[CFA+8] reg29=[CFA]
  0x001b39b8: CFA=reg29: reg31=reg29+16 reg19=[CFA+16] reg20=[CFA+24] reg21=[CFA+32] reg22=[CFA+40] reg30=[CFA+8] reg29=[CFA]
  0x001b3a8c: CFA=reg31
  0x001b3ab4: CFA=reg29: reg31=reg29+16 reg19=[CFA+16] reg20=[CFA+24] reg30=[CFA+8] reg29=[CFA]
  0x001b3b24: CFA=reg31
  0x001b3b40: CFA=reg29: reg31=reg29+16 reg19=[CFA+16] reg20=[CFA+24] reg30=[CFA+8] reg29=[CFA]
  0x001b3c08: CFA=reg31
  0x001b3c1c: CFA=reg29: reg31=reg29+16 reg19=[CFA+16] reg20=[CFA+24] reg21=[CFA+32] reg22=[CFA+40] reg23=[CFA+48] reg24=[CFA+56] reg25=[CFA+64] reg26=[CFA+72] reg30=[CFA+8] reg29=[CFA]
  0x001b3e20: CFA=reg31
  0x001b406c: CFA=reg29: reg31=reg29+16 reg19=[CFA+16] reg20=[CFA+24] reg21=[CFA+32] reg22=[CFA+40] reg30=[CFA+8] reg29=[CFA]
  0x001b411c: CFA=reg29: reg31=reg29+16 reg19=[CFA+16] reg20=[CFA+24] reg21=[CFA+32] reg22=[CFA+40] reg23=[CFA+48] reg24=[CFA+56] reg25=[CFA+64] reg26=[CFA+72] reg27=[CFA+80] reg28=[CFA+88] reg30=[CFA+8] reg29=[CFA]
  0x001b4424: CFA=reg31
  0x001b4b24: CFA=reg29: reg31=reg29+16 reg19=[CFA+16] reg20=[CFA+24] reg30=[CFA+8] reg29=[CFA]
  0x001b4c88: CFA=reg31
  0x001b4ca0: CFA=reg29: reg31=reg29+16 reg19=[CFA+16] reg20=[CFA+24] reg30=[CFA+8] reg29=[CFA]
  0x001b4d04: CFA=reg29: reg31=reg29+16 reg19=[CFA+16] reg20=[CFA+24] reg21=[CFA+32] reg22=[CFA+40] reg23=[CFA+48] reg24=[CFA+56] reg25=[CFA+64] reg26=[CFA+72] reg27=[CFA+80] reg28=[CFA+88] reg30=[CFA+8] reg29=[CFA]
  0x001b5a48: CFA=reg29: reg31=reg29+16 reg19=[CFA+16] reg20=[CFA+24] reg21=[CFA+32] reg22=[CFA+40] reg23=[CFA+48] reg24=[CFA+56] reg25=[CFA+64] reg26=[CFA+72] reg27=[CFA+80] reg28=[CFA+88] reg30=[CFA+8] reg29=[CFA]
  0x001b647c: CFA=reg29: reg31=reg29+16 reg19=[CFA+16] reg20=[CFA+24] reg21=[CFA+32] reg22=[CFA+40] reg23=[CFA+48] reg24=[CFA+56] reg25=[CFA+64] reg26=[CFA+72] reg27=[CFA+80] reg28=[CFA+88] reg30=[CFA+8] reg29=[CFA]
  0x001b6eb8: CFA=reg29: reg31=reg29+16 reg19=[CFA+16] reg20=[CFA+24] reg30=[CFA+8] reg29=[CFA]
  0x001b6f34: CFA=reg29: reg31=reg29+16 reg19=[CFA+16] reg20=[CFA+24] reg21=[CFA+32] reg22=[CFA+40] reg30=[CFA+8] reg29=[CFA]
  0x001b7018: CFA=reg31
  0x001b7048: CFA=reg29: reg31=reg29+16 reg19=[CFA+16] reg20=[CFA+24] reg21=[CFA+32] reg22=[CFA+40] reg23=[CFA+48] reg24=[CFA+56] reg25=[CFA+64] reg26=[CFA+72] reg27=[CFA+80] reg28=[CFA+88] reg30=[CFA+8] reg29=[CFA]
  0x001b7160: CFA=reg29: reg31=reg29+16 reg19=[CFA+16] reg20=[CFA+24] reg21=[CFA+32] reg22=[CFA+40] reg23=[CFA+48] reg24=[CFA+56] reg25=[CFA+64] reg26=[CFA+72] reg30=[CFA+8] reg29=[CFA]
  0x001b7290: CFA=reg29: reg31=reg29+16 reg30=[CFA+8] reg29=[CFA]
  0x001b73b0: CFA=reg29: reg31=reg29+16 reg19=[CFA+16] reg20=[CFA+24] reg21=[CFA+32] reg22=[CFA+40] reg30=[CFA+8] reg29=[CFA]
  0x001b75f0: CFA=reg29: reg31=reg29+16 reg19=[CFA+16] reg20=[CFA+24] reg21=[CFA+32] reg22=[CFA+40] reg23=[CFA+48] reg24=[CFA+56] reg25=[CFA+64] reg26=[CFA+72] reg30=[CFA+8] reg29=[CFA]
  0x001b78a0: CFA=reg31
  0x001b78c0: CFA=reg29: reg31=reg29+16 reg19=[CFA+16] reg20=[CFA+24] reg21=[CFA+32] reg22=[CFA+40] reg23=[CFA+48] reg24=[CFA+56] reg30=[CFA+8] reg29=[CFA]
  0x001b7ad4: CFA=reg29: reg31=reg29+16 reg19=[CFA+16] reg20=[CFA+24] reg21=[CFA+32] reg22=[CFA+40] reg30=[CFA+8] reg29=[CFA]
  0x001b7bf8: CFA=reg29: reg31=reg29+16 reg30=[CFA+8] reg29=[CFA]
  0x001b803c: CFA=reg29: reg31=reg29+16 reg19=[CFA+16] reg20=[CFA+24] reg30=[CFA+8] reg29=[CFA]
  0x001b80c0: CFA=reg29: reg31=reg29+16 reg30=[CFA+8] reg29=[CFA]
  0x001b8108: CFA=reg29: reg31=reg29+16 reg19=[CFA+16] reg20=[CFA+24] reg21=[CFA+32] reg22=[CFA+40] reg23=[CFA+48] reg24=[CFA+56] reg25=[CFA+64] reg26=[CFA+72] reg27=[CFA+80] reg28=[CFA+88] reg30=[CFA+8] reg29=[CFA]
  0x001b846c: CFA=reg29: reg31=reg29+16 reg19=[CFA+16] reg20=[CFA+24] reg21=[CFA+32] reg22=[CFA+40] reg23=[CFA+48] reg24=[CFA+56] reg25=[CFA+64] reg26=[CFA+72] reg27=[CFA+80] reg28=[CFA+88] reg30=[CFA+8] reg29=[CFA]
  0x001b88e0: CFA=reg29: reg31=reg29+16 reg19=[CFA+16] reg20=[CFA+24] reg30=[CFA+8] reg29=[CFA]
  0x001b8a24: CFA=reg29: reg31=reg29+16 reg19=[CFA+16] reg20=[CFA+24] reg21=[CFA+32] reg22=[CFA+40] reg23=[CFA+48] reg24=[CFA+56] reg30=[CFA+8] reg29=[CFA]
  0x001b8bb0: CFA=reg29: reg31=reg29+16 reg30=[CFA+8] reg29=[CFA]
  0x001b8ce8: CFA=reg31
  0x001b8cf0: CFA=reg29: reg31=reg29+16 reg30=[CFA+8] reg29=[CFA]
  0x001b8e30: CFA=reg29: reg31=reg29+16 reg19=[CFA+16] reg20=[CFA+24] reg30=[CFA+8] reg29=[CFA]
  0x001b8e7c: CFA=reg29: reg31=reg29+16 reg30=[CFA+8] reg29=[CFA]
  0x001b8ea0: CFA=reg31
  0x001b8eb4: CFA=reg29: reg31=reg29+16 reg19=[CFA+16] reg20=[CFA+24] reg21=[CFA+32] reg22=[CFA+40] reg30=[CFA+8] reg29=[CFA]
  0x001b9168: CFA=reg29: reg31=reg29+16 reg19=[CFA+16] reg20=[CFA+24] reg30=[CFA+8] reg29=[CFA]
  0x001b91c0: CFA=reg31
  0x001b91e4: CFA=reg29: reg31=reg29+16 reg30=[CFA+8] reg29=[CFA]
  0x001b9418: CFA=reg29: reg31=reg29+16 reg19=[CFA+16] reg20=[CFA+24] reg30=[CFA+8] reg29=[CFA]
  0x001b9474: CFA=reg31
  0x001b94a0: CFA=reg29: reg31=reg29+16 reg19=[CFA+16] reg20=[CFA+24] reg21=[CFA+32] reg22=[CFA+40] reg30=[CFA+8] reg29=[CFA]
  0x001b9588: CFA=reg29: reg31=reg29+16 reg19=[CFA+16] reg20=[CFA+24] reg21=[CFA+32] reg22=[CFA+40] reg30=[CFA+8] reg29=[CFA]
  0x001b96b4: CFA=reg29: reg31=reg29+16 reg19=[CFA+16] reg20=[CFA+24] reg21=[CFA+32] reg22=[CFA+40] reg30=[CFA+8] reg29=[CFA]
  0x001b97a4: CFA=reg29: reg31=reg29+16 reg19=[CFA+16] reg20=[CFA+24] reg21=[CFA+32] reg22=[CFA+40] reg30=[CFA+8] reg29=[CFA]
  0x001b9894: CFA=reg29: reg31=reg29+16 reg30=[CFA+8] reg29=[CFA]
  0x001b98bc: CFA=reg29: reg31=reg29+16 reg19=[CFA+16] reg20=[CFA+24] reg21=[CFA+32] reg22=[CFA+40] reg23=[CFA+48] reg24=[CFA+56] reg25=[CFA+64] reg26=[CFA+72] reg30=[CFA+8] reg29=[CFA]
  0x001b9a6c: CFA=reg29: reg31=reg29+16 reg19=[CFA+16] reg20=[CFA+24] reg30=[CFA+8] reg29=[CFA]
  0x001b9ae4: CFA=reg29: reg31=reg29+16 reg19=[CFA+16] reg20=[CFA+24] reg21=[CFA+32] reg22=[CFA+40] reg23=[CFA+48] reg24=[CFA+56] reg30=[CFA+8] reg29=[CFA]
  0x001b9ddc: CFA=reg31
  0x001b9e10: CFA=reg29: reg31=reg29+16 reg30=[CFA+8] reg29=[CFA]
  0x001b9e28: CFA=reg29: reg31=reg29+16 reg19=[CFA+16] reg20=[CFA+24] reg21=[CFA+32] reg22=[CFA+40] reg23=[CFA+48] reg24=[CFA+56] reg25=[CFA+64] reg26=[CFA+72] reg30=[CFA+8] reg29=[CFA]
  0x001b9f78: CFA=reg29: reg31=reg29+16 reg19=[CFA+16] reg20=[CFA+24] reg30=[CFA+8] reg29=[CFA]
  0x001ba038: CFA=reg29: reg31=reg29+16 reg19=[CFA+16] reg20=[CFA+24] reg21=[CFA+32] reg22=[CFA+40] reg30=[CFA+8] reg29=[CFA]
  0x001ba114: CFA=reg31
  0x001ba118: CFA=reg29: reg31=reg29+16 reg19=[CFA+16] reg20=[CFA+24] reg30=[CFA+8] reg29=[CFA]
  0x001ba194: CFA=reg29: reg31=reg29+16 reg30=[CFA+8] reg29=[CFA]
  0x001ba280: CFA=reg29: reg31=reg29+16 reg19=[CFA+16] reg20=[CFA+24] reg30=[CFA+8] reg29=[CFA]
  0x001ba678: CFA=reg31
  0x001ba68c: CFA=reg29: reg31=reg29+16 reg19=[CFA+16] reg20=[CFA+24] reg21=[CFA+32] reg22=[CFA+40] reg30=[CFA+8] reg29=[CFA]
  0x001ba720: CFA=reg31
  0x001ba778: CFA=reg29: reg31=reg29+16 reg19=[CFA+16] reg20=[CFA+24] reg30=[CFA+8] reg29=[CFA]
  0x001ba800: CFA=reg29: reg31=reg29+16 reg30=[CFA+8] reg29=[CFA]
  0x001bac1c: CFA=reg29: reg31=reg29+16 reg19=[CFA+16] reg20=[CFA+24] reg21=[CFA+32] reg22=[CFA+40] reg23=[CFA+48] reg24=[CFA+56] reg30=[CFA+8] reg29=[CFA]
  0x001bad54: CFA=reg29: reg31=reg29+16 reg19=[CFA+16] reg20=[CFA+24] reg30=[CFA+8] reg29=[CFA]
  0x001bae14: CFA=reg29: reg31=reg29+16 reg19=[CFA+16] reg20=[CFA+24] reg30=[CFA+8] reg29=[CFA]
  0x001baed4: CFA=reg31
  0x001baee8: CFA=reg29: reg31=reg29+16 reg19=[CFA+16] reg20=[CFA+24] reg30=[CFA+8] reg29=[CFA]
  0x001bb000: CFA=reg29: reg31=reg29+16 reg19=[CFA+16] reg20=[CFA+24] reg30=[CFA+8] reg29=[CFA]
  0x001bb1a4: CFA=reg31
  0x001bb1a8: CFA=reg29: reg31=reg29+16 reg19=[CFA+16] reg20=[CFA+24] reg21=[CFA+32] reg22=[CFA+40] reg23=[CFA+48] reg24=[CFA+56] reg25=[CFA+64] reg26=[CFA+72] reg27=[CFA+80] reg28=[CFA+88] reg30=[CFA+8] reg29=[CFA]
  0x001bb440: CFA=reg29: reg31=reg29+16 reg19=[CFA+16] reg20=[CFA+24] reg30=[CFA+8] reg29=[CFA]
  0x001bb4a0: CFA=reg29: reg31=reg29+16 reg19=[CFA+16] reg20=[CFA+24] reg21=[CFA+32] reg22=[CFA+40] reg23=[CFA+48] reg24=[CFA+56] reg25=[CFA+64] reg26=[CFA+72] reg30=[CFA+8] reg29=[CFA]
  0x001bb72c: CFA=reg29: reg31=reg29+16 reg19=[CFA+16] reg20=[CFA+24] reg21=[CFA+32] reg22=[CFA+40] reg23=[CFA+48] reg24=[CFA+56] reg25=[CFA+64] reg26=[CFA+72] reg30=[CFA+8] reg29=[CFA]
  0x001bb828: CFA=reg29: reg31=reg29+16 reg30=[CFA+8] reg29=[CFA]
  0x001bb960: CFA=reg31
  0x001bb968: CFA=reg29: reg31=reg29+16 reg30=[CFA+8] reg29=[CFA]
  0x001bbc04: CFA=reg29: reg31=reg29+16 reg19=[CFA+16] reg20=[CFA+24] reg30=[CFA+8] reg29=[CFA]
  0x001bbd50: CFA=reg29: reg31=reg29+16 reg19=[CFA+16] reg20=[CFA+24] reg21=[CFA+32] reg22=[CFA+40] reg23=[CFA+48] reg24=[CFA+56] reg25=[CFA+64] reg26=[CFA+72] reg27=[CFA+80] reg28=[CFA+88] reg30=[CFA+8] reg29=[CFA]
  0x001bbf80: CFA=reg29: reg31=reg29+16 reg30=[CFA+8] reg29=[CFA]
  0x001bc0b8: CFA=reg31
  0x001bc0c0: CFA=reg29: reg31=reg29+16 reg30=[CFA+8] reg29=[CFA]
  0x001bc200: CFA=reg29: reg31=reg29+16 reg19=[CFA+16] reg20=[CFA+24] reg30=[CFA+8] reg29=[CFA]
  0x001bc348: CFA=reg29: reg31=reg29+16 reg30=[CFA+8] reg29=[CFA]
  0x001bc4e0: CFA=reg29: reg31=reg29+16 reg19=[CFA+16] reg20=[CFA+24] reg21=[CFA+32] reg22=[CFA+40] reg27=[CFA+48] reg28=[CFA+56] reg30=[CFA+8] reg29=[CFA]
  0x001bc694: CFA=reg31
  0x001bc6a4: CFA=reg29: reg31=reg29+16 reg19=[CFA+16] reg20=[CFA+24] reg30=[CFA+8] reg29=[CFA]
  0x001bc6c0: CFA=reg29: reg31=reg29+16 reg30=[CFA+8] reg29=[CFA]
  0x001bc758: CFA=reg29: reg31=reg29+16 reg19=[CFA+16] reg20=[CFA+24] reg30=[CFA+8] reg29=[CFA]
  0x001bc8d0: CFA=reg29: reg31=reg29+16 reg19=[CFA+16] reg20=[CFA+24] reg21=[CFA+32] reg22=[CFA+40] reg30=[CFA+8] reg29=[CFA]
  0x001bc98c: CFA=reg29: reg31=reg29+16 reg19=[CFA+16] reg20=[CFA+24] reg21=[CFA+32] reg22=[CFA+40] reg23=[CFA+48] reg24=[CFA+56] reg25=[CFA+64] reg26=[CFA+72] reg30=[CFA+8] reg29=[CFA]
  0x001bcce0: CFA=reg29: reg31=reg29+16 reg19=[CFA+16] reg20=[CFA+24] reg30=[CFA+8] reg29=[CFA]
  0x001bcea4: CFA=reg31
  0x001bcee4: CFA=reg29: reg31=reg29+16 reg30=[CFA+8] reg29=[CFA]
  0x001bcfd8: CFA=reg31
  0x001bcffc: CFA=reg29: reg31=reg29+16 reg19=[CFA+16] reg20=[CFA+24] reg21=[CFA+32] reg22=[CFA+40] reg30=[CFA+8] reg29=[CFA]
  0x001bd1cc: CFA=reg31
  0x001bd1e0: CFA=reg29: reg31=reg29+16 reg19=[CFA+16] reg20=[CFA+24] reg30=[CFA+8] reg29=[CFA]
  0x001bd298: CFA=reg29: reg31=reg29+16 reg30=[CFA+8] reg29=[CFA]
  0x001bd2c4: CFA=reg29: reg31=reg29+16 reg19=[CFA+16] reg20=[CFA+24] reg30=[CFA+8] reg29=[CFA]
  0x001bd384: CFA=reg29: reg31=reg29+16 reg19=[CFA+16] reg20=[CFA+24] reg30=[CFA+8] reg29=[CFA]
  0x001bd444: CFA=reg29: reg31=reg29+16 reg19=[CFA+16] reg20=[CFA+24] reg30=[CFA+8] reg29=[CFA]
  0x001bd468: CFA=reg29: reg31=reg29+16 reg30=[CFA+8] reg29=[CFA]
  0x001bd49c: CFA=reg29: reg31=reg29+16 reg19=[CFA+16] reg20=[CFA+24] reg30=[CFA+8] reg29=[CFA]
  0x001bd548: CFA=reg31
  0x001bd564: CFA=reg29: reg31=reg29+16 reg19=[CFA+16] reg20=[CFA+24] reg21=[CFA+32] reg22=[CFA+40] reg30=[CFA+8] reg29=[CFA]
  0x001bd654: CFA=reg29: reg31=reg29+16 reg19=[CFA+16] reg20=[CFA+24] reg30=[CFA+8] reg29=[CFA]
  0x001bd6f0: CFA=reg31
  0x001bd704: CFA=reg29: reg31=reg29+16 reg19=[CFA+16] reg20=[CFA+24] reg21=[CFA+32] reg22=[CFA+40] reg30=[CFA+8] reg29=[CFA]
  0x001bd8b4: CFA=reg29: reg31=reg29+16 reg30=[CFA+8] reg29=[CFA]
  0x001bd8f8: CFA=reg29: reg31=reg29+16 reg19=[CFA+16] reg20=[CFA+24] reg30=[CFA+8] reg29=[CFA]
  0x001bd938: CFA=reg31
  0x001bd944: CFA=reg29: reg31=reg29+16 reg19=[CFA+16] reg20=[CFA+24] reg21=[CFA+32] reg22=[CFA+40] reg30=[CFA+8] reg29=[CFA]
  0x001bda48: CFA=reg29: reg31=reg29+16 reg30=[CFA+8] reg29=[CFA]
  0x001bda60: CFA=reg29: reg31=reg29+16 reg19=[CFA+16] reg20=[CFA+24] reg21=[CFA+32] reg22=[CFA+40] reg30=[CFA+8] reg29=[CFA]
  0x001bdac8: CFA=reg29: reg31=reg29+16 reg19=[CFA+16] reg20=[CFA+24] reg21=[CFA+32] reg22=[CFA+40] reg23=[CFA+48] reg24=[CFA+56] reg30=[CFA+8] reg29=[CFA]
  0x001bdd10: CFA=reg29: reg31=reg29+16 reg19=[CFA+16] reg20=[CFA+24] reg21=[CFA+32] reg22=[CFA+40] reg23=[CFA+48] reg24=[CFA+56] reg25=[CFA+64] reg26=[CFA+72] reg27=[CFA+80] reg28=[CFA+88] reg14=[CFA+96] reg15=[CFA+104] reg30=[CFA+8] reg29=[CFA]
  0x001be390: CFA=reg29: reg31=reg29+16 reg19=[CFA+16] reg20=[CFA+24] reg21=[CFA+32] reg22=[CFA+40] reg23=[CFA+48] reg24=[CFA+56] reg30=[CFA+8] reg29=[CFA]
  0x001be46c: CFA=reg31
  0x001be4a0: CFA=reg29: reg31=reg29+16 reg30=[CFA+8] reg29=[CFA]
  0x001be914: CFA=reg29: reg31=reg29+16 reg19=[CFA+16] reg20=[CFA+24] reg21=[CFA+32] reg22=[CFA+40] reg30=[CFA+8] reg29=[CFA]
  0x001bebcc: CFA=reg29: reg31=reg29+16 reg19=[CFA+16] reg20=[CFA+24] reg30=[CFA+8] reg29=[CFA]
  0x001bed98: CFA=reg31
  0x001bedb0: CFA=reg29: reg31=reg29+16 reg19=[CFA+16] reg20=[CFA+24] reg21=[CFA+32] reg22=[CFA+40] reg30=[CFA+8] reg29=[CFA]
  0x001bee78: CFA=reg29: reg31=reg29+16 reg19=[CFA+16] reg20=[CFA+24] reg30=[CFA+8] reg29=[CFA]
  0x001bf134: CFA=reg29: reg31=reg29+16 reg19=[CFA+16] reg20=[CFA+24] reg21=[CFA+32] reg22=[CFA+40] reg30=[CFA+8] reg29=[CFA]
  0x001bf230: CFA=reg29: reg31=reg29+16 reg19=[CFA+16] reg20=[CFA+24] reg30=[CFA+8] reg29=[CFA]
  0x001bf2b8: CFA=reg29: reg31=reg29+16 reg30=[CFA+8] reg29=[CFA]
  0x001bf420: CFA=reg29: reg31=reg29+16 reg19=[CFA+16] reg20=[CFA+24] reg30=[CFA+8] reg29=[CFA]
  0x001bf4bc: CFA=reg29: reg31=reg29+16 reg19=[CFA+16] reg20=[CFA+24] reg30=[CFA+8] reg29=[CFA]
  0x001bf574: CFA=reg29: reg31=reg29+16 reg19=[CFA+16] reg20=[CFA+24] reg21=[CFA+32] reg22=[CFA+40] reg30=[CFA+8] reg29=[CFA]
  0x001bf7fc: CFA=reg29: reg31=reg29+16 reg19=[CFA+16] reg20=[CFA+24] reg30=[CFA+8] reg29=[CFA]
  0x001bf880: CFA=reg29: reg31=reg29+16 reg30=[CFA+8] reg29=[CFA]
  0x001bfac4: CFA=reg29: reg31=reg29+16 reg19=[CFA+16] reg20=[CFA+24] reg30=[CFA+8] reg29=[CFA]
  0x001bfb48: CFA=reg29: reg31=reg29+16 reg30=[CFA+8] reg29=[CFA]
  0x001bfb54: CFA=reg29: reg31=reg29+16 reg19=[CFA+16] reg20=[CFA+24] reg30=[CFA+8] reg29=[CFA]
  0x001bff64: CFA=reg29: reg31=reg29+16 reg19=[CFA+16] reg20=[CFA+24] reg21=[CFA+32] reg22=[CFA+40] reg30=[CFA+8] reg29=[CFA]
  0x001c0050: CFA=reg29: reg31=reg29+16 reg19=[CFA+16] reg20=[CFA+24] reg21=[CFA+32] reg22=[CFA+40] reg23=[CFA+48] reg24=[CFA+56] reg25=[CFA+64] reg26=[CFA+72] reg27=[CFA+80] reg28=[CFA+88] reg30=[CFA+8] reg29=[CFA]
  0x001c086c: CFA=reg29: reg31=reg29+16 reg30=[CFA+8] reg29=[CFA]
  0x001c0e24: CFA=reg31
  0x001c0ea8: CFA=reg29: reg31=reg29+16 reg30=[CFA+8] reg29=[CFA]
  0x001c1fb0: CFA=reg29: reg31=reg29+16 reg19=[CFA+16] reg20=[CFA+24] reg21=[CFA+32] reg22=[CFA+40] reg23=[CFA+48] reg24=[CFA+56] reg25=[CFA+64] reg26=[CFA+72] reg30=[CFA+8] reg29=[CFA]
  0x001c2270: CFA=reg29: reg31=reg29+16 reg30=[CFA+8] reg29=[CFA]
  0x001c3084: CFA=reg29: reg31=reg29+16 reg19=[CFA+16] reg20=[CFA+24] reg21=[CFA+32] reg22=[CFA+40] reg23=[CFA+48] reg24=[CFA+56] reg25=[CFA+64] reg26=[CFA+72] reg27=[CFA+80] reg28=[CFA+88] reg30=[CFA+8] reg29=[CFA]
  0x001c88b4: CFA=reg29: reg31=reg29+16 reg30=[CFA+8] reg29=[CFA]
  0x001c88c0: CFA=reg29: reg31=reg29+16 reg19=[CFA+16] reg20=[CFA+24] reg30=[CFA+8] reg29=[CFA]
  0x001c8d5c: CFA=reg29: reg31=reg29+16 reg30=[CFA+8] reg29=[CFA]
  0x001c8d7c: CFA=reg29: reg31=reg29+16 reg19=[CFA+16] reg20=[CFA+24] reg30=[CFA+8] reg29=[CFA]
  0x001c93e4: CFA=reg29: reg31=reg29+16 reg30=[CFA+8] reg29=[CFA]
  0x001c946c: CFA=reg29: reg31=reg29+16 reg19=[CFA+16] reg20=[CFA+24] reg30=[CFA+8] reg29=[CFA]
  0x001c9510: CFA=reg29: reg31=reg29+16 reg30=[CFA+8] reg29=[CFA]
  0x001c9834: CFA=reg29: reg31=reg29+16 reg19=[CFA+16] reg20=[CFA+24] reg21=[CFA+32] reg22=[CFA+40] reg30=[CFA+8] reg29=[CFA]
  0x001c9b4c: CFA=reg29: reg31=reg29+16 reg19=[CFA+16] reg20=[CFA+24] reg21=[CFA+32] reg22=[CFA+40] reg23=[CFA+48] reg24=[CFA+56] reg25=[CFA+64] reg26=[CFA+72] reg27=[CFA+80] reg28=[CFA+88] reg30=[CFA+8] reg29=[CFA]
  0x001cca00: CFA=reg29: reg31=reg29+16 reg30=[CFA+8] reg29=[CFA]
  0x001cd4a8: CFA=reg29: reg31=reg29+16 reg19=[CFA+16] reg20=[CFA+24] reg30=[CFA+8] reg29=[CFA]
  0x001cd9a4: CFA=reg29: reg31=reg29+16 reg19=[CFA+16] reg20=[CFA+24] reg21=[CFA+32] reg22=[CFA+40] reg23=[CFA+48] reg24=[CFA+56] reg25=[CFA+64] reg26=[CFA+72] reg27=[CFA+80] reg28=[CFA+88] reg30=[CFA+8] reg29=[CFA]
  0x001ce6a8: CFA=reg29: reg31=reg29+16 reg30=[CFA+8] reg29=[CFA]
  0x001ce6b4: CFA=reg29: reg31=reg29+16 reg19=[CFA+16] reg20=[CFA+24] reg21=[CFA+32] reg22=[CFA+40] reg27=[CFA+48] reg28=[CFA+56] reg30=[CFA+8] reg29=[CFA]
  0x001ce820: CFA=reg29: reg31=reg29+16 reg30=[CFA+8] reg29=[CFA]
  0x001ce8fc: CFA=reg29: reg31=reg29+16 reg19=[CFA+16] reg20=[CFA+24] reg30=[CFA+8] reg29=[CFA]
  0x001cedd8: CFA=reg31
  0x001cef78: CFA=reg29: reg31=reg29+16 reg19=[CFA+16] reg20=[CFA+24] reg21=[CFA+32] reg22=[CFA+40] reg30=[CFA+8] reg29=[CFA]
  0x001cefd0: CFA=reg29: reg31=reg29+16 reg19=[CFA+16] reg20=[CFA+24] reg30=[CFA+8] reg29=[CFA]
  0x001cf018: CFA=reg29: reg31=reg29+16 reg30=[CFA+8] reg29=[CFA]
  0x001cf0a0: CFA=reg29: reg31=reg29+16 reg19=[CFA+16] reg20=[CFA+24] reg30=[CFA+8] reg29=[CFA]
  0x001cf13c: CFA=reg29: reg31=reg29+16 reg19=[CFA+16] reg20=[CFA+24] reg21=[CFA+32] reg22=[CFA+40] reg23=[CFA+48] reg24=[CFA+56] reg25=[CFA+64] reg26=[CFA+72] reg27=[CFA+80] reg28=[CFA+88] reg30=[CFA+8] reg29=[CFA]
  0x001d11bc: CFA=reg29: reg31=reg29+16 reg19=[CFA+16] reg20=[CFA+24] reg30=[CFA+8] reg29=[CFA]
  0x001d1320: CFA=reg29: reg31=reg29+16 reg30=[CFA+8] reg29=[CFA]
  0x001d132c: CFA=reg29: reg31=reg29+16 reg19=[CFA+16] reg20=[CFA+24] reg30=[CFA+8] reg29=[CFA]
  0x001d16f4: CFA=reg29: reg31=reg29+16 reg30=[CFA+8] reg29=[CFA]
  0x001d2430: CFA=reg29: reg31=reg29+16 reg19=[CFA+16] reg20=[CFA+24] reg21=[CFA+32] reg22=[CFA+40] reg30=[CFA+8] reg29=[CFA]
  0x001d24f4: CFA=reg29: reg31=reg29+16 reg19=[CFA+16] reg20=[CFA+24] reg21=[CFA+32] reg22=[CFA+40] reg23=[CFA+48] reg24=[CFA+56] reg25=[CFA+64] reg26=[CFA+72] reg27=[CFA+80] reg28=[CFA+88] reg30=[CFA+8] reg29=[CFA]
  0x001d278c: CFA=reg29: reg31=reg29+16 reg30=[CFA+8] reg29=[CFA]
  0x001d27e4: CFA=reg29: reg31=reg29+16 reg19=[CFA+16] reg20=[CFA+24] reg21=[CFA+32] reg22=[CFA+40] reg23=[CFA+48] reg24=[CFA+56] reg25=[CFA+64] reg26=[CFA+72] reg27=[CFA+80] reg28=[CFA+88] reg30=[CFA+8] reg29=[CFA]
  0x001d29d4: CFA=reg29: reg31=reg29+16 reg19=[CFA+16] reg20=[CFA+24] reg21=[CFA+32] reg22=[CFA+40] reg23=[CFA+48] reg24=[CFA+56] reg30=[CFA+8] reg29=[CFA]
  0x001d2b18: CFA=reg29: reg31=reg29+16 reg19=[CFA+16] reg20=[CFA+24] reg21=[CFA+32] reg22=[CFA+40] reg30=[CFA+8] reg29=[CFA]
  0x001d2c9c: CFA=reg29: reg31=reg29+16 reg19=[CFA+16] reg20=[CFA+24] reg30=[CFA+8] reg29=[CFA]

