
/Users/mstange/.cargo/bin/rustup:	file format mach-o arm64

.debug_frame contents:


.eh_frame contents:

00000000 00000010 00000000 CIE
  Format:                DWARF32
  Version:               1
  Augmentation:          "zR"
  Code alignment factor: 1
  Data alignment factor: -8
  Return address column: 30
  Augmentation data:     10

  DW_CFA_def_cfa: reg31 +0

  CFA=reg31

00000014 00000020 00000018 FDE cie=00000000 pc=100004700...10000471c
  Format:       DWARF32
  DW_CFA_advance_loc: 8
  DW_CFA_def_cfa_offset: +32
  DW_CFA_offset: reg30 -8
  DW_CFA_offset: reg29 -16
  DW_CFA_nop:
  DW_CFA_nop:
  DW_CFA_nop:
  DW_CFA_nop:

  0x100004700: CFA=reg31
  0x100004708: CFA=reg31+32: reg29=[CFA-16], reg30=[CFA-8]

00000038 00000024 0000003c FDE cie=00000000 pc=10000471c...100004780
  Format:       DWARF32
  DW_CFA_advance_loc: 8
  DW_CFA_def_cfa_offset: +32
  DW_CFA_offset: reg30 -8
  DW_CFA_offset: reg29 -16
  DW_CFA_offset: reg19 -24
  DW_CFA_offset: reg20 -32
  DW_CFA_nop:
  DW_CFA_nop:
  DW_CFA_nop:
  DW_CFA_nop:

  0x10000471c: CFA=reg31
  0x100004724: CFA=reg31+32: reg19=[CFA-24], reg20=[CFA-32], reg29=[CFA-16], reg30=[CFA-8]

00000060 0000001c 00000064 FDE cie=00000000 pc=1000047ac...1000047c8
  Format:       DWARF32
  DW_CFA_advance_loc: 4
  DW_CFA_def_cfa_offset: +16
  DW_CFA_offset: reg30 -8
  DW_CFA_offset: reg29 -16

  0x1000047ac: CFA=reg31
  0x1000047b0: CFA=reg31+16: reg29=[CFA-16], reg30=[CFA-8]

00000080 0000001c 00000084 FDE cie=00000000 pc=1000047c8...1000047e4
  Format:       DWARF32
  DW_CFA_advance_loc: 4
  DW_CFA_def_cfa_offset: +16
  DW_CFA_offset: reg30 -8
  DW_CFA_offset: reg29 -16

  0x1000047c8: CFA=reg31
  0x1000047cc: CFA=reg31+16: reg29=[CFA-16], reg30=[CFA-8]

000000a0 0000001c 000000a4 FDE cie=00000000 pc=100004a4c...100004a88
  Format:       DWARF32
  DW_CFA_advance_loc: 8
  DW_CFA_def_cfa_offset: +80
  DW_CFA_offset: reg30 -8
  DW_CFA_offset: reg29 -16

  0x100004a4c: CFA=reg31
  0x100004a54: CFA=reg31+80: reg29=[CFA-16], reg30=[CFA-8]

000000c0 00000024 000000c4 FDE cie=00000000 pc=100004a88...100004aec
  Format:       DWARF32
  DW_CFA_advance_loc: 8
  DW_CFA_def_cfa_offset: +32
  DW_CFA_offset: reg30 -8
  DW_CFA_offset: reg29 -16
  DW_CFA_offset: reg19 -24
  DW_CFA_offset: reg20 -32
  DW_CFA_nop:
  DW_CFA_nop:
  DW_CFA_nop:
  DW_CFA_nop:

  0x100004a88: CFA=reg31
  0x100004a90: CFA=reg31+32: reg19=[CFA-24], reg20=[CFA-32], reg29=[CFA-16], reg30=[CFA-8]

000000e8 00000024 000000ec FDE cie=00000000 pc=100004b78...100004bb4
  Format:       DWARF32
  DW_CFA_advance_loc: 8
  DW_CFA_def_cfa_offset: +32
  DW_CFA_offset: reg30 -8
  DW_CFA_offset: reg29 -16
  DW_CFA_offset: reg19 -24
  DW_CFA_offset: reg20 -32
  DW_CFA_nop:
  DW_CFA_nop:
  DW_CFA_nop:
  DW_CFA_nop:

  0x100004b78: CFA=reg31
  0x100004b80: CFA=reg31+32: reg19=[CFA-24], reg20=[CFA-32], reg29=[CFA-16], reg30=[CFA-8]

00000110 0000001c 00000114 FDE cie=00000000 pc=100004dac...100004dc4
  Format:       DWARF32
  DW_CFA_advance_loc: 4
  DW_CFA_def_cfa_offset: +16
  DW_CFA_offset: reg30 -8
  DW_CFA_offset: reg29 -16

  0x100004dac: CFA=reg31
  0x100004db0: CFA=reg31+16: reg29=[CFA-16], reg30=[CFA-8]

00000130 0000001c 00000134 FDE cie=00000000 pc=100004dc4...100004e04
  Format:       DWARF32
  DW_CFA_advance_loc: 8
  DW_CFA_def_cfa_offset: +80
  DW_CFA_offset: reg30 -8
  DW_CFA_offset: reg29 -16

  0x100004dc4: CFA=reg31
  0x100004dcc: CFA=reg31+80: reg29=[CFA-16], reg30=[CFA-8]

00000150 00000024 00000154 FDE cie=00000000 pc=100004e04...100004e74
  Format:       DWARF32
  DW_CFA_advance_loc: 12
  DW_CFA_def_cfa_offset: +48
  DW_CFA_offset: reg30 -8
  DW_CFA_offset: reg29 -16
  DW_CFA_offset: reg19 -24
  DW_CFA_offset: reg20 -32
  DW_CFA_offset: reg21 -40
  DW_CFA_offset: reg22 -48

  0x100004e04: CFA=reg31
  0x100004e10: CFA=reg31+48: reg19=[CFA-24], reg20=[CFA-32], reg21=[CFA-40], reg22=[CFA-48], reg29=[CFA-16], reg30=[CFA-8]

00000178 00000024 0000017c FDE cie=00000000 pc=100004e84...100004fc4
  Format:       DWARF32
  DW_CFA_advance_loc: 16
  DW_CFA_def_cfa_offset: +64
  DW_CFA_offset: reg30 -8
  DW_CFA_offset: reg29 -16
  DW_CFA_offset: reg19 -24
  DW_CFA_offset: reg20 -32
  DW_CFA_offset: reg21 -40
  DW_CFA_offset: reg22 -48

  0x100004e84: CFA=reg31
  0x100004e94: CFA=reg31+64: reg19=[CFA-24], reg20=[CFA-32], reg21=[CFA-40], reg22=[CFA-48], reg29=[CFA-16], reg30=[CFA-8]

000001a0 00000024 000001a4 FDE cie=00000000 pc=100004fc4...100005034
  Format:       DWARF32
  DW_CFA_advance_loc: 12
  DW_CFA_def_cfa_offset: +48
  DW_CFA_offset: reg30 -8
  DW_CFA_offset: reg29 -16
  DW_CFA_offset: reg19 -24
  DW_CFA_offset: reg20 -32
  DW_CFA_offset: reg21 -40
  DW_CFA_offset: reg22 -48

  0x100004fc4: CFA=reg31
  0x100004fd0: CFA=reg31+48: reg19=[CFA-24], reg20=[CFA-32], reg21=[CFA-40], reg22=[CFA-48], reg29=[CFA-16], reg30=[CFA-8]

000001c8 00000024 000001cc FDE cie=00000000 pc=1004072f0...10040738c
  Format:       DWARF32
  DW_CFA_advance_loc: 12
  DW_CFA_def_cfa_offset: +80
  DW_CFA_offset: reg30 -8
  DW_CFA_offset: reg29 -16
  DW_CFA_offset: reg19 -24
  DW_CFA_offset: reg20 -32
  DW_CFA_nop:
  DW_CFA_nop:
  DW_CFA_nop:
  DW_CFA_nop:

  0x1004072f0: CFA=reg31
  0x1004072fc: CFA=reg31+80: reg19=[CFA-24], reg20=[CFA-32], reg29=[CFA-16], reg30=[CFA-8]

000001f0 00000024 000001f4 FDE cie=00000000 pc=1000051b0...1000051dc
  Format:       DWARF32
  DW_CFA_advance_loc: 8
  DW_CFA_def_cfa_offset: +32
  DW_CFA_offset: reg30 -8
  DW_CFA_offset: reg29 -16
  DW_CFA_offset: reg19 -24
  DW_CFA_offset: reg20 -32
  DW_CFA_nop:
  DW_CFA_nop:
  DW_CFA_nop:
  DW_CFA_nop:

  0x1000051b0: CFA=reg31
  0x1000051b8: CFA=reg31+32: reg19=[CFA-24], reg20=[CFA-32], reg29=[CFA-16], reg30=[CFA-8]

00000218 0000001c 0000021c FDE cie=00000000 pc=1000051dc...10000522c
  Format:       DWARF32
  DW_CFA_advance_loc: 4
  DW_CFA_def_cfa_offset: +16
  DW_CFA_offset: reg30 -8
  DW_CFA_offset: reg29 -16

  0x1000051dc: CFA=reg31
  0x1000051e0: CFA=reg31+16: reg29=[CFA-16], reg30=[CFA-8]

00000238 00000024 0000023c FDE cie=00000000 pc=10000522c...100005258
  Format:       DWARF32
  DW_CFA_advance_loc: 8
  DW_CFA_def_cfa_offset: +32
  DW_CFA_offset: reg30 -8
  DW_CFA_offset: reg29 -16
  DW_CFA_offset: reg19 -24
  DW_CFA_offset: reg20 -32
  DW_CFA_nop:
  DW_CFA_nop:
  DW_CFA_nop:
  DW_CFA_nop:

  0x10000522c: CFA=reg31
  0x100005234: CFA=reg31+32: reg19=[CFA-24], reg20=[CFA-32], reg29=[CFA-16], reg30=[CFA-8]

00000260 0000001c 00000264 FDE cie=00000000 pc=10000a7ec...10000a7f4
  Format:       DWARF32
  DW_CFA_advance_loc: 4
  DW_CFA_def_cfa_offset: +16
  DW_CFA_offset: reg30 -8
  DW_CFA_offset: reg29 -16

  0x10000a7ec: CFA=reg31
  0x10000a7f0: CFA=reg31+16: reg29=[CFA-16], reg30=[CFA-8]

00000280 00000024 00000284 FDE cie=00000000 pc=10000a7f4...10000a918
  Format:       DWARF32
  DW_CFA_advance_loc: 12
  DW_CFA_def_cfa_offset: +48
  DW_CFA_offset: reg30 -8
  DW_CFA_offset: reg29 -16
  DW_CFA_offset: reg19 -24
  DW_CFA_offset: reg20 -32
  DW_CFA_offset: reg21 -40
  DW_CFA_offset: reg22 -48

  0x10000a7f4: CFA=reg31
  0x10000a800: CFA=reg31+48: reg19=[CFA-24], reg20=[CFA-32], reg21=[CFA-40], reg22=[CFA-48], reg29=[CFA-16], reg30=[CFA-8]

000002a8 00000024 000002ac FDE cie=00000000 pc=10040738c...100407424
  Format:       DWARF32
  DW_CFA_advance_loc: 12
  DW_CFA_def_cfa_offset: +80
  DW_CFA_offset: reg30 -8
  DW_CFA_offset: reg29 -16
  DW_CFA_offset: reg19 -24
  DW_CFA_offset: reg20 -32
  DW_CFA_nop:
  DW_CFA_nop:
  DW_CFA_nop:
  DW_CFA_nop:

  0x10040738c: CFA=reg31
  0x100407398: CFA=reg31+80: reg19=[CFA-24], reg20=[CFA-32], reg29=[CFA-16], reg30=[CFA-8]

000002d0 0000002c 000002d4 FDE cie=00000000 pc=10000a918...10000aab8
  Format:       DWARF32
  DW_CFA_advance_loc: 20
  DW_CFA_def_cfa_offset: +80
  DW_CFA_offset: reg30 -8
  DW_CFA_offset: reg29 -16
  DW_CFA_offset: reg19 -24
  DW_CFA_offset: reg20 -32
  DW_CFA_offset: reg21 -40
  DW_CFA_offset: reg22 -48
  DW_CFA_offset: reg23 -56
  DW_CFA_offset: reg24 -64
  DW_CFA_nop:
  DW_CFA_nop:
  DW_CFA_nop:
  DW_CFA_nop:

  0x10000a918: CFA=reg31
  0x10000a92c: CFA=reg31+80: reg19=[CFA-24], reg20=[CFA-32], reg21=[CFA-40], reg22=[CFA-48], reg23=[CFA-56], reg24=[CFA-64], reg29=[CFA-16], reg30=[CFA-8]

00000300 0000001c 00000304 FDE cie=00000000 pc=100407424...100407464
  Format:       DWARF32
  DW_CFA_advance_loc: 8
  DW_CFA_def_cfa_offset: +80
  DW_CFA_offset: reg30 -8
  DW_CFA_offset: reg29 -16

  0x100407424: CFA=reg31
  0x10040742c: CFA=reg31+80: reg29=[CFA-16], reg30=[CFA-8]

00000320 00000024 00000324 FDE cie=00000000 pc=10000c4b4...10000c54c
  Format:       DWARF32
  DW_CFA_advance_loc: 12
  DW_CFA_def_cfa_offset: +48
  DW_CFA_offset: reg30 -8
  DW_CFA_offset: reg29 -16
  DW_CFA_offset: reg19 -24
  DW_CFA_offset: reg20 -32
  DW_CFA_offset: reg21 -40
  DW_CFA_offset: reg22 -48

  0x10000c4b4: CFA=reg31
  0x10000c4c0: CFA=reg31+48: reg19=[CFA-24], reg20=[CFA-32], reg21=[CFA-40], reg22=[CFA-48], reg29=[CFA-16], reg30=[CFA-8]

00000348 00000024 0000034c FDE cie=00000000 pc=10000c54c...10000c5e4
  Format:       DWARF32
  DW_CFA_advance_loc: 12
  DW_CFA_def_cfa_offset: +48
  DW_CFA_offset: reg30 -8
  DW_CFA_offset: reg29 -16
  DW_CFA_offset: reg19 -24
  DW_CFA_offset: reg20 -32
  DW_CFA_offset: reg21 -40
  DW_CFA_offset: reg22 -48

  0x10000c54c: CFA=reg31
  0x10000c558: CFA=reg31+48: reg19=[CFA-24], reg20=[CFA-32], reg21=[CFA-40], reg22=[CFA-48], reg29=[CFA-16], reg30=[CFA-8]

00000370 00000034 00000374 FDE cie=00000000 pc=10000c5ec...10000c83c
  Format:       DWARF32
  DW_CFA_advance_loc: 28
  DW_CFA_def_cfa_offset: +176
  DW_CFA_offset: reg30 -8
  DW_CFA_offset: reg29 -16
  DW_CFA_offset: reg19 -24
  DW_CFA_offset: reg20 -32
  DW_CFA_offset: reg21 -40
  DW_CFA_offset: reg22 -48
  DW_CFA_offset: reg23 -56
  DW_CFA_offset: reg24 -64
  DW_CFA_offset: reg25 -72
  DW_CFA_offset: reg26 -80
  DW_CFA_offset: reg27 -88
  DW_CFA_offset: reg28 -96
  DW_CFA_nop:
  DW_CFA_nop:
  DW_CFA_nop:

  0x10000c5ec: CFA=reg31
  0x10000c608: CFA=reg31+176: reg19=[CFA-24], reg20=[CFA-32], reg21=[CFA-40], reg22=[CFA-48], reg23=[CFA-56], reg24=[CFA-64], reg25=[CFA-72], reg26=[CFA-80], reg27=[CFA-88], reg28=[CFA-96], reg29=[CFA-16], reg30=[CFA-8]

000003a8 0000001c 000003ac FDE cie=00000000 pc=100407464...1004074a8
  Format:       DWARF32
  DW_CFA_advance_loc: 8
  DW_CFA_def_cfa_offset: +80
  DW_CFA_offset: reg30 -8
  DW_CFA_offset: reg29 -16

  0x100407464: CFA=reg31
  0x10040746c: CFA=reg31+80: reg29=[CFA-16], reg30=[CFA-8]

000003c8 0000001c 000003cc FDE cie=00000000 pc=1004074a8...1004075a4
  Format:       DWARF32
  DW_CFA_advance_loc: 4
  DW_CFA_def_cfa_offset: +16
  DW_CFA_offset: reg30 -8
  DW_CFA_offset: reg29 -16

  0x1004074a8: CFA=reg31
  0x1004074ac: CFA=reg31+16: reg29=[CFA-16], reg30=[CFA-8]

000003e8 00000024 000003ec FDE cie=00000000 pc=10000cea8...10000cfcc
  Format:       DWARF32
  DW_CFA_advance_loc: 12
  DW_CFA_def_cfa_offset: +48
  DW_CFA_offset: reg30 -8
  DW_CFA_offset: reg29 -16
  DW_CFA_offset: reg19 -24
  DW_CFA_offset: reg20 -32
  DW_CFA_offset: reg21 -40
  DW_CFA_offset: reg22 -48

  0x10000cea8: CFA=reg31
  0x10000ceb4: CFA=reg31+48: reg19=[CFA-24], reg20=[CFA-32], reg21=[CFA-40], reg22=[CFA-48], reg29=[CFA-16], reg30=[CFA-8]

00000410 00000024 00000414 FDE cie=00000000 pc=10000cfcc...10000d05c
  Format:       DWARF32
  DW_CFA_advance_loc: 12
  DW_CFA_def_cfa_offset: +64
  DW_CFA_offset: reg30 -8
  DW_CFA_offset: reg29 -16
  DW_CFA_offset: reg19 -24
  DW_CFA_offset: reg20 -32
  DW_CFA_nop:
  DW_CFA_nop:
  DW_CFA_nop:
  DW_CFA_nop:

  0x10000cfcc: CFA=reg31
  0x10000cfd8: CFA=reg31+64: reg19=[CFA-24], reg20=[CFA-32], reg29=[CFA-16], reg30=[CFA-8]

00000438 00000024 0000043c FDE cie=00000000 pc=10000d450...10000d52c
  Format:       DWARF32
  DW_CFA_advance_loc: 12
  DW_CFA_def_cfa_offset: +64
  DW_CFA_offset: reg30 -8
  DW_CFA_offset: reg29 -16
  DW_CFA_offset: reg19 -24
  DW_CFA_offset: reg20 -32
  DW_CFA_nop:
  DW_CFA_nop:
  DW_CFA_nop:
  DW_CFA_nop:

  0x10000d450: CFA=reg31
  0x10000d45c: CFA=reg31+64: reg19=[CFA-24], reg20=[CFA-32], reg29=[CFA-16], reg30=[CFA-8]

00000460 0000002c 00000464 FDE cie=00000000 pc=10000d52c...10000d6a4
  Format:       DWARF32
  DW_CFA_advance_loc: 20
  DW_CFA_def_cfa_offset: +96
  DW_CFA_offset: reg30 -8
  DW_CFA_offset: reg29 -16
  DW_CFA_offset: reg19 -24
  DW_CFA_offset: reg20 -32
  DW_CFA_offset: reg21 -40
  DW_CFA_offset: reg22 -48
  DW_CFA_offset: reg23 -56
  DW_CFA_offset: reg24 -64
  DW_CFA_nop:
  DW_CFA_nop:
  DW_CFA_nop:
  DW_CFA_nop:

  0x10000d52c: CFA=reg31
  0x10000d540: CFA=reg31+96: reg19=[CFA-24], reg20=[CFA-32], reg21=[CFA-40], reg22=[CFA-48], reg23=[CFA-56], reg24=[CFA-64], reg29=[CFA-16], reg30=[CFA-8]

00000490 00000024 00000494 FDE cie=00000000 pc=10000d6a4...10000d7a8
  Format:       DWARF32
  DW_CFA_advance_loc: 12
  DW_CFA_def_cfa_offset: +64
  DW_CFA_offset: reg30 -8
  DW_CFA_offset: reg29 -16
  DW_CFA_offset: reg19 -24
  DW_CFA_offset: reg20 -32
  DW_CFA_nop:
  DW_CFA_nop:
  DW_CFA_nop:
  DW_CFA_nop:

  0x10000d6a4: CFA=reg31
  0x10000d6b0: CFA=reg31+64: reg19=[CFA-24], reg20=[CFA-32], reg29=[CFA-16], reg30=[CFA-8]

000004b8 00000024 000004bc FDE cie=00000000 pc=10000d7a8...10000d884
  Format:       DWARF32
  DW_CFA_advance_loc: 12
  DW_CFA_def_cfa_offset: +64
  DW_CFA_offset: reg30 -8
  DW_CFA_offset: reg29 -16
  DW_CFA_offset: reg19 -24
  DW_CFA_offset: reg20 -32
  DW_CFA_nop:
  DW_CFA_nop:
  DW_CFA_nop:
  DW_CFA_nop:

  0x10000d7a8: CFA=reg31
  0x10000d7b4: CFA=reg31+64: reg19=[CFA-24], reg20=[CFA-32], reg29=[CFA-16], reg30=[CFA-8]

000004e0 0000002c 000004e4 FDE cie=00000000 pc=10000d884...10000d9d4
  Format:       DWARF32
  DW_CFA_advance_loc: 20
  DW_CFA_def_cfa_offset: +96
  DW_CFA_offset: reg30 -8
  DW_CFA_offset: reg29 -16
  DW_CFA_offset: reg19 -24
  DW_CFA_offset: reg20 -32
  DW_CFA_offset: reg21 -40
  DW_CFA_offset: reg22 -48
  DW_CFA_offset: reg23 -56
  DW_CFA_offset: reg24 -64
  DW_CFA_nop:
  DW_CFA_nop:
  DW_CFA_nop:
  DW_CFA_nop:

  0x10000d884: CFA=reg31
  0x10000d898: CFA=reg31+96: reg19=[CFA-24], reg20=[CFA-32], reg21=[CFA-40], reg22=[CFA-48], reg23=[CFA-56], reg24=[CFA-64], reg29=[CFA-16], reg30=[CFA-8]

00000510 00000034 00000514 FDE cie=00000000 pc=10000d9d4...10000dc18
  Format:       DWARF32
  DW_CFA_advance_loc: 28
  DW_CFA_def_cfa_offset: +208
  DW_CFA_offset: reg30 -8
  DW_CFA_offset: reg29 -16
  DW_CFA_offset: reg19 -24
  DW_CFA_offset: reg20 -32
  DW_CFA_offset: reg21 -40
  DW_CFA_offset: reg22 -48
  DW_CFA_offset: reg23 -56
  DW_CFA_offset: reg24 -64
  DW_CFA_offset: reg25 -72
  DW_CFA_offset: reg26 -80
  DW_CFA_offset: reg27 -88
  DW_CFA_offset: reg28 -96
  DW_CFA_nop:
  DW_CFA_nop:
  DW_CFA_nop:

  0x10000d9d4: CFA=reg31
  0x10000d9f0: CFA=reg31+208: reg19=[CFA-24], reg20=[CFA-32], reg21=[CFA-40], reg22=[CFA-48], reg23=[CFA-56], reg24=[CFA-64], reg25=[CFA-72], reg26=[CFA-80], reg27=[CFA-88], reg28=[CFA-96], reg29=[CFA-16], reg30=[CFA-8]

00000548 00000034 0000054c FDE cie=00000000 pc=10000dc18...10000de44
  Format:       DWARF32
  DW_CFA_advance_loc: 28
  DW_CFA_def_cfa_offset: +208
  DW_CFA_offset: reg30 -8
  DW_CFA_offset: reg29 -16
  DW_CFA_offset: reg19 -24
  DW_CFA_offset: reg20 -32
  DW_CFA_offset: reg21 -40
  DW_CFA_offset: reg22 -48
  DW_CFA_offset: reg23 -56
  DW_CFA_offset: reg24 -64
  DW_CFA_offset: reg25 -72
  DW_CFA_offset: reg26 -80
  DW_CFA_offset: reg27 -88
  DW_CFA_offset: reg28 -96
  DW_CFA_nop:
  DW_CFA_nop:
  DW_CFA_nop:

  0x10000dc18: CFA=reg31
  0x10000dc34: CFA=reg31+208: reg19=[CFA-24], reg20=[CFA-32], reg21=[CFA-40], reg22=[CFA-48], reg23=[CFA-56], reg24=[CFA-64], reg25=[CFA-72], reg26=[CFA-80], reg27=[CFA-88], reg28=[CFA-96], reg29=[CFA-16], reg30=[CFA-8]

00000580 00000024 00000584 FDE cie=00000000 pc=10000de44...10000df3c
  Format:       DWARF32
  DW_CFA_advance_loc: 12
  DW_CFA_def_cfa_offset: +80
  DW_CFA_offset: reg30 -8
  DW_CFA_offset: reg29 -16
  DW_CFA_offset: reg19 -24
  DW_CFA_offset: reg20 -32
  DW_CFA_nop:
  DW_CFA_nop:
  DW_CFA_nop:
  DW_CFA_nop:

  0x10000de44: CFA=reg31
  0x10000de50: CFA=reg31+80: reg19=[CFA-24], reg20=[CFA-32], reg29=[CFA-16], reg30=[CFA-8]

000005a8 0000002c 000005ac FDE cie=00000000 pc=10000df3c...10000e0e4
  Format:       DWARF32
  DW_CFA_advance_loc: 24
  DW_CFA_def_cfa_offset: +112
  DW_CFA_offset: reg30 -8
  DW_CFA_offset: reg29 -16
  DW_CFA_offset: reg19 -24
  DW_CFA_offset: reg20 -32
  DW_CFA_offset: reg21 -40
  DW_CFA_offset: reg22 -48
  DW_CFA_offset: reg23 -56
  DW_CFA_offset: reg24 -64
  DW_CFA_offset: reg25 -72
  DW_CFA_offset: reg26 -80

  0x10000df3c: CFA=reg31
  0x10000df54: CFA=reg31+112: reg19=[CFA-24], reg20=[CFA-32], reg21=[CFA-40], reg22=[CFA-48], reg23=[CFA-56], reg24=[CFA-64], reg25=[CFA-72], reg26=[CFA-80], reg29=[CFA-16], reg30=[CFA-8]

000005d8 00000034 000005dc FDE cie=00000000 pc=10000e0e4...10000e310
  Format:       DWARF32
  DW_CFA_advance_loc: 28
  DW_CFA_def_cfa_offset: +208
  DW_CFA_offset: reg30 -8
  DW_CFA_offset: reg29 -16
  DW_CFA_offset: reg19 -24
  DW_CFA_offset: reg20 -32
  DW_CFA_offset: reg21 -40
  DW_CFA_offset: reg22 -48
  DW_CFA_offset: reg23 -56
  DW_CFA_offset: reg24 -64
  DW_CFA_offset: reg25 -72
  DW_CFA_offset: reg26 -80
  DW_CFA_offset: reg27 -88
  DW_CFA_offset: reg28 -96
  DW_CFA_nop:
  DW_CFA_nop:
  DW_CFA_nop:

  0x10000e0e4: CFA=reg31
  0x10000e100: CFA=reg31+208: reg19=[CFA-24], reg20=[CFA-32], reg21=[CFA-40], reg22=[CFA-48], reg23=[CFA-56], reg24=[CFA-64], reg25=[CFA-72], reg26=[CFA-80], reg27=[CFA-88], reg28=[CFA-96], reg29=[CFA-16], reg30=[CFA-8]

00000610 00000034 00000614 FDE cie=00000000 pc=10000e310...10000e554
  Format:       DWARF32
  DW_CFA_advance_loc: 28
  DW_CFA_def_cfa_offset: +208
  DW_CFA_offset: reg30 -8
  DW_CFA_offset: reg29 -16
  DW_CFA_offset: reg19 -24
  DW_CFA_offset: reg20 -32
  DW_CFA_offset: reg21 -40
  DW_CFA_offset: reg22 -48
  DW_CFA_offset: reg23 -56
  DW_CFA_offset: reg24 -64
  DW_CFA_offset: reg25 -72
  DW_CFA_offset: reg26 -80
  DW_CFA_offset: reg27 -88
  DW_CFA_offset: reg28 -96
  DW_CFA_nop:
  DW_CFA_nop:
  DW_CFA_nop:

  0x10000e310: CFA=reg31
  0x10000e32c: CFA=reg31+208: reg19=[CFA-24], reg20=[CFA-32], reg21=[CFA-40], reg22=[CFA-48], reg23=[CFA-56], reg24=[CFA-64], reg25=[CFA-72], reg26=[CFA-80], reg27=[CFA-88], reg28=[CFA-96], reg29=[CFA-16], reg30=[CFA-8]

00000648 0000002c 0000064c FDE cie=00000000 pc=10000e5b0...10000e700
  Format:       DWARF32
  DW_CFA_advance_loc: 20
  DW_CFA_def_cfa_offset: +96
  DW_CFA_offset: reg30 -8
  DW_CFA_offset: reg29 -16
  DW_CFA_offset: reg19 -24
  DW_CFA_offset: reg20 -32
  DW_CFA_offset: reg21 -40
  DW_CFA_offset: reg22 -48
  DW_CFA_offset: reg23 -56
  DW_CFA_offset: reg24 -64
  DW_CFA_nop:
  DW_CFA_nop:
  DW_CFA_nop:
  DW_CFA_nop:

  0x10000e5b0: CFA=reg31
  0x10000e5c4: CFA=reg31+96: reg19=[CFA-24], reg20=[CFA-32], reg21=[CFA-40], reg22=[CFA-48], reg23=[CFA-56], reg24=[CFA-64], reg29=[CFA-16], reg30=[CFA-8]

00000678 00000024 0000067c FDE cie=00000000 pc=10000e700...10000e800
  Format:       DWARF32
  DW_CFA_advance_loc: 12
  DW_CFA_def_cfa_offset: +64
  DW_CFA_offset: reg30 -8
  DW_CFA_offset: reg29 -16
  DW_CFA_offset: reg19 -24
  DW_CFA_offset: reg20 -32
  DW_CFA_nop:
  DW_CFA_nop:
  DW_CFA_nop:
  DW_CFA_nop:

  0x10000e700: CFA=reg31
  0x10000e70c: CFA=reg31+64: reg19=[CFA-24], reg20=[CFA-32], reg29=[CFA-16], reg30=[CFA-8]

000006a0 00000024 000006a4 FDE cie=00000000 pc=10000e800...10000e900
  Format:       DWARF32
  DW_CFA_advance_loc: 12
  DW_CFA_def_cfa_offset: +64
  DW_CFA_offset: reg30 -8
  DW_CFA_offset: reg29 -16
  DW_CFA_offset: reg19 -24
  DW_CFA_offset: reg20 -32
  DW_CFA_nop:
  DW_CFA_nop:
  DW_CFA_nop:
  DW_CFA_nop:

  0x10000e800: CFA=reg31
  0x10000e80c: CFA=reg31+64: reg19=[CFA-24], reg20=[CFA-32], reg29=[CFA-16], reg30=[CFA-8]

000006c8 0000001c 000006cc FDE cie=00000000 pc=10000e940...10000eae0
  Format:       DWARF32
  DW_CFA_advance_loc: 8
  DW_CFA_def_cfa_offset: +48
  DW_CFA_offset: reg30 -8
  DW_CFA_offset: reg29 -16

  0x10000e940: CFA=reg31
  0x10000e948: CFA=reg31+48: reg29=[CFA-16], reg30=[CFA-8]

000006e8 00000024 000006ec FDE cie=00000000 pc=10000eae0...10000eb24
  Format:       DWARF32
  DW_CFA_advance_loc: 8
  DW_CFA_def_cfa_offset: +32
  DW_CFA_offset: reg30 -8
  DW_CFA_offset: reg29 -16
  DW_CFA_offset: reg19 -24
  DW_CFA_offset: reg20 -32
  DW_CFA_nop:
  DW_CFA_nop:
  DW_CFA_nop:
  DW_CFA_nop:

  0x10000eae0: CFA=reg31
  0x10000eae8: CFA=reg31+32: reg19=[CFA-24], reg20=[CFA-32], reg29=[CFA-16], reg30=[CFA-8]

00000710 00000024 00000714 FDE cie=00000000 pc=10000eb2c...10000ec24
  Format:       DWARF32
  DW_CFA_advance_loc: 16
  DW_CFA_def_cfa_offset: +80
  DW_CFA_offset: reg30 -8
  DW_CFA_offset: reg29 -16
  DW_CFA_offset: reg19 -24
  DW_CFA_offset: reg20 -32
  DW_CFA_offset: reg21 -40
  DW_CFA_offset: reg22 -48

  0x10000eb2c: CFA=reg31
  0x10000eb3c: CFA=reg31+80: reg19=[CFA-24], reg20=[CFA-32], reg21=[CFA-40], reg22=[CFA-48], reg29=[CFA-16], reg30=[CFA-8]

00000738 00000024 0000073c FDE cie=00000000 pc=10000ec24...10000ecec
  Format:       DWARF32
  DW_CFA_advance_loc: 12
  DW_CFA_def_cfa_offset: +64
  DW_CFA_offset: reg30 -8
  DW_CFA_offset: reg29 -16
  DW_CFA_offset: reg19 -24
  DW_CFA_offset: reg20 -32
  DW_CFA_nop:
  DW_CFA_nop:
  DW_CFA_nop:
  DW_CFA_nop:

  0x10000ec24: CFA=reg31
  0x10000ec30: CFA=reg31+64: reg19=[CFA-24], reg20=[CFA-32], reg29=[CFA-16], reg30=[CFA-8]

00000760 0000002c 00000764 FDE cie=00000000 pc=10000ecec...10000edbc
  Format:       DWARF32
  DW_CFA_advance_loc: 20
  DW_CFA_def_cfa_offset: +96
  DW_CFA_offset: reg30 -8
  DW_CFA_offset: reg29 -16
  DW_CFA_offset: reg19 -24
  DW_CFA_offset: reg20 -32
  DW_CFA_offset: reg21 -40
  DW_CFA_offset: reg22 -48
  DW_CFA_offset: reg23 -56
  DW_CFA_offset: reg24 -64
  DW_CFA_nop:
  DW_CFA_nop:
  DW_CFA_nop:
  DW_CFA_nop:

  0x10000ecec: CFA=reg31
  0x10000ed00: CFA=reg31+96: reg19=[CFA-24], reg20=[CFA-32], reg21=[CFA-40], reg22=[CFA-48], reg23=[CFA-56], reg24=[CFA-64], reg29=[CFA-16], reg30=[CFA-8]

00000790 00000024 00000794 FDE cie=00000000 pc=10000edbc...10000ee4c
  Format:       DWARF32
  DW_CFA_advance_loc: 12
  DW_CFA_def_cfa_offset: +48
  DW_CFA_offset: reg30 -8
  DW_CFA_offset: reg29 -16
  DW_CFA_offset: reg19 -24
  DW_CFA_offset: reg20 -32
  DW_CFA_offset: reg21 -40
  DW_CFA_offset: reg22 -48

  0x10000edbc: CFA=reg31
  0x10000edc8: CFA=reg31+48: reg19=[CFA-24], reg20=[CFA-32], reg21=[CFA-40], reg22=[CFA-48], reg29=[CFA-16], reg30=[CFA-8]

000007b8 00000024 000007bc FDE cie=00000000 pc=10000ee5c...10000ef7c
  Format:       DWARF32
  DW_CFA_advance_loc: 16
  DW_CFA_def_cfa_offset: +80
  DW_CFA_offset: reg30 -8
  DW_CFA_offset: reg29 -16
  DW_CFA_offset: reg19 -24
  DW_CFA_offset: reg20 -32
  DW_CFA_offset: reg21 -40
  DW_CFA_offset: reg22 -48

  0x10000ee5c: CFA=reg31
  0x10000ee6c: CFA=reg31+80: reg19=[CFA-24], reg20=[CFA-32], reg21=[CFA-40], reg22=[CFA-48], reg29=[CFA-16], reg30=[CFA-8]

000007e0 00000034 000007e4 FDE cie=00000000 pc=10000f110...10000f338
  Format:       DWARF32
  DW_CFA_advance_loc: 28
  DW_CFA_def_cfa_offset: +208
  DW_CFA_offset: reg30 -8
  DW_CFA_offset: reg29 -16
  DW_CFA_offset: reg19 -24
  DW_CFA_offset: reg20 -32
  DW_CFA_offset: reg21 -40
  DW_CFA_offset: reg22 -48
  DW_CFA_offset: reg23 -56
  DW_CFA_offset: reg24 -64
  DW_CFA_offset: reg25 -72
  DW_CFA_offset: reg26 -80
  DW_CFA_offset: reg27 -88
  DW_CFA_offset: reg28 -96
  DW_CFA_nop:
  DW_CFA_nop:
  DW_CFA_nop:

  0x10000f110: CFA=reg31
  0x10000f12c: CFA=reg31+208: reg19=[CFA-24], reg20=[CFA-32], reg21=[CFA-40], reg22=[CFA-48], reg23=[CFA-56], reg24=[CFA-64], reg25=[CFA-72], reg26=[CFA-80], reg27=[CFA-88], reg28=[CFA-96], reg29=[CFA-16], reg30=[CFA-8]

00000818 00000024 0000081c FDE cie=00000000 pc=10000f338...10000f404
  Format:       DWARF32
  DW_CFA_advance_loc: 12
  DW_CFA_def_cfa_offset: +64
  DW_CFA_offset: reg30 -8
  DW_CFA_offset: reg29 -16
  DW_CFA_offset: reg19 -24
  DW_CFA_offset: reg20 -32
  DW_CFA_nop:
  DW_CFA_nop:
  DW_CFA_nop:
  DW_CFA_nop:

  0x10000f338: CFA=reg31
  0x10000f344: CFA=reg31+64: reg19=[CFA-24], reg20=[CFA-32], reg29=[CFA-16], reg30=[CFA-8]

00000840 0000002c 00000844 FDE cie=00000000 pc=10000f404...10000f4d8
  Format:       DWARF32
  DW_CFA_advance_loc: 20
  DW_CFA_def_cfa_offset: +96
  DW_CFA_offset: reg30 -8
  DW_CFA_offset: reg29 -16
  DW_CFA_offset: reg19 -24
  DW_CFA_offset: reg20 -32
  DW_CFA_offset: reg21 -40
  DW_CFA_offset: reg22 -48
  DW_CFA_offset: reg23 -56
  DW_CFA_offset: reg24 -64
  DW_CFA_nop:
  DW_CFA_nop:
  DW_CFA_nop:
  DW_CFA_nop:

  0x10000f404: CFA=reg31
  0x10000f418: CFA=reg31+96: reg19=[CFA-24], reg20=[CFA-32], reg21=[CFA-40], reg22=[CFA-48], reg23=[CFA-56], reg24=[CFA-64], reg29=[CFA-16], reg30=[CFA-8]

00000870 00000024 00000874 FDE cie=00000000 pc=10000f4d8...10000f570
  Format:       DWARF32
  DW_CFA_advance_loc: 12
  DW_CFA_def_cfa_offset: +48
  DW_CFA_offset: reg30 -8
  DW_CFA_offset: reg29 -16
  DW_CFA_offset: reg19 -24
  DW_CFA_offset: reg20 -32
  DW_CFA_offset: reg21 -40
  DW_CFA_offset: reg22 -48

  0x10000f4d8: CFA=reg31
  0x10000f4e4: CFA=reg31+48: reg19=[CFA-24], reg20=[CFA-32], reg21=[CFA-40], reg22=[CFA-48], reg29=[CFA-16], reg30=[CFA-8]

00000898 0000002c 0000089c FDE cie=00000000 pc=10000f580...10000f6cc
  Format:       DWARF32
  DW_CFA_advance_loc: 20
  DW_CFA_def_cfa_offset: +96
  DW_CFA_offset: reg30 -8
  DW_CFA_offset: reg29 -16
  DW_CFA_offset: reg19 -24
  DW_CFA_offset: reg20 -32
  DW_CFA_offset: reg21 -40
  DW_CFA_offset: reg22 -48
  DW_CFA_offset: reg23 -56
  DW_CFA_offset: reg24 -64
  DW_CFA_nop:
  DW_CFA_nop:
  DW_CFA_nop:
  DW_CFA_nop:

  0x10000f580: CFA=reg31
  0x10000f594: CFA=reg31+96: reg19=[CFA-24], reg20=[CFA-32], reg21=[CFA-40], reg22=[CFA-48], reg23=[CFA-56], reg24=[CFA-64], reg29=[CFA-16], reg30=[CFA-8]

000008c8 0000001c 000008cc FDE cie=00000000 pc=10000f6cc...10000f86c
  Format:       DWARF32
  DW_CFA_advance_loc: 8
  DW_CFA_def_cfa_offset: +48
  DW_CFA_offset: reg30 -8
  DW_CFA_offset: reg29 -16

  0x10000f6cc: CFA=reg31
  0x10000f6d4: CFA=reg31+48: reg29=[CFA-16], reg30=[CFA-8]

000008e8 00000024 000008ec FDE cie=00000000 pc=10000f86c...10000f8a8
  Format:       DWARF32
  DW_CFA_advance_loc: 8
  DW_CFA_def_cfa_offset: +32
  DW_CFA_offset: reg30 -8
  DW_CFA_offset: reg29 -16
  DW_CFA_offset: reg19 -24
  DW_CFA_offset: reg20 -32
  DW_CFA_nop:
  DW_CFA_nop:
  DW_CFA_nop:
  DW_CFA_nop:

  0x10000f86c: CFA=reg31
  0x10000f874: CFA=reg31+32: reg19=[CFA-24], reg20=[CFA-32], reg29=[CFA-16], reg30=[CFA-8]

00000910 00000024 00000914 FDE cie=00000000 pc=10000f8c0...10000f988
  Format:       DWARF32
  DW_CFA_advance_loc: 12
  DW_CFA_def_cfa_offset: +64
  DW_CFA_offset: reg30 -8
  DW_CFA_offset: reg29 -16
  DW_CFA_offset: reg19 -24
  DW_CFA_offset: reg20 -32
  DW_CFA_nop:
  DW_CFA_nop:
  DW_CFA_nop:
  DW_CFA_nop:

  0x10000f8c0: CFA=reg31
  0x10000f8cc: CFA=reg31+64: reg19=[CFA-24], reg20=[CFA-32], reg29=[CFA-16], reg30=[CFA-8]

00000938 00000024 0000093c FDE cie=00000000 pc=10000f988...10000fa10
  Format:       DWARF32
  DW_CFA_advance_loc: 12
  DW_CFA_def_cfa_offset: +64
  DW_CFA_offset: reg30 -8
  DW_CFA_offset: reg29 -16
  DW_CFA_offset: reg19 -24
  DW_CFA_offset: reg20 -32
  DW_CFA_nop:
  DW_CFA_nop:
  DW_CFA_nop:
  DW_CFA_nop:

  0x10000f988: CFA=reg31
  0x10000f994: CFA=reg31+64: reg19=[CFA-24], reg20=[CFA-32], reg29=[CFA-16], reg30=[CFA-8]

00000960 00000024 00000964 FDE cie=00000000 pc=10000fa10...10000fa54
  Format:       DWARF32
  DW_CFA_advance_loc: 8
  DW_CFA_def_cfa_offset: +32
  DW_CFA_offset: reg30 -8
  DW_CFA_offset: reg29 -16
  DW_CFA_offset: reg19 -24
  DW_CFA_offset: reg20 -32
  DW_CFA_nop:
  DW_CFA_nop:
  DW_CFA_nop:
  DW_CFA_nop:

  0x10000fa10: CFA=reg31
  0x10000fa18: CFA=reg31+32: reg19=[CFA-24], reg20=[CFA-32], reg29=[CFA-16], reg30=[CFA-8]

00000988 00000024 0000098c FDE cie=00000000 pc=10000fa64...10000fb5c
  Format:       DWARF32
  DW_CFA_advance_loc: 16
  DW_CFA_def_cfa_offset: +80
  DW_CFA_offset: reg30 -8
  DW_CFA_offset: reg29 -16
  DW_CFA_offset: reg19 -24
  DW_CFA_offset: reg20 -32
  DW_CFA_offset: reg21 -40
  DW_CFA_offset: reg22 -48

  0x10000fa64: CFA=reg31
  0x10000fa74: CFA=reg31+80: reg19=[CFA-24], reg20=[CFA-32], reg21=[CFA-40], reg22=[CFA-48], reg29=[CFA-16], reg30=[CFA-8]

000009b0 00000024 000009b4 FDE cie=00000000 pc=10000fb5c...10000fbe8
  Format:       DWARF32
  DW_CFA_advance_loc: 12
  DW_CFA_def_cfa_offset: +64
  DW_CFA_offset: reg30 -8
  DW_CFA_offset: reg29 -16
  DW_CFA_offset: reg19 -24
  DW_CFA_offset: reg20 -32
  DW_CFA_nop:
  DW_CFA_nop:
  DW_CFA_nop:
  DW_CFA_nop:

  0x10000fb5c: CFA=reg31
  0x10000fb68: CFA=reg31+64: reg19=[CFA-24], reg20=[CFA-32], reg29=[CFA-16], reg30=[CFA-8]

000009d8 00000024 000009dc FDE cie=00000000 pc=10000fbe8...10000fc3c
  Format:       DWARF32
  DW_CFA_advance_loc: 12
  DW_CFA_def_cfa_offset: +48
  DW_CFA_offset: reg30 -8
  DW_CFA_offset: reg29 -16
  DW_CFA_offset: reg19 -24
  DW_CFA_offset: reg20 -32
  DW_CFA_offset: reg21 -40
  DW_CFA_offset: reg22 -48

  0x10000fbe8: CFA=reg31
  0x10000fbf4: CFA=reg31+48: reg19=[CFA-24], reg20=[CFA-32], reg21=[CFA-40], reg22=[CFA-48], reg29=[CFA-16], reg30=[CFA-8]

00000a00 00000024 00000a04 FDE cie=00000000 pc=10000fc54...10000fd70
  Format:       DWARF32
  DW_CFA_advance_loc: 16
  DW_CFA_def_cfa_offset: +80
  DW_CFA_offset: reg30 -8
  DW_CFA_offset: reg29 -16
  DW_CFA_offset: reg19 -24
  DW_CFA_offset: reg20 -32
  DW_CFA_offset: reg21 -40
  DW_CFA_offset: reg22 -48

  0x10000fc54: CFA=reg31
  0x10000fc64: CFA=reg31+80: reg19=[CFA-24], reg20=[CFA-32], reg21=[CFA-40], reg22=[CFA-48], reg29=[CFA-16], reg30=[CFA-8]

00000a28 0000002c 00000a2c FDE cie=00000000 pc=10000fd70...1000101b4
  Format:       DWARF32
  DW_CFA_advance_loc: 16
  DW_CFA_def_cfa_offset: +64
  DW_CFA_offset: reg30 -8
  DW_CFA_offset: reg29 -16
  DW_CFA_offset: reg19 -24
  DW_CFA_offset: reg20 -32
  DW_CFA_offset: reg21 -40
  DW_CFA_offset: reg22 -48
  DW_CFA_offset: reg23 -56
  DW_CFA_offset: reg24 -64
  DW_CFA_nop:
  DW_CFA_nop:
  DW_CFA_nop:
  DW_CFA_nop:

  0x10000fd70: CFA=reg31
  0x10000fd80: CFA=reg31+64: reg19=[CFA-24], reg20=[CFA-32], reg21=[CFA-40], reg22=[CFA-48], reg23=[CFA-56], reg24=[CFA-64], reg29=[CFA-16], reg30=[CFA-8]

00000a58 00000024 00000a5c FDE cie=00000000 pc=1000101b4...10001027c
  Format:       DWARF32
  DW_CFA_advance_loc: 12
  DW_CFA_def_cfa_offset: +64
  DW_CFA_offset: reg30 -8
  DW_CFA_offset: reg29 -16
  DW_CFA_offset: reg19 -24
  DW_CFA_offset: reg20 -32
  DW_CFA_nop:
  DW_CFA_nop:
  DW_CFA_nop:
  DW_CFA_nop:

  0x1000101b4: CFA=reg31
  0x1000101c0: CFA=reg31+64: reg19=[CFA-24], reg20=[CFA-32], reg29=[CFA-16], reg30=[CFA-8]

00000a80 00000024 00000a84 FDE cie=00000000 pc=10001027c...1000103dc
  Format:       DWARF32
  DW_CFA_advance_loc: 16
  DW_CFA_def_cfa_offset: +80
  DW_CFA_offset: reg30 -8
  DW_CFA_offset: reg29 -16
  DW_CFA_offset: reg19 -24
  DW_CFA_offset: reg20 -32
  DW_CFA_offset: reg21 -40
  DW_CFA_offset: reg22 -48

  0x10001027c: CFA=reg31
  0x10001028c: CFA=reg31+80: reg19=[CFA-24], reg20=[CFA-32], reg21=[CFA-40], reg22=[CFA-48], reg29=[CFA-16], reg30=[CFA-8]

00000aa8 0000001c 00000aac FDE cie=00000000 pc=1004075a4...1004075ac
  Format:       DWARF32
  DW_CFA_advance_loc: 4
  DW_CFA_def_cfa_offset: +16
  DW_CFA_offset: reg30 -8
  DW_CFA_offset: reg29 -16

  0x1004075a4: CFA=reg31
  0x1004075a8: CFA=reg31+16: reg29=[CFA-16], reg30=[CFA-8]

00000ac8 0000001c 00000acc FDE cie=00000000 pc=1000103dc...1000103e4
  Format:       DWARF32
  DW_CFA_advance_loc: 4
  DW_CFA_def_cfa_offset: +16
  DW_CFA_offset: reg30 -8
  DW_CFA_offset: reg29 -16

  0x1000103dc: CFA=reg31
  0x1000103e0: CFA=reg31+16: reg29=[CFA-16], reg30=[CFA-8]

00000ae8 0000001c 00000aec FDE cie=00000000 pc=10001057c...100010598
  Format:       DWARF32
  DW_CFA_advance_loc: 4
  DW_CFA_def_cfa_offset: +16
  DW_CFA_offset: reg30 -8
  DW_CFA_offset: reg29 -16

  0x10001057c: CFA=reg31
  0x100010580: CFA=reg31+16: reg29=[CFA-16], reg30=[CFA-8]

00000b08 00000024 00000b0c FDE cie=00000000 pc=100010738...1000107a8
  Format:       DWARF32
  DW_CFA_advance_loc: 12
  DW_CFA_def_cfa_offset: +48
  DW_CFA_offset: reg30 -8
  DW_CFA_offset: reg29 -16
  DW_CFA_offset: reg19 -24
  DW_CFA_offset: reg20 -32
  DW_CFA_offset: reg21 -40
  DW_CFA_offset: reg22 -48

  0x100010738: CFA=reg31
  0x100010744: CFA=reg31+48: reg19=[CFA-24], reg20=[CFA-32], reg21=[CFA-40], reg22=[CFA-48], reg29=[CFA-16], reg30=[CFA-8]

00000b30 0000001c 00000b34 FDE cie=00000000 pc=1000107a8...1000107c0
  Format:       DWARF32
  DW_CFA_advance_loc: 4
  DW_CFA_def_cfa_offset: +16
  DW_CFA_offset: reg30 -8
  DW_CFA_offset: reg29 -16

  0x1000107a8: CFA=reg31
  0x1000107ac: CFA=reg31+16: reg29=[CFA-16], reg30=[CFA-8]

00000b50 0000001c 00000b54 FDE cie=00000000 pc=1000107c0...100010800
  Format:       DWARF32
  DW_CFA_advance_loc: 8
  DW_CFA_def_cfa_offset: +80
  DW_CFA_offset: reg30 -8
  DW_CFA_offset: reg29 -16

  0x1000107c0: CFA=reg31
  0x1000107c8: CFA=reg31+80: reg29=[CFA-16], reg30=[CFA-8]

00000b70 00000024 00000b74 FDE cie=00000000 pc=100010800...10001093c
  Format:       DWARF32
  DW_CFA_advance_loc: 16
  DW_CFA_def_cfa_offset: +64
  DW_CFA_offset: reg30 -8
  DW_CFA_offset: reg29 -16
  DW_CFA_offset: reg19 -24
  DW_CFA_offset: reg20 -32
  DW_CFA_offset: reg21 -40
  DW_CFA_offset: reg22 -48

  0x100010800: CFA=reg31
  0x100010810: CFA=reg31+64: reg19=[CFA-24], reg20=[CFA-32], reg21=[CFA-40], reg22=[CFA-48], reg29=[CFA-16], reg30=[CFA-8]

00000b98 0000001c 00000b9c FDE cie=00000000 pc=1004075ac...100407600
  Format:       DWARF32
  DW_CFA_advance_loc: 8
  DW_CFA_def_cfa_offset: +112
  DW_CFA_offset: reg30 -8
  DW_CFA_offset: reg29 -16

  0x1004075ac: CFA=reg31
  0x1004075b4: CFA=reg31+112: reg29=[CFA-16], reg30=[CFA-8]

00000bb8 0000001c 00000bbc FDE cie=00000000 pc=100407600...100407654
  Format:       DWARF32
  DW_CFA_advance_loc: 8
  DW_CFA_def_cfa_offset: +112
  DW_CFA_offset: reg30 -8
  DW_CFA_offset: reg29 -16

  0x100407600: CFA=reg31
  0x100407608: CFA=reg31+112: reg29=[CFA-16], reg30=[CFA-8]

00000bd8 0000001c 00000bdc FDE cie=00000000 pc=100407654...1004076a8
  Format:       DWARF32
  DW_CFA_advance_loc: 8
  DW_CFA_def_cfa_offset: +112
  DW_CFA_offset: reg30 -8
  DW_CFA_offset: reg29 -16

  0x100407654: CFA=reg31
  0x10040765c: CFA=reg31+112: reg29=[CFA-16], reg30=[CFA-8]

00000bf8 0000001c 00000bfc FDE cie=00000000 pc=1004076a8...1004076fc
  Format:       DWARF32
  DW_CFA_advance_loc: 8
  DW_CFA_def_cfa_offset: +112
  DW_CFA_offset: reg30 -8
  DW_CFA_offset: reg29 -16

  0x1004076a8: CFA=reg31
  0x1004076b0: CFA=reg31+112: reg29=[CFA-16], reg30=[CFA-8]

00000c18 00000024 00000c1c FDE cie=00000000 pc=10001111c...100011214
  Format:       DWARF32
  DW_CFA_advance_loc: 16
  DW_CFA_def_cfa_offset: +80
  DW_CFA_offset: reg30 -8
  DW_CFA_offset: reg29 -16
  DW_CFA_offset: reg19 -24
  DW_CFA_offset: reg20 -32
  DW_CFA_offset: reg21 -40
  DW_CFA_offset: reg22 -48

  0x10001111c: CFA=reg31
  0x10001112c: CFA=reg31+80: reg19=[CFA-24], reg20=[CFA-32], reg21=[CFA-40], reg22=[CFA-48], reg29=[CFA-16], reg30=[CFA-8]

00000c40 0000002c 00000c44 FDE cie=00000000 pc=10001121c...100011b20
  Format:       DWARF32
  DW_CFA_advance_loc: 20
  DW_CFA_def_cfa_offset: +192
  DW_CFA_offset: reg30 -8
  DW_CFA_offset: reg29 -16
  DW_CFA_offset: reg19 -24
  DW_CFA_offset: reg20 -32
  DW_CFA_offset: reg21 -40
  DW_CFA_offset: reg22 -48
  DW_CFA_offset: reg23 -56
  DW_CFA_offset: reg24 -64
  DW_CFA_nop:
  DW_CFA_nop:
  DW_CFA_nop:

  0x10001121c: CFA=reg31
  0x100011230: CFA=reg31+192: reg19=[CFA-24], reg20=[CFA-32], reg21=[CFA-40], reg22=[CFA-48], reg23=[CFA-56], reg24=[CFA-64], reg29=[CFA-16], reg30=[CFA-8]

00000c70 0000001c 00000c74 FDE cie=00000000 pc=100011b20...100011bd8
  Format:       DWARF32
  DW_CFA_advance_loc: 8
  DW_CFA_def_cfa_offset: +64
  DW_CFA_offset: reg30 -8
  DW_CFA_offset: reg29 -16

  0x100011b20: CFA=reg31
  0x100011b28: CFA=reg31+64: reg29=[CFA-16], reg30=[CFA-8]

00000c90 0000001c 00000c94 FDE cie=00000000 pc=100011bd8...100011c54
  Format:       DWARF32
  DW_CFA_advance_loc: 8
  DW_CFA_def_cfa_offset: +80
  DW_CFA_offset: reg30 -8
  DW_CFA_offset: reg29 -16

  0x100011bd8: CFA=reg31
  0x100011be0: CFA=reg31+80: reg29=[CFA-16], reg30=[CFA-8]

00000cb0 00000034 00000cb4 FDE cie=00000000 pc=100011c54...1000121c0
  Format:       DWARF32
  DW_CFA_advance_loc: 28
  DW_CFA_def_cfa_offset: +112
  DW_CFA_offset: reg30 -8
  DW_CFA_offset: reg29 -16
  DW_CFA_offset: reg19 -24
  DW_CFA_offset: reg20 -32
  DW_CFA_offset: reg21 -40
  DW_CFA_offset: reg22 -48
  DW_CFA_offset: reg23 -56
  DW_CFA_offset: reg24 -64
  DW_CFA_offset: reg25 -72
  DW_CFA_offset: reg26 -80
  DW_CFA_offset: reg27 -88
  DW_CFA_offset: reg28 -96
  DW_CFA_nop:
  DW_CFA_nop:
  DW_CFA_nop:
  DW_CFA_nop:

  0x100011c54: CFA=reg31
  0x100011c70: CFA=reg31+112: reg19=[CFA-24], reg20=[CFA-32], reg21=[CFA-40], reg22=[CFA-48], reg23=[CFA-56], reg24=[CFA-64], reg25=[CFA-72], reg26=[CFA-80], reg27=[CFA-88], reg28=[CFA-96], reg29=[CFA-16], reg30=[CFA-8]

00000ce8 0000001c 00000cec FDE cie=00000000 pc=100012e7c...100012eb8
  Format:       DWARF32
  DW_CFA_advance_loc: 8
  DW_CFA_def_cfa_offset: +80
  DW_CFA_offset: reg30 -8
  DW_CFA_offset: reg29 -16

  0x100012e7c: CFA=reg31
  0x100012e84: CFA=reg31+80: reg29=[CFA-16], reg30=[CFA-8]

00000d08 0000001c 00000d0c FDE cie=00000000 pc=100012eb8...100012ed0
  Format:       DWARF32
  DW_CFA_advance_loc: 4
  DW_CFA_def_cfa_offset: +16
  DW_CFA_offset: reg30 -8
  DW_CFA_offset: reg29 -16

  0x100012eb8: CFA=reg31
  0x100012ebc: CFA=reg31+16: reg29=[CFA-16], reg30=[CFA-8]

00000d28 0000001c 00000d2c FDE cie=00000000 pc=100012ed0...100012f10
  Format:       DWARF32
  DW_CFA_advance_loc: 8
  DW_CFA_def_cfa_offset: +80
  DW_CFA_offset: reg30 -8
  DW_CFA_offset: reg29 -16

  0x100012ed0: CFA=reg31
  0x100012ed8: CFA=reg31+80: reg29=[CFA-16], reg30=[CFA-8]

00000d48 0000001c 00000d4c FDE cie=00000000 pc=100012f18...100012fe0
  Format:       DWARF32
  DW_CFA_advance_loc: 8
  DW_CFA_def_cfa_offset: +32
  DW_CFA_offset: reg30 -8
  DW_CFA_offset: reg29 -16

  0x100012f18: CFA=reg31
  0x100012f20: CFA=reg31+32: reg29=[CFA-16], reg30=[CFA-8]

00000d68 0000001c 00000d6c FDE cie=00000000 pc=100012fe0...100013020
  Format:       DWARF32
  DW_CFA_advance_loc: 8
  DW_CFA_def_cfa_offset: +80
  DW_CFA_offset: reg30 -8
  DW_CFA_offset: reg29 -16

  0x100012fe0: CFA=reg31
  0x100012fe8: CFA=reg31+80: reg29=[CFA-16], reg30=[CFA-8]

00000d88 00000034 00000d8c FDE cie=00000000 pc=100013020...100013314
  Format:       DWARF32
  DW_CFA_advance_loc: 28
  DW_CFA_def_cfa_offset: +208
  DW_CFA_offset: reg30 -8
  DW_CFA_offset: reg29 -16
  DW_CFA_offset: reg19 -24
  DW_CFA_offset: reg20 -32
  DW_CFA_offset: reg21 -40
  DW_CFA_offset: reg22 -48
  DW_CFA_offset: reg23 -56
  DW_CFA_offset: reg24 -64
  DW_CFA_offset: reg25 -72
  DW_CFA_offset: reg26 -80
  DW_CFA_offset: reg27 -88
  DW_CFA_offset: reg28 -96
  DW_CFA_nop:
  DW_CFA_nop:
  DW_CFA_nop:

  0x100013020: CFA=reg31
  0x10001303c: CFA=reg31+208: reg19=[CFA-24], reg20=[CFA-32], reg21=[CFA-40], reg22=[CFA-48], reg23=[CFA-56], reg24=[CFA-64], reg25=[CFA-72], reg26=[CFA-80], reg27=[CFA-88], reg28=[CFA-96], reg29=[CFA-16], reg30=[CFA-8]

00000dc0 0000001c 00000dc4 FDE cie=00000000 pc=100013328...100013410
  Format:       DWARF32
  DW_CFA_advance_loc: 8
  DW_CFA_def_cfa_offset: +112
  DW_CFA_offset: reg30 -8
  DW_CFA_offset: reg29 -16

  0x100013328: CFA=reg31
  0x100013330: CFA=reg31+112: reg29=[CFA-16], reg30=[CFA-8]

00000de0 00000024 00000de4 FDE cie=00000000 pc=100013454...100013650
  Format:       DWARF32
  DW_CFA_advance_loc: 16
  DW_CFA_def_cfa_offset: +80
  DW_CFA_offset: reg30 -8
  DW_CFA_offset: reg29 -16
  DW_CFA_offset: reg19 -24
  DW_CFA_offset: reg20 -32
  DW_CFA_offset: reg21 -40
  DW_CFA_offset: reg22 -48

  0x100013454: CFA=reg31
  0x100013464: CFA=reg31+80: reg19=[CFA-24], reg20=[CFA-32], reg21=[CFA-40], reg22=[CFA-48], reg29=[CFA-16], reg30=[CFA-8]

00000e08 00000024 00000e0c FDE cie=00000000 pc=100013650...1000137e0
  Format:       DWARF32
  DW_CFA_advance_loc: 8
  DW_CFA_def_cfa_offset: +144
  DW_CFA_offset: reg30 -8
  DW_CFA_offset: reg29 -16
  DW_CFA_nop:
  DW_CFA_nop:
  DW_CFA_nop:
  DW_CFA_nop:
  DW_CFA_nop:
  DW_CFA_nop:
  DW_CFA_nop:

  0x100013650: CFA=reg31
  0x100013658: CFA=reg31+144: reg29=[CFA-16], reg30=[CFA-8]

00000e30 00000024 00000e34 FDE cie=00000000 pc=1000137f8...100013990
  Format:       DWARF32
  DW_CFA_advance_loc: 12
  DW_CFA_def_cfa_offset: +160
  DW_CFA_offset: reg30 -8
  DW_CFA_offset: reg29 -16
  DW_CFA_offset: reg19 -24
  DW_CFA_offset: reg20 -32
  DW_CFA_nop:
  DW_CFA_nop:
  DW_CFA_nop:

  0x1000137f8: CFA=reg31
  0x100013804: CFA=reg31+160: reg19=[CFA-24], reg20=[CFA-32], reg29=[CFA-16], reg30=[CFA-8]

00000e58 0000001c 00000e5c FDE cie=00000000 pc=100013ad0...100013b24
  Format:       DWARF32
  DW_CFA_advance_loc: 4
  DW_CFA_def_cfa_offset: +16
  DW_CFA_offset: reg30 -8
  DW_CFA_offset: reg29 -16

  0x100013ad0: CFA=reg31
  0x100013ad4: CFA=reg31+16: reg29=[CFA-16], reg30=[CFA-8]

00000e78 00000024 00000e7c FDE cie=00000000 pc=100013b24...100013b90
  Format:       DWARF32
  DW_CFA_advance_loc: 8
  DW_CFA_def_cfa_offset: +32
  DW_CFA_offset: reg30 -8
  DW_CFA_offset: reg29 -16
  DW_CFA_offset: reg19 -24
  DW_CFA_offset: reg20 -32
  DW_CFA_nop:
  DW_CFA_nop:
  DW_CFA_nop:
  DW_CFA_nop:

  0x100013b24: CFA=reg31
  0x100013b2c: CFA=reg31+32: reg19=[CFA-24], reg20=[CFA-32], reg29=[CFA-16], reg30=[CFA-8]

00000ea0 0000002c 00000ea4 FDE cie=00000000 pc=1004076fc...1004077c4
  Format:       DWARF32
  DW_CFA_advance_loc: 16
  DW_CFA_def_cfa_offset: +64
  DW_CFA_offset: reg30 -8
  DW_CFA_offset: reg29 -16
  DW_CFA_offset: reg19 -24
  DW_CFA_offset: reg20 -32
  DW_CFA_offset: reg21 -40
  DW_CFA_offset: reg22 -48
  DW_CFA_offset: reg23 -56
  DW_CFA_offset: reg24 -64
  DW_CFA_nop:
  DW_CFA_nop:
  DW_CFA_nop:
  DW_CFA_nop:

  0x1004076fc: CFA=reg31
  0x10040770c: CFA=reg31+64: reg19=[CFA-24], reg20=[CFA-32], reg21=[CFA-40], reg22=[CFA-48], reg23=[CFA-56], reg24=[CFA-64], reg29=[CFA-16], reg30=[CFA-8]

00000ed0 0000001c 00000ed4 FDE cie=00000000 pc=1004077c4...1004077cc
  Format:       DWARF32
  DW_CFA_advance_loc: 4
  DW_CFA_def_cfa_offset: +16
  DW_CFA_offset: reg30 -8
  DW_CFA_offset: reg29 -16

  0x1004077c4: CFA=reg31
  0x1004077c8: CFA=reg31+16: reg29=[CFA-16], reg30=[CFA-8]

00000ef0 0000001c 00000ef4 FDE cie=00000000 pc=100013b90...100013bc4
  Format:       DWARF32
  DW_CFA_advance_loc: 4
  DW_CFA_def_cfa_offset: +16
  DW_CFA_offset: reg30 -8
  DW_CFA_offset: reg29 -16

  0x100013b90: CFA=reg31
  0x100013b94: CFA=reg31+16: reg29=[CFA-16], reg30=[CFA-8]

00000f10 00000024 00000f14 FDE cie=00000000 pc=100013bc4...100013c18
  Format:       DWARF32
  DW_CFA_advance_loc: 8
  DW_CFA_def_cfa_offset: +32
  DW_CFA_offset: reg30 -8
  DW_CFA_offset: reg29 -16
  DW_CFA_offset: reg19 -24
  DW_CFA_offset: reg20 -32
  DW_CFA_nop:
  DW_CFA_nop:
  DW_CFA_nop:
  DW_CFA_nop:

  0x100013bc4: CFA=reg31
  0x100013bcc: CFA=reg31+32: reg19=[CFA-24], reg20=[CFA-32], reg29=[CFA-16], reg30=[CFA-8]

00000f38 0000001c 00000f3c FDE cie=00000000 pc=100013c18...100013c6c
  Format:       DWARF32
  DW_CFA_advance_loc: 4
  DW_CFA_def_cfa_offset: +16
  DW_CFA_offset: reg30 -8
  DW_CFA_offset: reg29 -16

  0x100013c18: CFA=reg31
  0x100013c1c: CFA=reg31+16: reg29=[CFA-16], reg30=[CFA-8]

00000f58 00000024 00000f5c FDE cie=00000000 pc=100013c6c...100013cd4
  Format:       DWARF32
  DW_CFA_advance_loc: 8
  DW_CFA_def_cfa_offset: +32
  DW_CFA_offset: reg30 -8
  DW_CFA_offset: reg29 -16
  DW_CFA_offset: reg19 -24
  DW_CFA_offset: reg20 -32
  DW_CFA_nop:
  DW_CFA_nop:
  DW_CFA_nop:
  DW_CFA_nop:

  0x100013c6c: CFA=reg31
  0x100013c74: CFA=reg31+32: reg19=[CFA-24], reg20=[CFA-32], reg29=[CFA-16], reg30=[CFA-8]

00000f80 0000001c 00000f84 FDE cie=00000000 pc=100013cd4...100013d08
  Format:       DWARF32
  DW_CFA_advance_loc: 4
  DW_CFA_def_cfa_offset: +16
  DW_CFA_offset: reg30 -8
  DW_CFA_offset: reg29 -16

  0x100013cd4: CFA=reg31
  0x100013cd8: CFA=reg31+16: reg29=[CFA-16], reg30=[CFA-8]

00000fa0 00000024 00000fa4 FDE cie=00000000 pc=100013d08...100013d5c
  Format:       DWARF32
  DW_CFA_advance_loc: 8
  DW_CFA_def_cfa_offset: +32
  DW_CFA_offset: reg30 -8
  DW_CFA_offset: reg29 -16
  DW_CFA_offset: reg19 -24
  DW_CFA_offset: reg20 -32
  DW_CFA_nop:
  DW_CFA_nop:
  DW_CFA_nop:
  DW_CFA_nop:

  0x100013d08: CFA=reg31
  0x100013d10: CFA=reg31+32: reg19=[CFA-24], reg20=[CFA-32], reg29=[CFA-16], reg30=[CFA-8]

00000fc8 0000002c 00000fcc FDE cie=00000000 pc=100013d5c...100013e58
  Format:       DWARF32
  DW_CFA_advance_loc: 16
  DW_CFA_def_cfa_offset: +64
  DW_CFA_offset: reg30 -8
  DW_CFA_offset: reg29 -16
  DW_CFA_offset: reg19 -24
  DW_CFA_offset: reg20 -32
  DW_CFA_offset: reg21 -40
  DW_CFA_offset: reg22 -48
  DW_CFA_offset: reg23 -56
  DW_CFA_offset: reg24 -64
  DW_CFA_nop:
  DW_CFA_nop:
  DW_CFA_nop:
  DW_CFA_nop:

  0x100013d5c: CFA=reg31
  0x100013d6c: CFA=reg31+64: reg19=[CFA-24], reg20=[CFA-32], reg21=[CFA-40], reg22=[CFA-48], reg23=[CFA-56], reg24=[CFA-64], reg29=[CFA-16], reg30=[CFA-8]

00000ff8 00000024 00000ffc FDE cie=00000000 pc=100014050...1000140d0
  Format:       DWARF32
  DW_CFA_advance_loc: 8
  DW_CFA_def_cfa_offset: +32
  DW_CFA_offset: reg30 -8
  DW_CFA_offset: reg29 -16
  DW_CFA_offset: reg19 -24
  DW_CFA_offset: reg20 -32
  DW_CFA_nop:
  DW_CFA_nop:
  DW_CFA_nop:
  DW_CFA_nop:

  0x100014050: CFA=reg31
  0x100014058: CFA=reg31+32: reg19=[CFA-24], reg20=[CFA-32], reg29=[CFA-16], reg30=[CFA-8]

00001020 0000002c 00001024 FDE cie=00000000 pc=1000140d0...1000142f0
  Format:       DWARF32
  DW_CFA_advance_loc: 20
  DW_CFA_def_cfa_offset: +96
  DW_CFA_offset: reg30 -8
  DW_CFA_offset: reg29 -16
  DW_CFA_offset: reg19 -24
  DW_CFA_offset: reg20 -32
  DW_CFA_offset: reg21 -40
  DW_CFA_offset: reg22 -48
  DW_CFA_offset: reg23 -56
  DW_CFA_offset: reg24 -64
  DW_CFA_nop:
  DW_CFA_nop:
  DW_CFA_nop:
  DW_CFA_nop:

  0x1000140d0: CFA=reg31
  0x1000140e4: CFA=reg31+96: reg19=[CFA-24], reg20=[CFA-32], reg21=[CFA-40], reg22=[CFA-48], reg23=[CFA-56], reg24=[CFA-64], reg29=[CFA-16], reg30=[CFA-8]

00001050 00000034 00001054 FDE cie=00000000 pc=1000142f0...1000144e0
  Format:       DWARF32
  DW_CFA_advance_loc: 28
  DW_CFA_def_cfa_offset: +176
  DW_CFA_offset: reg30 -8
  DW_CFA_offset: reg29 -16
  DW_CFA_offset: reg19 -24
  DW_CFA_offset: reg20 -32
  DW_CFA_offset: reg21 -40
  DW_CFA_offset: reg22 -48
  DW_CFA_offset: reg23 -56
  DW_CFA_offset: reg24 -64
  DW_CFA_offset: reg25 -72
  DW_CFA_offset: reg26 -80
  DW_CFA_offset: reg27 -88
  DW_CFA_offset: reg28 -96
  DW_CFA_nop:
  DW_CFA_nop:
  DW_CFA_nop:

  0x1000142f0: CFA=reg31
  0x10001430c: CFA=reg31+176: reg19=[CFA-24], reg20=[CFA-32], reg21=[CFA-40], reg22=[CFA-48], reg23=[CFA-56], reg24=[CFA-64], reg25=[CFA-72], reg26=[CFA-80], reg27=[CFA-88], reg28=[CFA-96], reg29=[CFA-16], reg30=[CFA-8]

00001088 0000001c 0000108c FDE cie=00000000 pc=1000144e0...100014674
  Format:       DWARF32
  DW_CFA_advance_loc: 4
  DW_CFA_def_cfa_offset: +16
  DW_CFA_offset: reg30 -8
  DW_CFA_offset: reg29 -16

  0x1000144e0: CFA=reg31
  0x1000144e4: CFA=reg31+16: reg29=[CFA-16], reg30=[CFA-8]

000010a8 0000001c 000010ac FDE cie=00000000 pc=1004077cc...1004077e4
  Format:       DWARF32
  DW_CFA_advance_loc: 8
  DW_CFA_def_cfa_offset: +48
  DW_CFA_offset: reg30 -8
  DW_CFA_offset: reg29 -16

  0x1004077cc: CFA=reg31
  0x1004077d4: CFA=reg31+48: reg29=[CFA-16], reg30=[CFA-8]

000010c8 0000001c 000010cc FDE cie=00000000 pc=100014674...100014694
  Format:       DWARF32
  DW_CFA_advance_loc: 8
  DW_CFA_def_cfa_offset: +48
  DW_CFA_offset: reg30 -8
  DW_CFA_offset: reg29 -16

  0x100014674: CFA=reg31
  0x10001467c: CFA=reg31+48: reg29=[CFA-16], reg30=[CFA-8]

000010e8 0000001c 000010ec FDE cie=00000000 pc=100014694...1000146bc
  Format:       DWARF32
  DW_CFA_advance_loc: 8
  DW_CFA_def_cfa_offset: +32
  DW_CFA_offset: reg30 -8
  DW_CFA_offset: reg29 -16

  0x100014694: CFA=reg31
  0x10001469c: CFA=reg31+32: reg29=[CFA-16], reg30=[CFA-8]

00001108 00000024 0000110c FDE cie=00000000 pc=1000146bc...100014704
  Format:       DWARF32
  DW_CFA_advance_loc: 8
  DW_CFA_def_cfa_offset: +32
  DW_CFA_offset: reg30 -8
  DW_CFA_offset: reg29 -16
  DW_CFA_offset: reg19 -24
  DW_CFA_offset: reg20 -32
  DW_CFA_nop:
  DW_CFA_nop:
  DW_CFA_nop:
  DW_CFA_nop:

  0x1000146bc: CFA=reg31
  0x1000146c4: CFA=reg31+32: reg19=[CFA-24], reg20=[CFA-32], reg29=[CFA-16], reg30=[CFA-8]

00001130 0000001c 00001134 FDE cie=00000000 pc=100014704...100014724
  Format:       DWARF32
  DW_CFA_advance_loc: 4
  DW_CFA_def_cfa_offset: +16
  DW_CFA_offset: reg30 -8
  DW_CFA_offset: reg29 -16

  0x100014704: CFA=reg31
  0x100014708: CFA=reg31+16: reg29=[CFA-16], reg30=[CFA-8]

00001150 0000001c 00001154 FDE cie=00000000 pc=100014724...100014764
  Format:       DWARF32
  DW_CFA_advance_loc: 8
  DW_CFA_def_cfa_offset: +64
  DW_CFA_offset: reg30 -8
  DW_CFA_offset: reg29 -16

  0x100014724: CFA=reg31
  0x10001472c: CFA=reg31+64: reg29=[CFA-16], reg30=[CFA-8]

00001170 0000002c 00001174 FDE cie=00000000 pc=100014764...100015810
  Format:       DWARF32
  DW_CFA_advance_loc: 16
  DW_CFA_def_cfa_offset: +304
  DW_CFA_offset: reg30 -8
  DW_CFA_offset: reg29 -16
  DW_CFA_offset: reg19 -24
  DW_CFA_offset: reg20 -32
  DW_CFA_offset: reg27 -40
  DW_CFA_offset: reg28 -48
  DW_CFA_nop:
  DW_CFA_nop:
  DW_CFA_nop:
  DW_CFA_nop:
  DW_CFA_nop:
  DW_CFA_nop:
  DW_CFA_nop:

  0x100014764: CFA=reg31
  0x100014774: CFA=reg31+304: reg19=[CFA-24], reg20=[CFA-32], reg27=[CFA-40], reg28=[CFA-48], reg29=[CFA-16], reg30=[CFA-8]

000011a0 0000001c 000011a4 FDE cie=00000000 pc=100018ff4...100019204
  Format:       DWARF32
  DW_CFA_advance_loc: 4
  DW_CFA_def_cfa_offset: +16
  DW_CFA_offset: reg30 -8
  DW_CFA_offset: reg29 -16

  0x100018ff4: CFA=reg31
  0x100018ff8: CFA=reg31+16: reg29=[CFA-16], reg30=[CFA-8]

000011c0 0000001c 000011c4 FDE cie=00000000 pc=10001ab2c...10001acf0
  Format:       DWARF32
  DW_CFA_advance_loc: 4
  DW_CFA_def_cfa_offset: +16
  DW_CFA_offset: reg30 -8
  DW_CFA_offset: reg29 -16

  0x10001ab2c: CFA=reg31
  0x10001ab30: CFA=reg31+16: reg29=[CFA-16], reg30=[CFA-8]

000011e0 0000001c 000011e4 FDE cie=00000000 pc=10001acf0...10001ae68
  Format:       DWARF32
  DW_CFA_advance_loc: 4
  DW_CFA_def_cfa_offset: +16
  DW_CFA_offset: reg30 -8
  DW_CFA_offset: reg29 -16

  0x10001acf0: CFA=reg31
  0x10001acf4: CFA=reg31+16: reg29=[CFA-16], reg30=[CFA-8]

00001200 00000034 00001204 FDE cie=00000000 pc=10001ae68...10001b1bc
  Format:       DWARF32
  DW_CFA_advance_loc: 28
  DW_CFA_def_cfa_offset: +112
  DW_CFA_offset: reg30 -8
  DW_CFA_offset: reg29 -16
  DW_CFA_offset: reg19 -24
  DW_CFA_offset: reg20 -32
  DW_CFA_offset: reg21 -40
  DW_CFA_offset: reg22 -48
  DW_CFA_offset: reg23 -56
  DW_CFA_offset: reg24 -64
  DW_CFA_offset: reg25 -72
  DW_CFA_offset: reg26 -80
  DW_CFA_offset: reg27 -88
  DW_CFA_offset: reg28 -96
  DW_CFA_nop:
  DW_CFA_nop:
  DW_CFA_nop:
  DW_CFA_nop:

  0x10001ae68: CFA=reg31
  0x10001ae84: CFA=reg31+112: reg19=[CFA-24], reg20=[CFA-32], reg21=[CFA-40], reg22=[CFA-48], reg23=[CFA-56], reg24=[CFA-64], reg25=[CFA-72], reg26=[CFA-80], reg27=[CFA-88], reg28=[CFA-96], reg29=[CFA-16], reg30=[CFA-8]

00001238 0000001c 0000123c FDE cie=00000000 pc=10001b1bc...10001b414
  Format:       DWARF32
  DW_CFA_advance_loc: 4
  DW_CFA_def_cfa_offset: +16
  DW_CFA_offset: reg30 -8
  DW_CFA_offset: reg29 -16

  0x10001b1bc: CFA=reg31
  0x10001b1c0: CFA=reg31+16: reg29=[CFA-16], reg30=[CFA-8]

00001258 00000024 0000125c FDE cie=00000000 pc=10001b988...10001bb3c
  Format:       DWARF32
  DW_CFA_advance_loc: 12
  DW_CFA_def_cfa_offset: +48
  DW_CFA_offset: reg30 -8
  DW_CFA_offset: reg29 -16
  DW_CFA_offset: reg19 -24
  DW_CFA_offset: reg20 -32
  DW_CFA_offset: reg21 -40
  DW_CFA_offset: reg22 -48

  0x10001b988: CFA=reg31
  0x10001b994: CFA=reg31+48: reg19=[CFA-24], reg20=[CFA-32], reg21=[CFA-40], reg22=[CFA-48], reg29=[CFA-16], reg30=[CFA-8]

00001280 00000024 00001284 FDE cie=00000000 pc=10001bb3c...10001bc50
  Format:       DWARF32
  DW_CFA_advance_loc: 8
  DW_CFA_def_cfa_offset: +128
  DW_CFA_offset: reg30 -8
  DW_CFA_offset: reg29 -16
  DW_CFA_nop:
  DW_CFA_nop:
  DW_CFA_nop:
  DW_CFA_nop:
  DW_CFA_nop:
  DW_CFA_nop:
  DW_CFA_nop:

  0x10001bb3c: CFA=reg31
  0x10001bb44: CFA=reg31+128: reg29=[CFA-16], reg30=[CFA-8]

000012a8 0000001c 000012ac FDE cie=00000000 pc=10001bc50...10001bca8
  Format:       DWARF32
  DW_CFA_advance_loc: 8
  DW_CFA_def_cfa_offset: +96
  DW_CFA_offset: reg30 -8
  DW_CFA_offset: reg29 -16

  0x10001bc50: CFA=reg31
  0x10001bc58: CFA=reg31+96: reg29=[CFA-16], reg30=[CFA-8]

000012c8 0000002c 000012cc FDE cie=00000000 pc=10001bca8...10001be78
  Format:       DWARF32
  DW_CFA_advance_loc: 16
  DW_CFA_def_cfa_offset: +176
  DW_CFA_offset: reg30 -8
  DW_CFA_offset: reg29 -16
  DW_CFA_offset: reg19 -24
  DW_CFA_offset: reg20 -32
  DW_CFA_offset: reg21 -40
  DW_CFA_offset: reg22 -48
  DW_CFA_nop:
  DW_CFA_nop:
  DW_CFA_nop:
  DW_CFA_nop:
  DW_CFA_nop:
  DW_CFA_nop:
  DW_CFA_nop:

  0x10001bca8: CFA=reg31
  0x10001bcb8: CFA=reg31+176: reg19=[CFA-24], reg20=[CFA-32], reg21=[CFA-40], reg22=[CFA-48], reg29=[CFA-16], reg30=[CFA-8]

000012f8 00000024 000012fc FDE cie=00000000 pc=10001be78...10001bfb8
  Format:       DWARF32
  DW_CFA_advance_loc: 16
  DW_CFA_def_cfa_offset: +64
  DW_CFA_offset: reg30 -8
  DW_CFA_offset: reg29 -16
  DW_CFA_offset: reg19 -24
  DW_CFA_offset: reg20 -32
  DW_CFA_offset: reg21 -40
  DW_CFA_offset: reg22 -48

  0x10001be78: CFA=reg31
  0x10001be88: CFA=reg31+64: reg19=[CFA-24], reg20=[CFA-32], reg21=[CFA-40], reg22=[CFA-48], reg29=[CFA-16], reg30=[CFA-8]

00001320 0000001c 00001324 FDE cie=00000000 pc=10001bfb8...10001bff8
  Format:       DWARF32
  DW_CFA_advance_loc: 8
  DW_CFA_def_cfa_offset: +80
  DW_CFA_offset: reg30 -8
  DW_CFA_offset: reg29 -16

  0x10001bfb8: CFA=reg31
  0x10001bfc0: CFA=reg31+80: reg29=[CFA-16], reg30=[CFA-8]

00001340 0000002c 00001344 FDE cie=00000000 pc=10001e084...10001e198
  Format:       DWARF32
  DW_CFA_advance_loc: 20
  DW_CFA_def_cfa_offset: +96
  DW_CFA_offset: reg30 -8
  DW_CFA_offset: reg29 -16
  DW_CFA_offset: reg19 -24
  DW_CFA_offset: reg20 -32
  DW_CFA_offset: reg21 -40
  DW_CFA_offset: reg22 -48
  DW_CFA_offset: reg23 -56
  DW_CFA_offset: reg24 -64
  DW_CFA_nop:
  DW_CFA_nop:
  DW_CFA_nop:
  DW_CFA_nop:

  0x10001e084: CFA=reg31
  0x10001e098: CFA=reg31+96: reg19=[CFA-24], reg20=[CFA-32], reg21=[CFA-40], reg22=[CFA-48], reg23=[CFA-56], reg24=[CFA-64], reg29=[CFA-16], reg30=[CFA-8]

00001370 00000034 00001374 FDE cie=00000000 pc=100022edc...10002318c
  Format:       DWARF32
  DW_CFA_advance_loc: 24
  DW_CFA_def_cfa_offset: +96
  DW_CFA_offset: reg30 -8
  DW_CFA_offset: reg29 -16
  DW_CFA_offset: reg19 -24
  DW_CFA_offset: reg20 -32
  DW_CFA_offset: reg21 -40
  DW_CFA_offset: reg22 -48
  DW_CFA_offset: reg23 -56
  DW_CFA_offset: reg24 -64
  DW_CFA_offset: reg25 -72
  DW_CFA_offset: reg26 -80
  DW_CFA_offset: reg27 -88
  DW_CFA_offset: reg28 -96
  DW_CFA_nop:
  DW_CFA_nop:
  DW_CFA_nop:
  DW_CFA_nop:

  0x100022edc: CFA=reg31
  0x100022ef4: CFA=reg31+96: reg19=[CFA-24], reg20=[CFA-32], reg21=[CFA-40], reg22=[CFA-48], reg23=[CFA-56], reg24=[CFA-64], reg25=[CFA-72], reg26=[CFA-80], reg27=[CFA-88], reg28=[CFA-96], reg29=[CFA-16], reg30=[CFA-8]

000013a8 00000024 000013ac FDE cie=00000000 pc=1004077e4...1004078b4
  Format:       DWARF32
  DW_CFA_advance_loc: 12
  DW_CFA_def_cfa_offset: +80
  DW_CFA_offset: reg30 -8
  DW_CFA_offset: reg29 -16
  DW_CFA_offset: reg19 -24
  DW_CFA_offset: reg20 -32
  DW_CFA_nop:
  DW_CFA_nop:
  DW_CFA_nop:
  DW_CFA_nop:

  0x1004077e4: CFA=reg31
  0x1004077f0: CFA=reg31+80: reg19=[CFA-24], reg20=[CFA-32], reg29=[CFA-16], reg30=[CFA-8]

000013d0 00000024 000013d4 FDE cie=00000000 pc=1004078b4...100407950
  Format:       DWARF32
  DW_CFA_advance_loc: 12
  DW_CFA_def_cfa_offset: +80
  DW_CFA_offset: reg30 -8
  DW_CFA_offset: reg29 -16
  DW_CFA_offset: reg19 -24
  DW_CFA_offset: reg20 -32
  DW_CFA_nop:
  DW_CFA_nop:
  DW_CFA_nop:
  DW_CFA_nop:

  0x1004078b4: CFA=reg31
  0x1004078c0: CFA=reg31+80: reg19=[CFA-24], reg20=[CFA-32], reg29=[CFA-16], reg30=[CFA-8]

000013f8 00000034 000013fc FDE cie=00000000 pc=100028990...100028d0c
  Format:       DWARF32
  DW_CFA_advance_loc: 28
  DW_CFA_def_cfa_offset: +112
  DW_CFA_offset: reg30 -8
  DW_CFA_offset: reg29 -16
  DW_CFA_offset: reg19 -24
  DW_CFA_offset: reg20 -32
  DW_CFA_offset: reg21 -40
  DW_CFA_offset: reg22 -48
  DW_CFA_offset: reg23 -56
  DW_CFA_offset: reg24 -64
  DW_CFA_offset: reg25 -72
  DW_CFA_offset: reg26 -80
  DW_CFA_offset: reg27 -88
  DW_CFA_offset: reg28 -96
  DW_CFA_nop:
  DW_CFA_nop:
  DW_CFA_nop:
  DW_CFA_nop:

  0x100028990: CFA=reg31
  0x1000289ac: CFA=reg31+112: reg19=[CFA-24], reg20=[CFA-32], reg21=[CFA-40], reg22=[CFA-48], reg23=[CFA-56], reg24=[CFA-64], reg25=[CFA-72], reg26=[CFA-80], reg27=[CFA-88], reg28=[CFA-96], reg29=[CFA-16], reg30=[CFA-8]

00001430 0000001c 00001434 FDE cie=00000000 pc=100028d0c...100028ee4
  Format:       DWARF32
  DW_CFA_advance_loc: 4
  DW_CFA_def_cfa_offset: +16
  DW_CFA_offset: reg30 -8
  DW_CFA_offset: reg29 -16

  0x100028d0c: CFA=reg31
  0x100028d10: CFA=reg31+16: reg29=[CFA-16], reg30=[CFA-8]

00001450 00000024 00001454 FDE cie=00000000 pc=100028ee4...10002911c
  Format:       DWARF32
  DW_CFA_advance_loc: 8
  DW_CFA_def_cfa_offset: +32
  DW_CFA_offset: reg30 -8
  DW_CFA_offset: reg29 -16
  DW_CFA_offset: reg19 -24
  DW_CFA_offset: reg20 -32
  DW_CFA_nop:
  DW_CFA_nop:
  DW_CFA_nop:
  DW_CFA_nop:

  0x100028ee4: CFA=reg31
  0x100028eec: CFA=reg31+32: reg19=[CFA-24], reg20=[CFA-32], reg29=[CFA-16], reg30=[CFA-8]

00001478 0000002c 0000147c FDE cie=00000000 pc=1000298e4...100029b28
  Format:       DWARF32
  DW_CFA_advance_loc: 16
  DW_CFA_def_cfa_offset: +64
  DW_CFA_offset: reg30 -8
  DW_CFA_offset: reg29 -16
  DW_CFA_offset: reg19 -24
  DW_CFA_offset: reg20 -32
  DW_CFA_offset: reg21 -40
  DW_CFA_offset: reg22 -48
  DW_CFA_offset: reg23 -56
  DW_CFA_offset: reg24 -64
  DW_CFA_nop:
  DW_CFA_nop:
  DW_CFA_nop:
  DW_CFA_nop:

  0x1000298e4: CFA=reg31
  0x1000298f4: CFA=reg31+64: reg19=[CFA-24], reg20=[CFA-32], reg21=[CFA-40], reg22=[CFA-48], reg23=[CFA-56], reg24=[CFA-64], reg29=[CFA-16], reg30=[CFA-8]

000014a8 0000001c 000014ac FDE cie=00000000 pc=100029b28...100029b64
  Format:       DWARF32
  DW_CFA_advance_loc: 8
  DW_CFA_def_cfa_offset: +80
  DW_CFA_offset: reg30 -8
  DW_CFA_offset: reg29 -16

  0x100029b28: CFA=reg31
  0x100029b30: CFA=reg31+80: reg29=[CFA-16], reg30=[CFA-8]

000014c8 0000001c 000014cc FDE cie=00000000 pc=100029b64...100029ba4
  Format:       DWARF32
  DW_CFA_advance_loc: 8
  DW_CFA_def_cfa_offset: +80
  DW_CFA_offset: reg30 -8
  DW_CFA_offset: reg29 -16

  0x100029b64: CFA=reg31
  0x100029b6c: CFA=reg31+80: reg29=[CFA-16], reg30=[CFA-8]

000014e8 00000024 000014ec FDE cie=00000000 pc=100029ba4...100029bc4
  Format:       DWARF32
  DW_CFA_advance_loc: 8
  DW_CFA_def_cfa_offset: +32
  DW_CFA_offset: reg30 -8
  DW_CFA_offset: reg29 -16
  DW_CFA_offset: reg19 -24
  DW_CFA_offset: reg20 -32
  DW_CFA_nop:
  DW_CFA_nop:
  DW_CFA_nop:
  DW_CFA_nop:

  0x100029ba4: CFA=reg31
  0x100029bac: CFA=reg31+32: reg19=[CFA-24], reg20=[CFA-32], reg29=[CFA-16], reg30=[CFA-8]

00001510 00000024 00001514 FDE cie=00000000 pc=10002a4c8...10002a560
  Format:       DWARF32
  DW_CFA_advance_loc: 8
  DW_CFA_def_cfa_offset: +32
  DW_CFA_offset: reg30 -8
  DW_CFA_offset: reg29 -16
  DW_CFA_offset: reg19 -24
  DW_CFA_offset: reg20 -32
  DW_CFA_nop:
  DW_CFA_nop:
  DW_CFA_nop:
  DW_CFA_nop:

  0x10002a4c8: CFA=reg31
  0x10002a4d0: CFA=reg31+32: reg19=[CFA-24], reg20=[CFA-32], reg29=[CFA-16], reg30=[CFA-8]

00001538 00000024 0000153c FDE cie=00000000 pc=100407950...100407a04
  Format:       DWARF32
  DW_CFA_advance_loc: 12
  DW_CFA_def_cfa_offset: +80
  DW_CFA_offset: reg30 -8
  DW_CFA_offset: reg29 -16
  DW_CFA_offset: reg19 -24
  DW_CFA_offset: reg20 -32
  DW_CFA_nop:
  DW_CFA_nop:
  DW_CFA_nop:
  DW_CFA_nop:

  0x100407950: CFA=reg31
  0x10040795c: CFA=reg31+80: reg19=[CFA-24], reg20=[CFA-32], reg29=[CFA-16], reg30=[CFA-8]

00001560 00000024 00001564 FDE cie=00000000 pc=10002c394...10002c3c8
  Format:       DWARF32
  DW_CFA_advance_loc: 8
  DW_CFA_def_cfa_offset: +32
  DW_CFA_offset: reg30 -8
  DW_CFA_offset: reg29 -16
  DW_CFA_offset: reg19 -24
  DW_CFA_offset: reg20 -32
  DW_CFA_nop:
  DW_CFA_nop:
  DW_CFA_nop:
  DW_CFA_nop:

  0x10002c394: CFA=reg31
  0x10002c39c: CFA=reg31+32: reg19=[CFA-24], reg20=[CFA-32], reg29=[CFA-16], reg30=[CFA-8]

00001588 0000001c 0000158c FDE cie=00000000 pc=10002c734...10002c77c
  Format:       DWARF32
  DW_CFA_advance_loc: 8
  DW_CFA_def_cfa_offset: +80
  DW_CFA_offset: reg30 -8
  DW_CFA_offset: reg29 -16

  0x10002c734: CFA=reg31
  0x10002c73c: CFA=reg31+80: reg29=[CFA-16], reg30=[CFA-8]

000015a8 0000001c 000015ac FDE cie=00000000 pc=10002c904...10002c94c
  Format:       DWARF32
  DW_CFA_advance_loc: 8
  DW_CFA_def_cfa_offset: +80
  DW_CFA_offset: reg30 -8
  DW_CFA_offset: reg29 -16

  0x10002c904: CFA=reg31
  0x10002c90c: CFA=reg31+80: reg29=[CFA-16], reg30=[CFA-8]

000015c8 00000024 000015cc FDE cie=00000000 pc=100407a04...100407ab8
  Format:       DWARF32
  DW_CFA_advance_loc: 12
  DW_CFA_def_cfa_offset: +80
  DW_CFA_offset: reg30 -8
  DW_CFA_offset: reg29 -16
  DW_CFA_offset: reg19 -24
  DW_CFA_offset: reg20 -32
  DW_CFA_nop:
  DW_CFA_nop:
  DW_CFA_nop:
  DW_CFA_nop:

  0x100407a04: CFA=reg31
  0x100407a10: CFA=reg31+80: reg19=[CFA-24], reg20=[CFA-32], reg29=[CFA-16], reg30=[CFA-8]

000015f0 00000024 000015f4 FDE cie=00000000 pc=10002c9bc...10002ca3c
  Format:       DWARF32
  DW_CFA_advance_loc: 8
  DW_CFA_def_cfa_offset: +32
  DW_CFA_offset: reg30 -8
  DW_CFA_offset: reg29 -16
  DW_CFA_offset: reg19 -24
  DW_CFA_offset: reg20 -32
  DW_CFA_nop:
  DW_CFA_nop:
  DW_CFA_nop:
  DW_CFA_nop:

  0x10002c9bc: CFA=reg31
  0x10002c9c4: CFA=reg31+32: reg19=[CFA-24], reg20=[CFA-32], reg29=[CFA-16], reg30=[CFA-8]

00001618 00000024 0000161c FDE cie=00000000 pc=10002cce4...10002cdb8
  Format:       DWARF32
  DW_CFA_advance_loc: 12
  DW_CFA_def_cfa_offset: +48
  DW_CFA_offset: reg30 -8
  DW_CFA_offset: reg29 -16
  DW_CFA_offset: reg19 -24
  DW_CFA_offset: reg20 -32
  DW_CFA_offset: reg21 -40
  DW_CFA_offset: reg22 -48

  0x10002cce4: CFA=reg31
  0x10002ccf0: CFA=reg31+48: reg19=[CFA-24], reg20=[CFA-32], reg21=[CFA-40], reg22=[CFA-48], reg29=[CFA-16], reg30=[CFA-8]

00001640 00000024 00001644 FDE cie=00000000 pc=10002cf7c...10002cfb4
  Format:       DWARF32
  DW_CFA_advance_loc: 8
  DW_CFA_def_cfa_offset: +32
  DW_CFA_offset: reg30 -8
  DW_CFA_offset: reg29 -16
  DW_CFA_offset: reg19 -24
  DW_CFA_offset: reg20 -32
  DW_CFA_nop:
  DW_CFA_nop:
  DW_CFA_nop:
  DW_CFA_nop:

  0x10002cf7c: CFA=reg31
  0x10002cf84: CFA=reg31+32: reg19=[CFA-24], reg20=[CFA-32], reg29=[CFA-16], reg30=[CFA-8]

00001668 00000024 0000166c FDE cie=00000000 pc=10002cfb4...10002cff8
  Format:       DWARF32
  DW_CFA_advance_loc: 8
  DW_CFA_def_cfa_offset: +32
  DW_CFA_offset: reg30 -8
  DW_CFA_offset: reg29 -16
  DW_CFA_offset: reg19 -24
  DW_CFA_offset: reg20 -32
  DW_CFA_nop:
  DW_CFA_nop:
  DW_CFA_nop:
  DW_CFA_nop:

  0x10002cfb4: CFA=reg31
  0x10002cfbc: CFA=reg31+32: reg19=[CFA-24], reg20=[CFA-32], reg29=[CFA-16], reg30=[CFA-8]

00001690 00000024 00001694 FDE cie=00000000 pc=10002d014...10002d05c
  Format:       DWARF32
  DW_CFA_advance_loc: 8
  DW_CFA_def_cfa_offset: +32
  DW_CFA_offset: reg30 -8
  DW_CFA_offset: reg29 -16
  DW_CFA_offset: reg19 -24
  DW_CFA_offset: reg20 -32
  DW_CFA_nop:
  DW_CFA_nop:
  DW_CFA_nop:
  DW_CFA_nop:

  0x10002d014: CFA=reg31
  0x10002d01c: CFA=reg31+32: reg19=[CFA-24], reg20=[CFA-32], reg29=[CFA-16], reg30=[CFA-8]

000016b8 00000024 000016bc FDE cie=00000000 pc=10002dbfc...10002dc94
  Format:       DWARF32
  DW_CFA_advance_loc: 12
  DW_CFA_def_cfa_offset: +48
  DW_CFA_offset: reg30 -8
  DW_CFA_offset: reg29 -16
  DW_CFA_offset: reg19 -24
  DW_CFA_offset: reg20 -32
  DW_CFA_offset: reg21 -40
  DW_CFA_offset: reg22 -48

  0x10002dbfc: CFA=reg31
  0x10002dc08: CFA=reg31+48: reg19=[CFA-24], reg20=[CFA-32], reg21=[CFA-40], reg22=[CFA-48], reg29=[CFA-16], reg30=[CFA-8]

000016e0 0000002c 000016e4 FDE cie=00000000 pc=10002dc94...10002dde4
  Format:       DWARF32
  DW_CFA_advance_loc: 20
  DW_CFA_def_cfa_offset: +80
  DW_CFA_offset: reg30 -8
  DW_CFA_offset: reg29 -16
  DW_CFA_offset: reg19 -24
  DW_CFA_offset: reg20 -32
  DW_CFA_offset: reg21 -40
  DW_CFA_offset: reg22 -48
  DW_CFA_offset: reg23 -56
  DW_CFA_offset: reg24 -64
  DW_CFA_offset: reg25 -72
  DW_CFA_offset: reg26 -80

  0x10002dc94: CFA=reg31
  0x10002dca8: CFA=reg31+80: reg19=[CFA-24], reg20=[CFA-32], reg21=[CFA-40], reg22=[CFA-48], reg23=[CFA-56], reg24=[CFA-64], reg25=[CFA-72], reg26=[CFA-80], reg29=[CFA-16], reg30=[CFA-8]

00001710 0000002c 00001714 FDE cie=00000000 pc=10002dde4...10002de74
  Format:       DWARF32
  DW_CFA_advance_loc: 20
  DW_CFA_def_cfa_offset: +96
  DW_CFA_offset: reg30 -8
  DW_CFA_offset: reg29 -16
  DW_CFA_offset: reg19 -24
  DW_CFA_offset: reg20 -32
  DW_CFA_offset: reg21 -40
  DW_CFA_offset: reg22 -48
  DW_CFA_offset: reg23 -56
  DW_CFA_offset: reg24 -64
  DW_CFA_nop:
  DW_CFA_nop:
  DW_CFA_nop:
  DW_CFA_nop:

  0x10002dde4: CFA=reg31
  0x10002ddf8: CFA=reg31+96: reg19=[CFA-24], reg20=[CFA-32], reg21=[CFA-40], reg22=[CFA-48], reg23=[CFA-56], reg24=[CFA-64], reg29=[CFA-16], reg30=[CFA-8]

00001740 00000034 00001744 FDE cie=00000000 pc=10003187c...100031a44
  Format:       DWARF32
  DW_CFA_advance_loc: 28
  DW_CFA_def_cfa_offset: +144
  DW_CFA_offset: reg30 -8
  DW_CFA_offset: reg29 -16
  DW_CFA_offset: reg19 -24
  DW_CFA_offset: reg20 -32
  DW_CFA_offset: reg21 -40
  DW_CFA_offset: reg22 -48
  DW_CFA_offset: reg23 -56
  DW_CFA_offset: reg24 -64
  DW_CFA_offset: reg25 -72
  DW_CFA_offset: reg26 -80
  DW_CFA_offset: reg27 -88
  DW_CFA_offset: reg28 -96
  DW_CFA_nop:
  DW_CFA_nop:
  DW_CFA_nop:

  0x10003187c: CFA=reg31
  0x100031898: CFA=reg31+144: reg19=[CFA-24], reg20=[CFA-32], reg21=[CFA-40], reg22=[CFA-48], reg23=[CFA-56], reg24=[CFA-64], reg25=[CFA-72], reg26=[CFA-80], reg27=[CFA-88], reg28=[CFA-96], reg29=[CFA-16], reg30=[CFA-8]

00001778 00000024 0000177c FDE cie=00000000 pc=100031a44...100031a94
  Format:       DWARF32
  DW_CFA_advance_loc: 8
  DW_CFA_def_cfa_offset: +32
  DW_CFA_offset: reg30 -8
  DW_CFA_offset: reg29 -16
  DW_CFA_offset: reg19 -24
  DW_CFA_offset: reg20 -32
  DW_CFA_nop:
  DW_CFA_nop:
  DW_CFA_nop:
  DW_CFA_nop:

  0x100031a44: CFA=reg31
  0x100031a4c: CFA=reg31+32: reg19=[CFA-24], reg20=[CFA-32], reg29=[CFA-16], reg30=[CFA-8]

000017a0 0000002c 000017a4 FDE cie=00000000 pc=1000321fc...100032440
  Format:       DWARF32
  DW_CFA_advance_loc: 16
  DW_CFA_def_cfa_offset: +64
  DW_CFA_offset: reg30 -8
  DW_CFA_offset: reg29 -16
  DW_CFA_offset: reg19 -24
  DW_CFA_offset: reg20 -32
  DW_CFA_offset: reg21 -40
  DW_CFA_offset: reg22 -48
  DW_CFA_offset: reg23 -56
  DW_CFA_offset: reg24 -64
  DW_CFA_nop:
  DW_CFA_nop:
  DW_CFA_nop:
  DW_CFA_nop:

  0x1000321fc: CFA=reg31
  0x10003220c: CFA=reg31+64: reg19=[CFA-24], reg20=[CFA-32], reg21=[CFA-40], reg22=[CFA-48], reg23=[CFA-56], reg24=[CFA-64], reg29=[CFA-16], reg30=[CFA-8]

000017d0 00000034 000017d4 FDE cie=00000000 pc=100032440...1000326e4
  Format:       DWARF32
  DW_CFA_advance_loc: 28
  DW_CFA_def_cfa_offset: +192
  DW_CFA_offset: reg30 -8
  DW_CFA_offset: reg29 -16
  DW_CFA_offset: reg19 -24
  DW_CFA_offset: reg20 -32
  DW_CFA_offset: reg21 -40
  DW_CFA_offset: reg22 -48
  DW_CFA_offset: reg23 -56
  DW_CFA_offset: reg24 -64
  DW_CFA_offset: reg25 -72
  DW_CFA_offset: reg26 -80
  DW_CFA_offset: reg27 -88
  DW_CFA_offset: reg28 -96
  DW_CFA_nop:
  DW_CFA_nop:
  DW_CFA_nop:

  0x100032440: CFA=reg31
  0x10003245c: CFA=reg31+192: reg19=[CFA-24], reg20=[CFA-32], reg21=[CFA-40], reg22=[CFA-48], reg23=[CFA-56], reg24=[CFA-64], reg25=[CFA-72], reg26=[CFA-80], reg27=[CFA-88], reg28=[CFA-96], reg29=[CFA-16], reg30=[CFA-8]

00001808 00000024 0000180c FDE cie=00000000 pc=1000326e4...100032838
  Format:       DWARF32
  DW_CFA_advance_loc: 16
  DW_CFA_def_cfa_offset: +96
  DW_CFA_offset: reg30 -8
  DW_CFA_offset: reg29 -16
  DW_CFA_offset: reg19 -24
  DW_CFA_offset: reg20 -32
  DW_CFA_offset: reg21 -40
  DW_CFA_offset: reg22 -48

  0x1000326e4: CFA=reg31
  0x1000326f4: CFA=reg31+96: reg19=[CFA-24], reg20=[CFA-32], reg21=[CFA-40], reg22=[CFA-48], reg29=[CFA-16], reg30=[CFA-8]

00001830 00000034 00001834 FDE cie=00000000 pc=100032838...100032c98
  Format:       DWARF32
  DW_CFA_advance_loc: 28
  DW_CFA_def_cfa_offset: +224
  DW_CFA_offset: reg30 -8
  DW_CFA_offset: reg29 -16
  DW_CFA_offset: reg19 -24
  DW_CFA_offset: reg20 -32
  DW_CFA_offset: reg21 -40
  DW_CFA_offset: reg22 -48
  DW_CFA_offset: reg23 -56
  DW_CFA_offset: reg24 -64
  DW_CFA_offset: reg25 -72
  DW_CFA_offset: reg26 -80
  DW_CFA_offset: reg27 -88
  DW_CFA_offset: reg28 -96
  DW_CFA_nop:
  DW_CFA_nop:
  DW_CFA_nop:

  0x100032838: CFA=reg31
  0x100032854: CFA=reg31+224: reg19=[CFA-24], reg20=[CFA-32], reg21=[CFA-40], reg22=[CFA-48], reg23=[CFA-56], reg24=[CFA-64], reg25=[CFA-72], reg26=[CFA-80], reg27=[CFA-88], reg28=[CFA-96], reg29=[CFA-16], reg30=[CFA-8]

00001868 00000024 0000186c FDE cie=00000000 pc=100407ab8...100407b6c
  Format:       DWARF32
  DW_CFA_advance_loc: 12
  DW_CFA_def_cfa_offset: +80
  DW_CFA_offset: reg30 -8
  DW_CFA_offset: reg29 -16
  DW_CFA_offset: reg19 -24
  DW_CFA_offset: reg20 -32
  DW_CFA_nop:
  DW_CFA_nop:
  DW_CFA_nop:
  DW_CFA_nop:

  0x100407ab8: CFA=reg31
  0x100407ac4: CFA=reg31+80: reg19=[CFA-24], reg20=[CFA-32], reg29=[CFA-16], reg30=[CFA-8]

00001890 0000001c 00001894 FDE cie=00000000 pc=100033a34...100033ad8
  Format:       DWARF32
  DW_CFA_advance_loc: 8
  DW_CFA_def_cfa_offset: +96
  DW_CFA_offset: reg30 -8
  DW_CFA_offset: reg29 -16

  0x100033a34: CFA=reg31
  0x100033a3c: CFA=reg31+96: reg29=[CFA-16], reg30=[CFA-8]

000018b0 00000024 000018b4 FDE cie=00000000 pc=1000341d8...10003421c
  Format:       DWARF32
  DW_CFA_advance_loc: 8
  DW_CFA_def_cfa_offset: +32
  DW_CFA_offset: reg30 -8
  DW_CFA_offset: reg29 -16
  DW_CFA_offset: reg19 -24
  DW_CFA_offset: reg20 -32
  DW_CFA_nop:
  DW_CFA_nop:
  DW_CFA_nop:
  DW_CFA_nop:

  0x1000341d8: CFA=reg31
  0x1000341e0: CFA=reg31+32: reg19=[CFA-24], reg20=[CFA-32], reg29=[CFA-16], reg30=[CFA-8]

000018d8 0000002c 000018dc FDE cie=00000000 pc=1000343f0...100034498
  Format:       DWARF32
  DW_CFA_advance_loc: 16
  DW_CFA_def_cfa_offset: +64
  DW_CFA_offset: reg30 -8
  DW_CFA_offset: reg29 -16
  DW_CFA_offset: reg19 -24
  DW_CFA_offset: reg20 -32
  DW_CFA_offset: reg21 -40
  DW_CFA_offset: reg22 -48
  DW_CFA_offset: reg23 -56
  DW_CFA_offset: reg24 -64
  DW_CFA_nop:
  DW_CFA_nop:
  DW_CFA_nop:
  DW_CFA_nop:

  0x1000343f0: CFA=reg31
  0x100034400: CFA=reg31+64: reg19=[CFA-24], reg20=[CFA-32], reg21=[CFA-40], reg22=[CFA-48], reg23=[CFA-56], reg24=[CFA-64], reg29=[CFA-16], reg30=[CFA-8]

00001908 0000002c 0000190c FDE cie=00000000 pc=100034498...100034568
  Format:       DWARF32
  DW_CFA_advance_loc: 20
  DW_CFA_def_cfa_offset: +112
  DW_CFA_offset: reg30 -8
  DW_CFA_offset: reg29 -16
  DW_CFA_offset: reg19 -24
  DW_CFA_offset: reg20 -32
  DW_CFA_offset: reg21 -40
  DW_CFA_offset: reg22 -48
  DW_CFA_offset: reg23 -56
  DW_CFA_offset: reg24 -64
  DW_CFA_nop:
  DW_CFA_nop:
  DW_CFA_nop:
  DW_CFA_nop:

  0x100034498: CFA=reg31
  0x1000344ac: CFA=reg31+112: reg19=[CFA-24], reg20=[CFA-32], reg21=[CFA-40], reg22=[CFA-48], reg23=[CFA-56], reg24=[CFA-64], reg29=[CFA-16], reg30=[CFA-8]

00001938 0000001c 0000193c FDE cie=00000000 pc=100407b6c...100407b84
  Format:       DWARF32
  DW_CFA_advance_loc: 8
  DW_CFA_def_cfa_offset: +48
  DW_CFA_offset: reg30 -8
  DW_CFA_offset: reg29 -16

  0x100407b6c: CFA=reg31
  0x100407b74: CFA=reg31+48: reg29=[CFA-16], reg30=[CFA-8]

00001958 00000024 0000195c FDE cie=00000000 pc=100039ffc...10003a130
  Format:       DWARF32
  DW_CFA_advance_loc: 16
  DW_CFA_def_cfa_offset: +64
  DW_CFA_offset: reg30 -8
  DW_CFA_offset: reg29 -16
  DW_CFA_offset: reg19 -24
  DW_CFA_offset: reg20 -32
  DW_CFA_offset: reg21 -40
  DW_CFA_offset: reg22 -48

  0x100039ffc: CFA=reg31
  0x10003a00c: CFA=reg31+64: reg19=[CFA-24], reg20=[CFA-32], reg21=[CFA-40], reg22=[CFA-48], reg29=[CFA-16], reg30=[CFA-8]

00001980 00000034 00001984 FDE cie=00000000 pc=10003a3b0...10003a548
  Format:       DWARF32
  DW_CFA_advance_loc: 24
  DW_CFA_def_cfa_offset: +96
  DW_CFA_offset: reg30 -8
  DW_CFA_offset: reg29 -16
  DW_CFA_offset: reg19 -24
  DW_CFA_offset: reg20 -32
  DW_CFA_offset: reg21 -40
  DW_CFA_offset: reg22 -48
  DW_CFA_offset: reg23 -56
  DW_CFA_offset: reg24 -64
  DW_CFA_offset: reg25 -72
  DW_CFA_offset: reg26 -80
  DW_CFA_offset: reg27 -88
  DW_CFA_offset: reg28 -96
  DW_CFA_nop:
  DW_CFA_nop:
  DW_CFA_nop:
  DW_CFA_nop:

  0x10003a3b0: CFA=reg31
  0x10003a3c8: CFA=reg31+96: reg19=[CFA-24], reg20=[CFA-32], reg21=[CFA-40], reg22=[CFA-48], reg23=[CFA-56], reg24=[CFA-64], reg25=[CFA-72], reg26=[CFA-80], reg27=[CFA-88], reg28=[CFA-96], reg29=[CFA-16], reg30=[CFA-8]

000019b8 00000024 000019bc FDE cie=00000000 pc=10003a548...10003a600
  Format:       DWARF32
  DW_CFA_advance_loc: 12
  DW_CFA_def_cfa_offset: +48
  DW_CFA_offset: reg30 -8
  DW_CFA_offset: reg29 -16
  DW_CFA_offset: reg19 -24
  DW_CFA_offset: reg20 -32
  DW_CFA_offset: reg21 -40
  DW_CFA_offset: reg22 -48

  0x10003a548: CFA=reg31
  0x10003a554: CFA=reg31+48: reg19=[CFA-24], reg20=[CFA-32], reg21=[CFA-40], reg22=[CFA-48], reg29=[CFA-16], reg30=[CFA-8]

000019e0 0000003c 000019e4 FDE cie=00000000 pc=10003a600...10003a774
  Format:       DWARF32
  DW_CFA_advance_loc: 32
  DW_CFA_def_cfa_offset: +192
  DW_CFA_offset: reg30 -8
  DW_CFA_offset: reg29 -16
  DW_CFA_offset: reg19 -24
  DW_CFA_offset: reg20 -32
  DW_CFA_offset: reg21 -40
  DW_CFA_offset: reg22 -48
  DW_CFA_offset: reg23 -56
  DW_CFA_offset: reg24 -64
  DW_CFA_offset: reg25 -72
  DW_CFA_offset: reg26 -80
  DW_CFA_offset: reg27 -88
  DW_CFA_offset: reg28 -96
  DW_CFA_offset_extended: reg72 -104
  DW_CFA_offset_extended: reg73 -112
  DW_CFA_nop:
  DW_CFA_nop:
  DW_CFA_nop:
  DW_CFA_nop:
  DW_CFA_nop:

  0x10003a600: CFA=reg31
  0x10003a620: CFA=reg31+192: reg19=[CFA-24], reg20=[CFA-32], reg21=[CFA-40], reg22=[CFA-48], reg23=[CFA-56], reg24=[CFA-64], reg25=[CFA-72], reg26=[CFA-80], reg27=[CFA-88], reg28=[CFA-96], reg29=[CFA-16], reg30=[CFA-8], reg72=[CFA-104], reg73=[CFA-112]

00001a20 00000034 00001a24 FDE cie=00000000 pc=10003b1fc...10003b388
  Format:       DWARF32
  DW_CFA_advance_loc: 24
  DW_CFA_def_cfa_offset: +96
  DW_CFA_offset: reg30 -8
  DW_CFA_offset: reg29 -16
  DW_CFA_offset: reg19 -24
  DW_CFA_offset: reg20 -32
  DW_CFA_offset: reg21 -40
  DW_CFA_offset: reg22 -48
  DW_CFA_offset: reg23 -56
  DW_CFA_offset: reg24 -64
  DW_CFA_offset: reg25 -72
  DW_CFA_offset: reg26 -80
  DW_CFA_offset: reg27 -88
  DW_CFA_offset: reg28 -96
  DW_CFA_nop:
  DW_CFA_nop:
  DW_CFA_nop:
  DW_CFA_nop:

  0x10003b1fc: CFA=reg31
  0x10003b214: CFA=reg31+96: reg19=[CFA-24], reg20=[CFA-32], reg21=[CFA-40], reg22=[CFA-48], reg23=[CFA-56], reg24=[CFA-64], reg25=[CFA-72], reg26=[CFA-80], reg27=[CFA-88], reg28=[CFA-96], reg29=[CFA-16], reg30=[CFA-8]

00001a58 0000001c 00001a5c FDE cie=00000000 pc=10003b50c...10003b52c
  Format:       DWARF32
  DW_CFA_advance_loc: 8
  DW_CFA_def_cfa_offset: +48
  DW_CFA_offset: reg30 -8
  DW_CFA_offset: reg29 -16

  0x10003b50c: CFA=reg31
  0x10003b514: CFA=reg31+48: reg29=[CFA-16], reg30=[CFA-8]

00001a78 0000001c 00001a7c FDE cie=00000000 pc=10003b52c...10003b554
  Format:       DWARF32
  DW_CFA_advance_loc: 8
  DW_CFA_def_cfa_offset: +32
  DW_CFA_offset: reg30 -8
  DW_CFA_offset: reg29 -16

  0x10003b52c: CFA=reg31
  0x10003b534: CFA=reg31+32: reg29=[CFA-16], reg30=[CFA-8]

00001a98 00000024 00001a9c FDE cie=00000000 pc=10003b554...10003b59c
  Format:       DWARF32
  DW_CFA_advance_loc: 8
  DW_CFA_def_cfa_offset: +32
  DW_CFA_offset: reg30 -8
  DW_CFA_offset: reg29 -16
  DW_CFA_offset: reg19 -24
  DW_CFA_offset: reg20 -32
  DW_CFA_nop:
  DW_CFA_nop:
  DW_CFA_nop:
  DW_CFA_nop:

  0x10003b554: CFA=reg31
  0x10003b55c: CFA=reg31+32: reg19=[CFA-24], reg20=[CFA-32], reg29=[CFA-16], reg30=[CFA-8]

00001ac0 0000001c 00001ac4 FDE cie=00000000 pc=10003b59c...10003b5bc
  Format:       DWARF32
  DW_CFA_advance_loc: 4
  DW_CFA_def_cfa_offset: +16
  DW_CFA_offset: reg30 -8
  DW_CFA_offset: reg29 -16

  0x10003b59c: CFA=reg31
  0x10003b5a0: CFA=reg31+16: reg29=[CFA-16], reg30=[CFA-8]

00001ae0 00000024 00001ae4 FDE cie=00000000 pc=10003c944...10003cab0
  Format:       DWARF32
  DW_CFA_advance_loc: 16
  DW_CFA_def_cfa_offset: +80
  DW_CFA_offset: reg30 -8
  DW_CFA_offset: reg29 -16
  DW_CFA_offset: reg19 -24
  DW_CFA_offset: reg20 -32
  DW_CFA_offset: reg21 -40
  DW_CFA_offset: reg22 -48

  0x10003c944: CFA=reg31
  0x10003c954: CFA=reg31+80: reg19=[CFA-24], reg20=[CFA-32], reg21=[CFA-40], reg22=[CFA-48], reg29=[CFA-16], reg30=[CFA-8]

00001b08 0000001c 00001b0c FDE cie=00000000 pc=10003cbbc...10003ccc0
  Format:       DWARF32
  DW_CFA_advance_loc: 8
  DW_CFA_def_cfa_offset: +32
  DW_CFA_offset: reg30 -8
  DW_CFA_offset: reg29 -16

  0x10003cbbc: CFA=reg31
  0x10003cbc4: CFA=reg31+32: reg29=[CFA-16], reg30=[CFA-8]

00001b28 00000024 00001b2c FDE cie=00000000 pc=100407b84...100407c54
  Format:       DWARF32
  DW_CFA_advance_loc: 12
  DW_CFA_def_cfa_offset: +80
  DW_CFA_offset: reg30 -8
  DW_CFA_offset: reg29 -16
  DW_CFA_offset: reg19 -24
  DW_CFA_offset: reg20 -32
  DW_CFA_nop:
  DW_CFA_nop:
  DW_CFA_nop:
  DW_CFA_nop:

  0x100407b84: CFA=reg31
  0x100407b90: CFA=reg31+80: reg19=[CFA-24], reg20=[CFA-32], reg29=[CFA-16], reg30=[CFA-8]

00001b50 00000024 00001b54 FDE cie=00000000 pc=100407c54...100407d28
  Format:       DWARF32
  DW_CFA_advance_loc: 12
  DW_CFA_def_cfa_offset: +80
  DW_CFA_offset: reg30 -8
  DW_CFA_offset: reg29 -16
  DW_CFA_offset: reg19 -24
  DW_CFA_offset: reg20 -32
  DW_CFA_nop:
  DW_CFA_nop:
  DW_CFA_nop:
  DW_CFA_nop:

  0x100407c54: CFA=reg31
  0x100407c60: CFA=reg31+80: reg19=[CFA-24], reg20=[CFA-32], reg29=[CFA-16], reg30=[CFA-8]

00001b78 00000024 00001b7c FDE cie=00000000 pc=100407d28...100407e00
  Format:       DWARF32
  DW_CFA_advance_loc: 12
  DW_CFA_def_cfa_offset: +80
  DW_CFA_offset: reg30 -8
  DW_CFA_offset: reg29 -16
  DW_CFA_offset: reg19 -24
  DW_CFA_offset: reg20 -32
  DW_CFA_nop:
  DW_CFA_nop:
  DW_CFA_nop:
  DW_CFA_nop:

  0x100407d28: CFA=reg31
  0x100407d34: CFA=reg31+80: reg19=[CFA-24], reg20=[CFA-32], reg29=[CFA-16], reg30=[CFA-8]

00001ba0 00000024 00001ba4 FDE cie=00000000 pc=100407e00...100407ecc
  Format:       DWARF32
  DW_CFA_advance_loc: 12
  DW_CFA_def_cfa_offset: +80
  DW_CFA_offset: reg30 -8
  DW_CFA_offset: reg29 -16
  DW_CFA_offset: reg19 -24
  DW_CFA_offset: reg20 -32
  DW_CFA_nop:
  DW_CFA_nop:
  DW_CFA_nop:
  DW_CFA_nop:

  0x100407e00: CFA=reg31
  0x100407e0c: CFA=reg31+80: reg19=[CFA-24], reg20=[CFA-32], reg29=[CFA-16], reg30=[CFA-8]

00001bc8 00000024 00001bcc FDE cie=00000000 pc=100407ecc...100407fa4
  Format:       DWARF32
  DW_CFA_advance_loc: 12
  DW_CFA_def_cfa_offset: +80
  DW_CFA_offset: reg30 -8
  DW_CFA_offset: reg29 -16
  DW_CFA_offset: reg19 -24
  DW_CFA_offset: reg20 -32
  DW_CFA_nop:
  DW_CFA_nop:
  DW_CFA_nop:
  DW_CFA_nop:

  0x100407ecc: CFA=reg31
  0x100407ed8: CFA=reg31+80: reg19=[CFA-24], reg20=[CFA-32], reg29=[CFA-16], reg30=[CFA-8]

00001bf0 00000024 00001bf4 FDE cie=00000000 pc=100407fa4...100408074
  Format:       DWARF32
  DW_CFA_advance_loc: 12
  DW_CFA_def_cfa_offset: +80
  DW_CFA_offset: reg30 -8
  DW_CFA_offset: reg29 -16
  DW_CFA_offset: reg19 -24
  DW_CFA_offset: reg20 -32
  DW_CFA_nop:
  DW_CFA_nop:
  DW_CFA_nop:
  DW_CFA_nop:

  0x100407fa4: CFA=reg31
  0x100407fb0: CFA=reg31+80: reg19=[CFA-24], reg20=[CFA-32], reg29=[CFA-16], reg30=[CFA-8]

00001c18 00000024 00001c1c FDE cie=00000000 pc=10003dc94...10003dd10
  Format:       DWARF32
  DW_CFA_advance_loc: 8
  DW_CFA_def_cfa_offset: +32
  DW_CFA_offset: reg30 -8
  DW_CFA_offset: reg29 -16
  DW_CFA_offset: reg19 -24
  DW_CFA_offset: reg20 -32
  DW_CFA_nop:
  DW_CFA_nop:
  DW_CFA_nop:
  DW_CFA_nop:

  0x10003dc94: CFA=reg31
  0x10003dc9c: CFA=reg31+32: reg19=[CFA-24], reg20=[CFA-32], reg29=[CFA-16], reg30=[CFA-8]

00001c40 00000024 00001c44 FDE cie=00000000 pc=100408074...100408148
  Format:       DWARF32
  DW_CFA_advance_loc: 12
  DW_CFA_def_cfa_offset: +80
  DW_CFA_offset: reg30 -8
  DW_CFA_offset: reg29 -16
  DW_CFA_offset: reg19 -24
  DW_CFA_offset: reg20 -32
  DW_CFA_nop:
  DW_CFA_nop:
  DW_CFA_nop:
  DW_CFA_nop:

  0x100408074: CFA=reg31
  0x100408080: CFA=reg31+80: reg19=[CFA-24], reg20=[CFA-32], reg29=[CFA-16], reg30=[CFA-8]

00001c68 00000024 00001c6c FDE cie=00000000 pc=10003ee24...10003ef98
  Format:       DWARF32
  DW_CFA_advance_loc: 8
  DW_CFA_def_cfa_offset: +32
  DW_CFA_offset: reg30 -8
  DW_CFA_offset: reg29 -16
  DW_CFA_offset: reg19 -24
  DW_CFA_offset: reg20 -32
  DW_CFA_nop:
  DW_CFA_nop:
  DW_CFA_nop:
  DW_CFA_nop:

  0x10003ee24: CFA=reg31
  0x10003ee2c: CFA=reg31+32: reg19=[CFA-24], reg20=[CFA-32], reg29=[CFA-16], reg30=[CFA-8]

00001c90 0000001c 00001c94 FDE cie=00000000 pc=1000412cc...100041458
  Format:       DWARF32
  DW_CFA_advance_loc: 8
  DW_CFA_def_cfa_offset: +96
  DW_CFA_offset: reg30 -8
  DW_CFA_offset: reg29 -16

  0x1000412cc: CFA=reg31
  0x1000412d4: CFA=reg31+96: reg29=[CFA-16], reg30=[CFA-8]

00001cb0 00000034 00001cb4 FDE cie=00000000 pc=100041458...100041828
  Format:       DWARF32
  DW_CFA_advance_loc: 28
  DW_CFA_def_cfa_offset: +192
  DW_CFA_offset: reg30 -8
  DW_CFA_offset: reg29 -16
  DW_CFA_offset: reg19 -24
  DW_CFA_offset: reg20 -32
  DW_CFA_offset: reg21 -40
  DW_CFA_offset: reg22 -48
  DW_CFA_offset: reg23 -56
  DW_CFA_offset: reg24 -64
  DW_CFA_offset: reg25 -72
  DW_CFA_offset: reg26 -80
  DW_CFA_offset: reg27 -88
  DW_CFA_offset: reg28 -96
  DW_CFA_nop:
  DW_CFA_nop:
  DW_CFA_nop:

  0x100041458: CFA=reg31
  0x100041474: CFA=reg31+192: reg19=[CFA-24], reg20=[CFA-32], reg21=[CFA-40], reg22=[CFA-48], reg23=[CFA-56], reg24=[CFA-64], reg25=[CFA-72], reg26=[CFA-80], reg27=[CFA-88], reg28=[CFA-96], reg29=[CFA-16], reg30=[CFA-8]

00001ce8 0000001c 00001cec FDE cie=00000000 pc=1000424f8...1000425bc
  Format:       DWARF32
  DW_CFA_advance_loc: 8
  DW_CFA_def_cfa_offset: +32
  DW_CFA_offset: reg30 -8
  DW_CFA_offset: reg29 -16

  0x1000424f8: CFA=reg31
  0x100042500: CFA=reg31+32: reg29=[CFA-16], reg30=[CFA-8]

00001d08 0000001c 00001d0c FDE cie=00000000 pc=1000425bc...1000425f8
  Format:       DWARF32
  DW_CFA_advance_loc: 8
  DW_CFA_def_cfa_offset: +80
  DW_CFA_offset: reg30 -8
  DW_CFA_offset: reg29 -16

  0x1000425bc: CFA=reg31
  0x1000425c4: CFA=reg31+80: reg29=[CFA-16], reg30=[CFA-8]

00001d28 0000001c 00001d2c FDE cie=00000000 pc=100042600...1000426c8
  Format:       DWARF32
  DW_CFA_advance_loc: 8
  DW_CFA_def_cfa_offset: +32
  DW_CFA_offset: reg30 -8
  DW_CFA_offset: reg29 -16

  0x100042600: CFA=reg31
  0x100042608: CFA=reg31+32: reg29=[CFA-16], reg30=[CFA-8]

00001d48 0000001c 00001d4c FDE cie=00000000 pc=1000426c8...100042708
  Format:       DWARF32
  DW_CFA_advance_loc: 8
  DW_CFA_def_cfa_offset: +80
  DW_CFA_offset: reg30 -8
  DW_CFA_offset: reg29 -16

  0x1000426c8: CFA=reg31
  0x1000426d0: CFA=reg31+80: reg29=[CFA-16], reg30=[CFA-8]

00001d68 00000024 00001d6c FDE cie=00000000 pc=100408148...100408228
  Format:       DWARF32
  DW_CFA_advance_loc: 12
  DW_CFA_def_cfa_offset: +48
  DW_CFA_offset: reg30 -8
  DW_CFA_offset: reg29 -16
  DW_CFA_offset: reg19 -24
  DW_CFA_offset: reg20 -32
  DW_CFA_offset: reg21 -40
  DW_CFA_offset: reg22 -48

  0x100408148: CFA=reg31
  0x100408154: CFA=reg31+48: reg19=[CFA-24], reg20=[CFA-32], reg21=[CFA-40], reg22=[CFA-48], reg29=[CFA-16], reg30=[CFA-8]

00001d90 0000002c 00001d94 FDE cie=00000000 pc=100042708...100042784
  Format:       DWARF32
  DW_CFA_advance_loc: 16
  DW_CFA_def_cfa_offset: +64
  DW_CFA_offset: reg30 -8
  DW_CFA_offset: reg29 -16
  DW_CFA_offset: reg19 -24
  DW_CFA_offset: reg20 -32
  DW_CFA_offset: reg21 -40
  DW_CFA_offset: reg22 -48
  DW_CFA_offset: reg23 -56
  DW_CFA_offset: reg24 -64
  DW_CFA_nop:
  DW_CFA_nop:
  DW_CFA_nop:
  DW_CFA_nop:

  0x100042708: CFA=reg31
  0x100042718: CFA=reg31+64: reg19=[CFA-24], reg20=[CFA-32], reg21=[CFA-40], reg22=[CFA-48], reg23=[CFA-56], reg24=[CFA-64], reg29=[CFA-16], reg30=[CFA-8]

00001dc0 00000034 00001dc4 FDE cie=00000000 pc=100042784...1000428ec
  Format:       DWARF32
  DW_CFA_advance_loc: 24
  DW_CFA_def_cfa_offset: +96
  DW_CFA_offset: reg30 -8
  DW_CFA_offset: reg29 -16
  DW_CFA_offset: reg19 -24
  DW_CFA_offset: reg20 -32
  DW_CFA_offset: reg21 -40
  DW_CFA_offset: reg22 -48
  DW_CFA_offset: reg23 -56
  DW_CFA_offset: reg24 -64
  DW_CFA_offset: reg25 -72
  DW_CFA_offset: reg26 -80
  DW_CFA_offset: reg27 -88
  DW_CFA_offset: reg28 -96
  DW_CFA_nop:
  DW_CFA_nop:
  DW_CFA_nop:
  DW_CFA_nop:

  0x100042784: CFA=reg31
  0x10004279c: CFA=reg31+96: reg19=[CFA-24], reg20=[CFA-32], reg21=[CFA-40], reg22=[CFA-48], reg23=[CFA-56], reg24=[CFA-64], reg25=[CFA-72], reg26=[CFA-80], reg27=[CFA-88], reg28=[CFA-96], reg29=[CFA-16], reg30=[CFA-8]

00001df8 00000034 00001dfc FDE cie=00000000 pc=1000428ec...100042b74
  Format:       DWARF32
  DW_CFA_advance_loc: 28
  DW_CFA_def_cfa_offset: +112
  DW_CFA_offset: reg30 -8
  DW_CFA_offset: reg29 -16
  DW_CFA_offset: reg19 -24
  DW_CFA_offset: reg20 -32
  DW_CFA_offset: reg21 -40
  DW_CFA_offset: reg22 -48
  DW_CFA_offset: reg23 -56
  DW_CFA_offset: reg24 -64
  DW_CFA_offset: reg25 -72
  DW_CFA_offset: reg26 -80
  DW_CFA_offset: reg27 -88
  DW_CFA_offset: reg28 -96
  DW_CFA_nop:
  DW_CFA_nop:
  DW_CFA_nop:
  DW_CFA_nop:

  0x1000428ec: CFA=reg31
  0x100042908: CFA=reg31+112: reg19=[CFA-24], reg20=[CFA-32], reg21=[CFA-40], reg22=[CFA-48], reg23=[CFA-56], reg24=[CFA-64], reg25=[CFA-72], reg26=[CFA-80], reg27=[CFA-88], reg28=[CFA-96], reg29=[CFA-16], reg30=[CFA-8]

00001e30 00000024 00001e34 FDE cie=00000000 pc=100042c94...100042dac
  Format:       DWARF32
  DW_CFA_advance_loc: 16
  DW_CFA_def_cfa_offset: +64
  DW_CFA_offset: reg30 -8
  DW_CFA_offset: reg29 -16
  DW_CFA_offset: reg19 -24
  DW_CFA_offset: reg20 -32
  DW_CFA_offset: reg21 -40
  DW_CFA_offset: reg22 -48

  0x100042c94: CFA=reg31
  0x100042ca4: CFA=reg31+64: reg19=[CFA-24], reg20=[CFA-32], reg21=[CFA-40], reg22=[CFA-48], reg29=[CFA-16], reg30=[CFA-8]

00001e58 0000001c 00001e5c FDE cie=00000000 pc=100042dac...100042de8
  Format:       DWARF32
  DW_CFA_advance_loc: 8
  DW_CFA_def_cfa_offset: +80
  DW_CFA_offset: reg30 -8
  DW_CFA_offset: reg29 -16

  0x100042dac: CFA=reg31
  0x100042db4: CFA=reg31+80: reg29=[CFA-16], reg30=[CFA-8]

00001e78 00000024 00001e7c FDE cie=00000000 pc=100042de8...100042e5c
  Format:       DWARF32
  DW_CFA_advance_loc: 12
  DW_CFA_def_cfa_offset: +48
  DW_CFA_offset: reg30 -8
  DW_CFA_offset: reg29 -16
  DW_CFA_offset: reg19 -24
  DW_CFA_offset: reg20 -32
  DW_CFA_offset: reg21 -40
  DW_CFA_offset: reg22 -48

  0x100042de8: CFA=reg31
  0x100042df4: CFA=reg31+48: reg19=[CFA-24], reg20=[CFA-32], reg21=[CFA-40], reg22=[CFA-48], reg29=[CFA-16], reg30=[CFA-8]

00001ea0 0000001c 00001ea4 FDE cie=00000000 pc=100042e5c...100042e9c
  Format:       DWARF32
  DW_CFA_advance_loc: 8
  DW_CFA_def_cfa_offset: +80
  DW_CFA_offset: reg30 -8
  DW_CFA_offset: reg29 -16

  0x100042e5c: CFA=reg31
  0x100042e64: CFA=reg31+80: reg29=[CFA-16], reg30=[CFA-8]

00001ec0 00000034 00001ec4 FDE cie=00000000 pc=100043c14...100043ec0
  Format:       DWARF32
  DW_CFA_advance_loc: 28
  DW_CFA_def_cfa_offset: +192
  DW_CFA_offset: reg30 -8
  DW_CFA_offset: reg29 -16
  DW_CFA_offset: reg19 -24
  DW_CFA_offset: reg20 -32
  DW_CFA_offset: reg21 -40
  DW_CFA_offset: reg22 -48
  DW_CFA_offset: reg23 -56
  DW_CFA_offset: reg24 -64
  DW_CFA_offset: reg25 -72
  DW_CFA_offset: reg26 -80
  DW_CFA_offset: reg27 -88
  DW_CFA_offset: reg28 -96
  DW_CFA_nop:
  DW_CFA_nop:
  DW_CFA_nop:

  0x100043c14: CFA=reg31
  0x100043c30: CFA=reg31+192: reg19=[CFA-24], reg20=[CFA-32], reg21=[CFA-40], reg22=[CFA-48], reg23=[CFA-56], reg24=[CFA-64], reg25=[CFA-72], reg26=[CFA-80], reg27=[CFA-88], reg28=[CFA-96], reg29=[CFA-16], reg30=[CFA-8]

00001ef8 0000002c 00001efc FDE cie=00000000 pc=100043ec0...100043f90
  Format:       DWARF32
  DW_CFA_advance_loc: 16
  DW_CFA_def_cfa_offset: +160
  DW_CFA_offset: reg30 -8
  DW_CFA_offset: reg29 -16
  DW_CFA_offset: reg19 -24
  DW_CFA_offset: reg20 -32
  DW_CFA_offset: reg21 -40
  DW_CFA_offset: reg22 -48
  DW_CFA_nop:
  DW_CFA_nop:
  DW_CFA_nop:
  DW_CFA_nop:
  DW_CFA_nop:
  DW_CFA_nop:
  DW_CFA_nop:

  0x100043ec0: CFA=reg31
  0x100043ed0: CFA=reg31+160: reg19=[CFA-24], reg20=[CFA-32], reg21=[CFA-40], reg22=[CFA-48], reg29=[CFA-16], reg30=[CFA-8]

00001f28 00000034 00001f2c FDE cie=00000000 pc=100043f90...1000441d4
  Format:       DWARF32
  DW_CFA_advance_loc: 28
  DW_CFA_def_cfa_offset: +240
  DW_CFA_offset: reg30 -8
  DW_CFA_offset: reg29 -16
  DW_CFA_offset: reg19 -24
  DW_CFA_offset: reg20 -32
  DW_CFA_offset: reg21 -40
  DW_CFA_offset: reg22 -48
  DW_CFA_offset: reg23 -56
  DW_CFA_offset: reg24 -64
  DW_CFA_offset: reg25 -72
  DW_CFA_offset: reg26 -80
  DW_CFA_offset: reg27 -88
  DW_CFA_offset: reg28 -96
  DW_CFA_nop:
  DW_CFA_nop:
  DW_CFA_nop:

  0x100043f90: CFA=reg31
  0x100043fac: CFA=reg31+240: reg19=[CFA-24], reg20=[CFA-32], reg21=[CFA-40], reg22=[CFA-48], reg23=[CFA-56], reg24=[CFA-64], reg25=[CFA-72], reg26=[CFA-80], reg27=[CFA-88], reg28=[CFA-96], reg29=[CFA-16], reg30=[CFA-8]

00001f60 00000034 00001f64 FDE cie=00000000 pc=100044580...100044864
  Format:       DWARF32
  DW_CFA_advance_loc: 28
  DW_CFA_def_cfa_offset: +208
  DW_CFA_offset: reg30 -8
  DW_CFA_offset: reg29 -16
  DW_CFA_offset: reg19 -24
  DW_CFA_offset: reg20 -32
  DW_CFA_offset: reg21 -40
  DW_CFA_offset: reg22 -48
  DW_CFA_offset: reg23 -56
  DW_CFA_offset: reg24 -64
  DW_CFA_offset: reg25 -72
  DW_CFA_offset: reg26 -80
  DW_CFA_offset: reg27 -88
  DW_CFA_offset: reg28 -96
  DW_CFA_nop:
  DW_CFA_nop:
  DW_CFA_nop:

  0x100044580: CFA=reg31
  0x10004459c: CFA=reg31+208: reg19=[CFA-24], reg20=[CFA-32], reg21=[CFA-40], reg22=[CFA-48], reg23=[CFA-56], reg24=[CFA-64], reg25=[CFA-72], reg26=[CFA-80], reg27=[CFA-88], reg28=[CFA-96], reg29=[CFA-16], reg30=[CFA-8]

00001f98 0000002c 00001f9c FDE cie=00000000 pc=100044864...100044a0c
  Format:       DWARF32
  DW_CFA_advance_loc: 16
  DW_CFA_def_cfa_offset: +64
  DW_CFA_offset: reg30 -8
  DW_CFA_offset: reg29 -16
  DW_CFA_offset: reg19 -24
  DW_CFA_offset: reg20 -32
  DW_CFA_offset: reg21 -40
  DW_CFA_offset: reg22 -48
  DW_CFA_offset: reg23 -56
  DW_CFA_offset: reg24 -64
  DW_CFA_nop:
  DW_CFA_nop:
  DW_CFA_nop:
  DW_CFA_nop:

  0x100044864: CFA=reg31
  0x100044874: CFA=reg31+64: reg19=[CFA-24], reg20=[CFA-32], reg21=[CFA-40], reg22=[CFA-48], reg23=[CFA-56], reg24=[CFA-64], reg29=[CFA-16], reg30=[CFA-8]

00001fc8 00000034 00001fcc FDE cie=00000000 pc=100408228...100408798
  Format:       DWARF32
  DW_CFA_advance_loc: 28
  DW_CFA_def_cfa_offset: +160
  DW_CFA_offset: reg30 -8
  DW_CFA_offset: reg29 -16
  DW_CFA_offset: reg19 -24
  DW_CFA_offset: reg20 -32
  DW_CFA_offset: reg21 -40
  DW_CFA_offset: reg22 -48
  DW_CFA_offset: reg23 -56
  DW_CFA_offset: reg24 -64
  DW_CFA_offset: reg25 -72
  DW_CFA_offset: reg26 -80
  DW_CFA_offset: reg27 -88
  DW_CFA_offset: reg28 -96
  DW_CFA_nop:
  DW_CFA_nop:
  DW_CFA_nop:

  0x100408228: CFA=reg31
  0x100408244: CFA=reg31+160: reg19=[CFA-24], reg20=[CFA-32], reg21=[CFA-40], reg22=[CFA-48], reg23=[CFA-56], reg24=[CFA-64], reg25=[CFA-72], reg26=[CFA-80], reg27=[CFA-88], reg28=[CFA-96], reg29=[CFA-16], reg30=[CFA-8]

00002000 00000024 00002004 FDE cie=00000000 pc=100044ee8...100044fa8
  Format:       DWARF32
  DW_CFA_advance_loc: 12
  DW_CFA_def_cfa_offset: +48
  DW_CFA_offset: reg30 -8
  DW_CFA_offset: reg29 -16
  DW_CFA_offset: reg19 -24
  DW_CFA_offset: reg20 -32
  DW_CFA_offset: reg21 -40
  DW_CFA_offset: reg22 -48

  0x100044ee8: CFA=reg31
  0x100044ef4: CFA=reg31+48: reg19=[CFA-24], reg20=[CFA-32], reg21=[CFA-40], reg22=[CFA-48], reg29=[CFA-16], reg30=[CFA-8]

00002028 00000034 0000202c FDE cie=00000000 pc=1000451c0...100045420
  Format:       DWARF32
  DW_CFA_advance_loc: 28
  DW_CFA_def_cfa_offset: +128
  DW_CFA_offset: reg30 -8
  DW_CFA_offset: reg29 -16
  DW_CFA_offset: reg19 -24
  DW_CFA_offset: reg20 -32
  DW_CFA_offset: reg21 -40
  DW_CFA_offset: reg22 -48
  DW_CFA_offset: reg23 -56
  DW_CFA_offset: reg24 -64
  DW_CFA_offset: reg25 -72
  DW_CFA_offset: reg26 -80
  DW_CFA_offset: reg27 -88
  DW_CFA_offset: reg28 -96
  DW_CFA_nop:
  DW_CFA_nop:
  DW_CFA_nop:

  0x1000451c0: CFA=reg31
  0x1000451dc: CFA=reg31+128: reg19=[CFA-24], reg20=[CFA-32], reg21=[CFA-40], reg22=[CFA-48], reg23=[CFA-56], reg24=[CFA-64], reg25=[CFA-72], reg26=[CFA-80], reg27=[CFA-88], reg28=[CFA-96], reg29=[CFA-16], reg30=[CFA-8]

00002060 0000003c 00002064 FDE cie=00000000 pc=100045930...100045b44
  Format:       DWARF32
  DW_CFA_advance_loc: 32
  DW_CFA_def_cfa_offset: +320
  DW_CFA_offset: reg30 -8
  DW_CFA_offset: reg29 -16
  DW_CFA_offset: reg19 -24
  DW_CFA_offset: reg20 -32
  DW_CFA_offset: reg21 -40
  DW_CFA_offset: reg22 -48
  DW_CFA_offset: reg23 -56
  DW_CFA_offset: reg24 -64
  DW_CFA_offset: reg25 -72
  DW_CFA_offset: reg26 -80
  DW_CFA_offset: reg27 -88
  DW_CFA_offset: reg28 -96
  DW_CFA_offset_extended: reg72 -104
  DW_CFA_offset_extended: reg73 -112
  DW_CFA_nop:
  DW_CFA_nop:
  DW_CFA_nop:
  DW_CFA_nop:
  DW_CFA_nop:

  0x100045930: CFA=reg31
  0x100045950: CFA=reg31+320: reg19=[CFA-24], reg20=[CFA-32], reg21=[CFA-40], reg22=[CFA-48], reg23=[CFA-56], reg24=[CFA-64], reg25=[CFA-72], reg26=[CFA-80], reg27=[CFA-88], reg28=[CFA-96], reg29=[CFA-16], reg30=[CFA-8], reg72=[CFA-104], reg73=[CFA-112]

000020a0 00000034 000020a4 FDE cie=00000000 pc=100045b44...100045d88
  Format:       DWARF32
  DW_CFA_advance_loc: 28
  DW_CFA_def_cfa_offset: +240
  DW_CFA_offset: reg30 -8
  DW_CFA_offset: reg29 -16
  DW_CFA_offset: reg19 -24
  DW_CFA_offset: reg20 -32
  DW_CFA_offset: reg21 -40
  DW_CFA_offset: reg22 -48
  DW_CFA_offset: reg23 -56
  DW_CFA_offset: reg24 -64
  DW_CFA_offset: reg25 -72
  DW_CFA_offset: reg26 -80
  DW_CFA_offset: reg27 -88
  DW_CFA_offset: reg28 -96
  DW_CFA_nop:
  DW_CFA_nop:
  DW_CFA_nop:

  0x100045b44: CFA=reg31
  0x100045b60: CFA=reg31+240: reg19=[CFA-24], reg20=[CFA-32], reg21=[CFA-40], reg22=[CFA-48], reg23=[CFA-56], reg24=[CFA-64], reg25=[CFA-72], reg26=[CFA-80], reg27=[CFA-88], reg28=[CFA-96], reg29=[CFA-16], reg30=[CFA-8]

000020d8 00000034 000020dc FDE cie=00000000 pc=10004d730...10004d8c8
  Format:       DWARF32
  DW_CFA_advance_loc: 28
  DW_CFA_def_cfa_offset: +128
  DW_CFA_offset: reg30 -8
  DW_CFA_offset: reg29 -16
  DW_CFA_offset: reg19 -24
  DW_CFA_offset: reg20 -32
  DW_CFA_offset: reg21 -40
  DW_CFA_offset: reg22 -48
  DW_CFA_offset: reg23 -56
  DW_CFA_offset: reg24 -64
  DW_CFA_offset: reg25 -72
  DW_CFA_offset: reg26 -80
  DW_CFA_offset: reg27 -88
  DW_CFA_offset: reg28 -96
  DW_CFA_nop:
  DW_CFA_nop:
  DW_CFA_nop:

  0x10004d730: CFA=reg31
  0x10004d74c: CFA=reg31+128: reg19=[CFA-24], reg20=[CFA-32], reg21=[CFA-40], reg22=[CFA-48], reg23=[CFA-56], reg24=[CFA-64], reg25=[CFA-72], reg26=[CFA-80], reg27=[CFA-88], reg28=[CFA-96], reg29=[CFA-16], reg30=[CFA-8]

00002110 00000034 00002114 FDE cie=00000000 pc=10004e114...10004e4f0
  Format:       DWARF32
  DW_CFA_advance_loc: 28
  DW_CFA_def_cfa_offset: +144
  DW_CFA_offset: reg30 -8
  DW_CFA_offset: reg29 -16
  DW_CFA_offset: reg19 -24
  DW_CFA_offset: reg20 -32
  DW_CFA_offset: reg21 -40
  DW_CFA_offset: reg22 -48
  DW_CFA_offset: reg23 -56
  DW_CFA_offset: reg24 -64
  DW_CFA_offset: reg25 -72
  DW_CFA_offset: reg26 -80
  DW_CFA_offset: reg27 -88
  DW_CFA_offset: reg28 -96
  DW_CFA_nop:
  DW_CFA_nop:
  DW_CFA_nop:

  0x10004e114: CFA=reg31
  0x10004e130: CFA=reg31+144: reg19=[CFA-24], reg20=[CFA-32], reg21=[CFA-40], reg22=[CFA-48], reg23=[CFA-56], reg24=[CFA-64], reg25=[CFA-72], reg26=[CFA-80], reg27=[CFA-88], reg28=[CFA-96], reg29=[CFA-16], reg30=[CFA-8]

00002148 00000024 0000214c FDE cie=00000000 pc=100408798...100408868
  Format:       DWARF32
  DW_CFA_advance_loc: 12
  DW_CFA_def_cfa_offset: +80
  DW_CFA_offset: reg30 -8
  DW_CFA_offset: reg29 -16
  DW_CFA_offset: reg19 -24
  DW_CFA_offset: reg20 -32
  DW_CFA_nop:
  DW_CFA_nop:
  DW_CFA_nop:
  DW_CFA_nop:

  0x100408798: CFA=reg31
  0x1004087a4: CFA=reg31+80: reg19=[CFA-24], reg20=[CFA-32], reg29=[CFA-16], reg30=[CFA-8]

00002170 0000001c 00002174 FDE cie=00000000 pc=10004e720...10004e770
  Format:       DWARF32
  DW_CFA_advance_loc: 8
  DW_CFA_def_cfa_offset: +48
  DW_CFA_offset: reg30 -8
  DW_CFA_offset: reg29 -16

  0x10004e720: CFA=reg31
  0x10004e728: CFA=reg31+48: reg29=[CFA-16], reg30=[CFA-8]

00002190 0000001c 00002194 FDE cie=00000000 pc=10004e770...10004e80c
  Format:       DWARF32
  DW_CFA_advance_loc: 8
  DW_CFA_def_cfa_offset: +64
  DW_CFA_offset: reg30 -8
  DW_CFA_offset: reg29 -16

  0x10004e770: CFA=reg31
  0x10004e778: CFA=reg31+64: reg29=[CFA-16], reg30=[CFA-8]

000021b0 0000001c 000021b4 FDE cie=00000000 pc=10004e81c...10004e868
  Format:       DWARF32
  DW_CFA_advance_loc: 8
  DW_CFA_def_cfa_offset: +80
  DW_CFA_offset: reg30 -8
  DW_CFA_offset: reg29 -16

  0x10004e81c: CFA=reg31
  0x10004e824: CFA=reg31+80: reg29=[CFA-16], reg30=[CFA-8]

000021d0 00000024 000021d4 FDE cie=00000000 pc=10004e87c...10004e99c
  Format:       DWARF32
  DW_CFA_advance_loc: 16
  DW_CFA_def_cfa_offset: +80
  DW_CFA_offset: reg30 -8
  DW_CFA_offset: reg29 -16
  DW_CFA_offset: reg19 -24
  DW_CFA_offset: reg20 -32
  DW_CFA_offset: reg21 -40
  DW_CFA_offset: reg22 -48

  0x10004e87c: CFA=reg31
  0x10004e88c: CFA=reg31+80: reg19=[CFA-24], reg20=[CFA-32], reg21=[CFA-40], reg22=[CFA-48], reg29=[CFA-16], reg30=[CFA-8]

000021f8 00000024 000021fc FDE cie=00000000 pc=10004e99c...10004ea98
  Format:       DWARF32
  DW_CFA_advance_loc: 12
  DW_CFA_def_cfa_offset: +64
  DW_CFA_offset: reg30 -8
  DW_CFA_offset: reg29 -16
  DW_CFA_offset: reg19 -24
  DW_CFA_offset: reg20 -32
  DW_CFA_nop:
  DW_CFA_nop:
  DW_CFA_nop:
  DW_CFA_nop:

  0x10004e99c: CFA=reg31
  0x10004e9a8: CFA=reg31+64: reg19=[CFA-24], reg20=[CFA-32], reg29=[CFA-16], reg30=[CFA-8]

00002220 0000001c 00002224 FDE cie=00000000 pc=100408868...10040889c
  Format:       DWARF32
  DW_CFA_advance_loc: 8
  DW_CFA_def_cfa_offset: +80
  DW_CFA_offset: reg30 -8
  DW_CFA_offset: reg29 -16

  0x100408868: CFA=reg31
  0x100408870: CFA=reg31+80: reg29=[CFA-16], reg30=[CFA-8]

00002240 0000001c 00002244 FDE cie=00000000 pc=10040889c...1004088e8
  Format:       DWARF32
  DW_CFA_advance_loc: 8
  DW_CFA_def_cfa_offset: +112
  DW_CFA_offset: reg30 -8
  DW_CFA_offset: reg29 -16

  0x10040889c: CFA=reg31
  0x1004088a4: CFA=reg31+112: reg29=[CFA-16], reg30=[CFA-8]

00002260 0000001c 00002264 FDE cie=00000000 pc=10004eca0...10004ede4
  Format:       DWARF32
  DW_CFA_advance_loc: 8
  DW_CFA_def_cfa_offset: +64
  DW_CFA_offset: reg30 -8
  DW_CFA_offset: reg29 -16

  0x10004eca0: CFA=reg31
  0x10004eca8: CFA=reg31+64: reg29=[CFA-16], reg30=[CFA-8]

00002280 0000001c 00002284 FDE cie=00000000 pc=1004088e8...100408910
  Format:       DWARF32
  DW_CFA_advance_loc: 8
  DW_CFA_def_cfa_offset: +48
  DW_CFA_offset: reg30 -8
  DW_CFA_offset: reg29 -16

  0x1004088e8: CFA=reg31
  0x1004088f0: CFA=reg31+48: reg29=[CFA-16], reg30=[CFA-8]

000022a0 00000034 000022a4 FDE cie=00000000 pc=10004edf8...10004f0e4
  Format:       DWARF32
  DW_CFA_advance_loc: 28
  DW_CFA_def_cfa_offset: +112
  DW_CFA_offset: reg30 -8
  DW_CFA_offset: reg29 -16
  DW_CFA_offset: reg19 -24
  DW_CFA_offset: reg20 -32
  DW_CFA_offset: reg21 -40
  DW_CFA_offset: reg22 -48
  DW_CFA_offset: reg23 -56
  DW_CFA_offset: reg24 -64
  DW_CFA_offset: reg25 -72
  DW_CFA_offset: reg26 -80
  DW_CFA_offset: reg27 -88
  DW_CFA_offset: reg28 -96
  DW_CFA_nop:
  DW_CFA_nop:
  DW_CFA_nop:
  DW_CFA_nop:

  0x10004edf8: CFA=reg31
  0x10004ee14: CFA=reg31+112: reg19=[CFA-24], reg20=[CFA-32], reg21=[CFA-40], reg22=[CFA-48], reg23=[CFA-56], reg24=[CFA-64], reg25=[CFA-72], reg26=[CFA-80], reg27=[CFA-88], reg28=[CFA-96], reg29=[CFA-16], reg30=[CFA-8]

000022d8 00000024 000022dc FDE cie=00000000 pc=10004f0e4...10004f160
  Format:       DWARF32
  DW_CFA_advance_loc: 12
  DW_CFA_def_cfa_offset: +48
  DW_CFA_offset: reg30 -8
  DW_CFA_offset: reg29 -16
  DW_CFA_offset: reg19 -24
  DW_CFA_offset: reg20 -32
  DW_CFA_offset: reg21 -40
  DW_CFA_offset: reg22 -48

  0x10004f0e4: CFA=reg31
  0x10004f0f0: CFA=reg31+48: reg19=[CFA-24], reg20=[CFA-32], reg21=[CFA-40], reg22=[CFA-48], reg29=[CFA-16], reg30=[CFA-8]

00002300 00000024 00002304 FDE cie=00000000 pc=10004f160...10004f208
  Format:       DWARF32
  DW_CFA_advance_loc: 12
  DW_CFA_def_cfa_offset: +48
  DW_CFA_offset: reg30 -8
  DW_CFA_offset: reg29 -16
  DW_CFA_offset: reg19 -24
  DW_CFA_offset: reg20 -32
  DW_CFA_offset: reg21 -40
  DW_CFA_offset: reg22 -48

  0x10004f160: CFA=reg31
  0x10004f16c: CFA=reg31+48: reg19=[CFA-24], reg20=[CFA-32], reg21=[CFA-40], reg22=[CFA-48], reg29=[CFA-16], reg30=[CFA-8]

00002328 0000001c 0000232c FDE cie=00000000 pc=10004f208...10004f380
  Format:       DWARF32
  DW_CFA_advance_loc: 4
  DW_CFA_def_cfa_offset: +16
  DW_CFA_offset: reg30 -8
  DW_CFA_offset: reg29 -16

  0x10004f208: CFA=reg31
  0x10004f20c: CFA=reg31+16: reg29=[CFA-16], reg30=[CFA-8]

00002348 0000001c 0000234c FDE cie=00000000 pc=10004f380...10004f544
  Format:       DWARF32
  DW_CFA_advance_loc: 4
  DW_CFA_def_cfa_offset: +16
  DW_CFA_offset: reg30 -8
  DW_CFA_offset: reg29 -16

  0x10004f380: CFA=reg31
  0x10004f384: CFA=reg31+16: reg29=[CFA-16], reg30=[CFA-8]

00002368 0000001c 0000236c FDE cie=00000000 pc=100408910...10040895c
  Format:       DWARF32
  DW_CFA_advance_loc: 8
  DW_CFA_def_cfa_offset: +112
  DW_CFA_offset: reg30 -8
  DW_CFA_offset: reg29 -16

  0x100408910: CFA=reg31
  0x100408918: CFA=reg31+112: reg29=[CFA-16], reg30=[CFA-8]

00002388 0000001c 0000238c FDE cie=00000000 pc=10004f544...10004f6e4
  Format:       DWARF32
  DW_CFA_advance_loc: 4
  DW_CFA_def_cfa_offset: +16
  DW_CFA_offset: reg30 -8
  DW_CFA_offset: reg29 -16

  0x10004f544: CFA=reg31
  0x10004f548: CFA=reg31+16: reg29=[CFA-16], reg30=[CFA-8]

000023a8 0000001c 000023ac FDE cie=00000000 pc=10004f6e4...10004f7fc
  Format:       DWARF32
  DW_CFA_advance_loc: 4
  DW_CFA_def_cfa_offset: +16
  DW_CFA_offset: reg30 -8
  DW_CFA_offset: reg29 -16

  0x10004f6e4: CFA=reg31
  0x10004f6e8: CFA=reg31+16: reg29=[CFA-16], reg30=[CFA-8]

000023c8 0000001c 000023cc FDE cie=00000000 pc=10004fae4...10004fe4c
  Format:       DWARF32
  DW_CFA_advance_loc: 4
  DW_CFA_def_cfa_offset: +16
  DW_CFA_offset: reg30 -8
  DW_CFA_offset: reg29 -16

  0x10004fae4: CFA=reg31
  0x10004fae8: CFA=reg31+16: reg29=[CFA-16], reg30=[CFA-8]

000023e8 0000002c 000023ec FDE cie=00000000 pc=10004fe4c...10005027c
  Format:       DWARF32
  DW_CFA_advance_loc: 20
  DW_CFA_def_cfa_offset: +80
  DW_CFA_offset: reg30 -8
  DW_CFA_offset: reg29 -16
  DW_CFA_offset: reg19 -24
  DW_CFA_offset: reg20 -32
  DW_CFA_offset: reg21 -40
  DW_CFA_offset: reg22 -48
  DW_CFA_offset: reg23 -56
  DW_CFA_offset: reg24 -64
  DW_CFA_offset: reg25 -72
  DW_CFA_offset: reg26 -80

  0x10004fe4c: CFA=reg31
  0x10004fe60: CFA=reg31+80: reg19=[CFA-24], reg20=[CFA-32], reg21=[CFA-40], reg22=[CFA-48], reg23=[CFA-56], reg24=[CFA-64], reg25=[CFA-72], reg26=[CFA-80], reg29=[CFA-16], reg30=[CFA-8]

00002418 00000024 0000241c FDE cie=00000000 pc=10040895c...100408c54
  Format:       DWARF32
  DW_CFA_advance_loc: 8
  DW_CFA_def_cfa_offset: +224
  DW_CFA_offset: reg30 -8
  DW_CFA_offset: reg29 -16
  DW_CFA_nop:
  DW_CFA_nop:
  DW_CFA_nop:
  DW_CFA_nop:
  DW_CFA_nop:
  DW_CFA_nop:
  DW_CFA_nop:

  0x10040895c: CFA=reg31
  0x100408964: CFA=reg31+224: reg29=[CFA-16], reg30=[CFA-8]

00002440 00000034 00002444 FDE cie=00000000 pc=10005027c...1000504c0
  Format:       DWARF32
  DW_CFA_advance_loc: 28
  DW_CFA_def_cfa_offset: +112
  DW_CFA_offset: reg30 -8
  DW_CFA_offset: reg29 -16
  DW_CFA_offset: reg19 -24
  DW_CFA_offset: reg20 -32
  DW_CFA_offset: reg21 -40
  DW_CFA_offset: reg22 -48
  DW_CFA_offset: reg23 -56
  DW_CFA_offset: reg24 -64
  DW_CFA_offset: reg25 -72
  DW_CFA_offset: reg26 -80
  DW_CFA_offset: reg27 -88
  DW_CFA_offset: reg28 -96
  DW_CFA_nop:
  DW_CFA_nop:
  DW_CFA_nop:
  DW_CFA_nop:

  0x10005027c: CFA=reg31
  0x100050298: CFA=reg31+112: reg19=[CFA-24], reg20=[CFA-32], reg21=[CFA-40], reg22=[CFA-48], reg23=[CFA-56], reg24=[CFA-64], reg25=[CFA-72], reg26=[CFA-80], reg27=[CFA-88], reg28=[CFA-96], reg29=[CFA-16], reg30=[CFA-8]

00002478 00000024 0000247c FDE cie=00000000 pc=1000504c0...100050538
  Format:       DWARF32
  DW_CFA_advance_loc: 12
  DW_CFA_def_cfa_offset: +80
  DW_CFA_offset: reg30 -8
  DW_CFA_offset: reg29 -16
  DW_CFA_offset: reg19 -24
  DW_CFA_offset: reg20 -32
  DW_CFA_nop:
  DW_CFA_nop:
  DW_CFA_nop:
  DW_CFA_nop:

  0x1000504c0: CFA=reg31
  0x1000504cc: CFA=reg31+80: reg19=[CFA-24], reg20=[CFA-32], reg29=[CFA-16], reg30=[CFA-8]

000024a0 00000024 000024a4 FDE cie=00000000 pc=100050538...100050764
  Format:       DWARF32
  DW_CFA_advance_loc: 8
  DW_CFA_def_cfa_offset: +144
  DW_CFA_offset: reg30 -8
  DW_CFA_offset: reg29 -16
  DW_CFA_nop:
  DW_CFA_nop:
  DW_CFA_nop:
  DW_CFA_nop:
  DW_CFA_nop:
  DW_CFA_nop:
  DW_CFA_nop:

  0x100050538: CFA=reg31
  0x100050540: CFA=reg31+144: reg29=[CFA-16], reg30=[CFA-8]

000024c8 00000034 000024cc FDE cie=00000000 pc=100050764...100050960
  Format:       DWARF32
  DW_CFA_advance_loc: 24
  DW_CFA_def_cfa_offset: +144
  DW_CFA_offset: reg30 -8
  DW_CFA_offset: reg29 -16
  DW_CFA_offset: reg19 -24
  DW_CFA_offset: reg20 -32
  DW_CFA_offset: reg21 -40
  DW_CFA_offset: reg22 -48
  DW_CFA_offset: reg23 -56
  DW_CFA_offset: reg24 -64
  DW_CFA_offset: reg25 -72
  DW_CFA_offset: reg26 -80
  DW_CFA_nop:
  DW_CFA_nop:
  DW_CFA_nop:
  DW_CFA_nop:
  DW_CFA_nop:
  DW_CFA_nop:
  DW_CFA_nop:

  0x100050764: CFA=reg31
  0x10005077c: CFA=reg31+144: reg19=[CFA-24], reg20=[CFA-32], reg21=[CFA-40], reg22=[CFA-48], reg23=[CFA-56], reg24=[CFA-64], reg25=[CFA-72], reg26=[CFA-80], reg29=[CFA-16], reg30=[CFA-8]

00002500 0000001c 00002504 FDE cie=00000000 pc=100408c54...100408ca0
  Format:       DWARF32
  DW_CFA_advance_loc: 8
  DW_CFA_def_cfa_offset: +112
  DW_CFA_offset: reg30 -8
  DW_CFA_offset: reg29 -16

  0x100408c54: CFA=reg31
  0x100408c5c: CFA=reg31+112: reg29=[CFA-16], reg30=[CFA-8]

00002520 0000001c 00002524 FDE cie=00000000 pc=100050960...100050a94
  Format:       DWARF32
  DW_CFA_advance_loc: 4
  DW_CFA_def_cfa_offset: +16
  DW_CFA_offset: reg30 -8
  DW_CFA_offset: reg29 -16

  0x100050960: CFA=reg31
  0x100050964: CFA=reg31+16: reg29=[CFA-16], reg30=[CFA-8]

00002540 0000001c 00002544 FDE cie=00000000 pc=100050a94...100050d88
  Format:       DWARF32
  DW_CFA_advance_loc: 4
  DW_CFA_def_cfa_offset: +16
  DW_CFA_offset: reg30 -8
  DW_CFA_offset: reg29 -16

  0x100050a94: CFA=reg31
  0x100050a98: CFA=reg31+16: reg29=[CFA-16], reg30=[CFA-8]

00002560 0000001c 00002564 FDE cie=00000000 pc=100408ca0...100408cec
  Format:       DWARF32
  DW_CFA_advance_loc: 8
  DW_CFA_def_cfa_offset: +112
  DW_CFA_offset: reg30 -8
  DW_CFA_offset: reg29 -16

  0x100408ca0: CFA=reg31
  0x100408ca8: CFA=reg31+112: reg29=[CFA-16], reg30=[CFA-8]

00002580 0000001c 00002584 FDE cie=00000000 pc=100408cec...100408d30
  Format:       DWARF32
  DW_CFA_advance_loc: 8
  DW_CFA_def_cfa_offset: +80
  DW_CFA_offset: reg30 -8
  DW_CFA_offset: reg29 -16

  0x100408cec: CFA=reg31
  0x100408cf4: CFA=reg31+80: reg29=[CFA-16], reg30=[CFA-8]

000025a0 00000024 000025a4 FDE cie=00000000 pc=100050d88...100050e84
  Format:       DWARF32
  DW_CFA_advance_loc: 8
  DW_CFA_def_cfa_offset: +224
  DW_CFA_offset: reg30 -8
  DW_CFA_offset: reg29 -16
  DW_CFA_nop:
  DW_CFA_nop:
  DW_CFA_nop:
  DW_CFA_nop:
  DW_CFA_nop:
  DW_CFA_nop:
  DW_CFA_nop:

  0x100050d88: CFA=reg31
  0x100050d90: CFA=reg31+224: reg29=[CFA-16], reg30=[CFA-8]

000025c8 0000001c 000025cc FDE cie=00000000 pc=100050e94...100050ec8
  Format:       DWARF32
  DW_CFA_advance_loc: 8
  DW_CFA_def_cfa_offset: +64
  DW_CFA_offset: reg30 -8
  DW_CFA_offset: reg29 -16

  0x100050e94: CFA=reg31
  0x100050e9c: CFA=reg31+64: reg29=[CFA-16], reg30=[CFA-8]

000025e8 00000024 000025ec FDE cie=00000000 pc=100050ec8...1000510f8
  Format:       DWARF32
  DW_CFA_advance_loc: 8
  DW_CFA_def_cfa_offset: +144
  DW_CFA_offset: reg30 -8
  DW_CFA_offset: reg29 -16
  DW_CFA_nop:
  DW_CFA_nop:
  DW_CFA_nop:
  DW_CFA_nop:
  DW_CFA_nop:
  DW_CFA_nop:
  DW_CFA_nop:

  0x100050ec8: CFA=reg31
  0x100050ed0: CFA=reg31+144: reg29=[CFA-16], reg30=[CFA-8]

00002610 00000024 00002614 FDE cie=00000000 pc=1000510f8...100051280
  Format:       DWARF32
  DW_CFA_advance_loc: 8
  DW_CFA_def_cfa_offset: +32
  DW_CFA_offset: reg30 -8
  DW_CFA_offset: reg29 -16
  DW_CFA_offset: reg19 -24
  DW_CFA_offset: reg20 -32
  DW_CFA_nop:
  DW_CFA_nop:
  DW_CFA_nop:
  DW_CFA_nop:

  0x1000510f8: CFA=reg31
  0x100051100: CFA=reg31+32: reg19=[CFA-24], reg20=[CFA-32], reg29=[CFA-16], reg30=[CFA-8]

00002638 0000002c 0000263c FDE cie=00000000 pc=100051280...10005155c
  Format:       DWARF32
  DW_CFA_advance_loc: 16
  DW_CFA_def_cfa_offset: +208
  DW_CFA_offset: reg30 -8
  DW_CFA_offset: reg29 -16
  DW_CFA_offset: reg19 -24
  DW_CFA_offset: reg20 -32
  DW_CFA_offset: reg21 -40
  DW_CFA_offset: reg22 -48
  DW_CFA_nop:
  DW_CFA_nop:
  DW_CFA_nop:
  DW_CFA_nop:
  DW_CFA_nop:
  DW_CFA_nop:
  DW_CFA_nop:

  0x100051280: CFA=reg31
  0x100051290: CFA=reg31+208: reg19=[CFA-24], reg20=[CFA-32], reg21=[CFA-40], reg22=[CFA-48], reg29=[CFA-16], reg30=[CFA-8]

00002668 0000002c 0000266c FDE cie=00000000 pc=10005155c...1000516e8
  Format:       DWARF32
  DW_CFA_advance_loc: 20
  DW_CFA_def_cfa_offset: +80
  DW_CFA_offset: reg30 -8
  DW_CFA_offset: reg29 -16
  DW_CFA_offset: reg19 -24
  DW_CFA_offset: reg20 -32
  DW_CFA_offset: reg21 -40
  DW_CFA_offset: reg22 -48
  DW_CFA_offset: reg23 -56
  DW_CFA_offset: reg24 -64
  DW_CFA_offset: reg25 -72
  DW_CFA_offset: reg26 -80

  0x10005155c: CFA=reg31
  0x100051570: CFA=reg31+80: reg19=[CFA-24], reg20=[CFA-32], reg21=[CFA-40], reg22=[CFA-48], reg23=[CFA-56], reg24=[CFA-64], reg25=[CFA-72], reg26=[CFA-80], reg29=[CFA-16], reg30=[CFA-8]

00002698 00000024 0000269c FDE cie=00000000 pc=100051784...100051818
  Format:       DWARF32
  DW_CFA_advance_loc: 8
  DW_CFA_def_cfa_offset: +144
  DW_CFA_offset: reg30 -8
  DW_CFA_offset: reg29 -16
  DW_CFA_nop:
  DW_CFA_nop:
  DW_CFA_nop:
  DW_CFA_nop:
  DW_CFA_nop:
  DW_CFA_nop:
  DW_CFA_nop:

  0x100051784: CFA=reg31
  0x10005178c: CFA=reg31+144: reg29=[CFA-16], reg30=[CFA-8]

000026c0 0000001c 000026c4 FDE cie=00000000 pc=100408d30...100408d74
  Format:       DWARF32
  DW_CFA_advance_loc: 8
  DW_CFA_def_cfa_offset: +96
  DW_CFA_offset: reg30 -8
  DW_CFA_offset: reg29 -16

  0x100408d30: CFA=reg31
  0x100408d38: CFA=reg31+96: reg29=[CFA-16], reg30=[CFA-8]

000026e0 0000002c 000026e4 FDE cie=00000000 pc=100051818...100051988
  Format:       DWARF32
  DW_CFA_advance_loc: 16
  DW_CFA_def_cfa_offset: +160
  DW_CFA_offset: reg30 -8
  DW_CFA_offset: reg29 -16
  DW_CFA_offset: reg19 -24
  DW_CFA_offset: reg20 -32
  DW_CFA_offset: reg21 -40
  DW_CFA_offset: reg22 -48
  DW_CFA_nop:
  DW_CFA_nop:
  DW_CFA_nop:
  DW_CFA_nop:
  DW_CFA_nop:
  DW_CFA_nop:
  DW_CFA_nop:

  0x100051818: CFA=reg31
  0x100051828: CFA=reg31+160: reg19=[CFA-24], reg20=[CFA-32], reg21=[CFA-40], reg22=[CFA-48], reg29=[CFA-16], reg30=[CFA-8]

00002710 0000001c 00002714 FDE cie=00000000 pc=100051988...1000519bc
  Format:       DWARF32
  DW_CFA_advance_loc: 8
  DW_CFA_def_cfa_offset: +64
  DW_CFA_offset: reg30 -8
  DW_CFA_offset: reg29 -16

  0x100051988: CFA=reg31
  0x100051990: CFA=reg31+64: reg29=[CFA-16], reg30=[CFA-8]

00002730 0000001c 00002734 FDE cie=00000000 pc=1000519bc...100051b00
  Format:       DWARF32
  DW_CFA_advance_loc: 8
  DW_CFA_def_cfa_offset: +64
  DW_CFA_offset: reg30 -8
  DW_CFA_offset: reg29 -16

  0x1000519bc: CFA=reg31
  0x1000519c4: CFA=reg31+64: reg29=[CFA-16], reg30=[CFA-8]

00002750 00000024 00002754 FDE cie=00000000 pc=100408d74...100408dcc
  Format:       DWARF32
  DW_CFA_advance_loc: 8
  DW_CFA_def_cfa_offset: +128
  DW_CFA_offset: reg30 -8
  DW_CFA_offset: reg29 -16
  DW_CFA_nop:
  DW_CFA_nop:
  DW_CFA_nop:
  DW_CFA_nop:
  DW_CFA_nop:
  DW_CFA_nop:
  DW_CFA_nop:

  0x100408d74: CFA=reg31
  0x100408d7c: CFA=reg31+128: reg29=[CFA-16], reg30=[CFA-8]

00002778 0000002c 0000277c FDE cie=00000000 pc=100051b00...100051d9c
  Format:       DWARF32
  DW_CFA_advance_loc: 24
  DW_CFA_def_cfa_offset: +96
  DW_CFA_offset: reg30 -8
  DW_CFA_offset: reg29 -16
  DW_CFA_offset: reg19 -24
  DW_CFA_offset: reg20 -32
  DW_CFA_offset: reg21 -40
  DW_CFA_offset: reg22 -48
  DW_CFA_offset: reg23 -56
  DW_CFA_offset: reg24 -64
  DW_CFA_offset: reg25 -72
  DW_CFA_offset: reg26 -80

  0x100051b00: CFA=reg31
  0x100051b18: CFA=reg31+96: reg19=[CFA-24], reg20=[CFA-32], reg21=[CFA-40], reg22=[CFA-48], reg23=[CFA-56], reg24=[CFA-64], reg25=[CFA-72], reg26=[CFA-80], reg29=[CFA-16], reg30=[CFA-8]

000027a8 00000034 000027ac FDE cie=00000000 pc=100051d9c...100051f4c
  Format:       DWARF32
  DW_CFA_advance_loc: 24
  DW_CFA_def_cfa_offset: +176
  DW_CFA_offset: reg30 -8
  DW_CFA_offset: reg29 -16
  DW_CFA_offset: reg19 -24
  DW_CFA_offset: reg20 -32
  DW_CFA_offset: reg21 -40
  DW_CFA_offset: reg22 -48
  DW_CFA_offset: reg23 -56
  DW_CFA_offset: reg24 -64
  DW_CFA_offset: reg25 -72
  DW_CFA_offset: reg26 -80
  DW_CFA_nop:
  DW_CFA_nop:
  DW_CFA_nop:
  DW_CFA_nop:
  DW_CFA_nop:
  DW_CFA_nop:
  DW_CFA_nop:

  0x100051d9c: CFA=reg31
  0x100051db4: CFA=reg31+176: reg19=[CFA-24], reg20=[CFA-32], reg21=[CFA-40], reg22=[CFA-48], reg23=[CFA-56], reg24=[CFA-64], reg25=[CFA-72], reg26=[CFA-80], reg29=[CFA-16], reg30=[CFA-8]

000027e0 0000001c 000027e4 FDE cie=00000000 pc=100051f4c...100052010
  Format:       DWARF32
  DW_CFA_advance_loc: 8
  DW_CFA_def_cfa_offset: +32
  DW_CFA_offset: reg30 -8
  DW_CFA_offset: reg29 -16

  0x100051f4c: CFA=reg31
  0x100051f54: CFA=reg31+32: reg29=[CFA-16], reg30=[CFA-8]

00002800 0000001c 00002804 FDE cie=00000000 pc=100052010...10005204c
  Format:       DWARF32
  DW_CFA_advance_loc: 8
  DW_CFA_def_cfa_offset: +80
  DW_CFA_offset: reg30 -8
  DW_CFA_offset: reg29 -16

  0x100052010: CFA=reg31
  0x100052018: CFA=reg31+80: reg29=[CFA-16], reg30=[CFA-8]

00002820 0000001c 00002824 FDE cie=00000000 pc=100052054...10005211c
  Format:       DWARF32
  DW_CFA_advance_loc: 8
  DW_CFA_def_cfa_offset: +32
  DW_CFA_offset: reg30 -8
  DW_CFA_offset: reg29 -16

  0x100052054: CFA=reg31
  0x10005205c: CFA=reg31+32: reg29=[CFA-16], reg30=[CFA-8]

00002840 0000001c 00002844 FDE cie=00000000 pc=10005211c...10005215c
  Format:       DWARF32
  DW_CFA_advance_loc: 8
  DW_CFA_def_cfa_offset: +80
  DW_CFA_offset: reg30 -8
  DW_CFA_offset: reg29 -16

  0x10005211c: CFA=reg31
  0x100052124: CFA=reg31+80: reg29=[CFA-16], reg30=[CFA-8]

00002860 0000002c 00002864 FDE cie=00000000 pc=10005215c...1000522a8
  Format:       DWARF32
  DW_CFA_advance_loc: 20
  DW_CFA_def_cfa_offset: +160
  DW_CFA_offset: reg30 -8
  DW_CFA_offset: reg29 -16
  DW_CFA_offset: reg19 -24
  DW_CFA_offset: reg20 -32
  DW_CFA_offset: reg21 -40
  DW_CFA_offset: reg22 -48
  DW_CFA_offset: reg23 -56
  DW_CFA_offset: reg24 -64
  DW_CFA_nop:
  DW_CFA_nop:
  DW_CFA_nop:

  0x10005215c: CFA=reg31
  0x100052170: CFA=reg31+160: reg19=[CFA-24], reg20=[CFA-32], reg21=[CFA-40], reg22=[CFA-48], reg23=[CFA-56], reg24=[CFA-64], reg29=[CFA-16], reg30=[CFA-8]

00002890 00000034 00002894 FDE cie=00000000 pc=1000522a8...1000524d0
  Format:       DWARF32
  DW_CFA_advance_loc: 24
  DW_CFA_def_cfa_offset: +176
  DW_CFA_offset: reg30 -8
  DW_CFA_offset: reg29 -16
  DW_CFA_offset: reg19 -24
  DW_CFA_offset: reg20 -32
  DW_CFA_offset: reg21 -40
  DW_CFA_offset: reg22 -48
  DW_CFA_offset: reg23 -56
  DW_CFA_offset: reg24 -64
  DW_CFA_offset: reg25 -72
  DW_CFA_offset: reg26 -80
  DW_CFA_nop:
  DW_CFA_nop:
  DW_CFA_nop:
  DW_CFA_nop:
  DW_CFA_nop:
  DW_CFA_nop:
  DW_CFA_nop:

  0x1000522a8: CFA=reg31
  0x1000522c0: CFA=reg31+176: reg19=[CFA-24], reg20=[CFA-32], reg21=[CFA-40], reg22=[CFA-48], reg23=[CFA-56], reg24=[CFA-64], reg25=[CFA-72], reg26=[CFA-80], reg29=[CFA-16], reg30=[CFA-8]

000028c8 0000001c 000028cc FDE cie=00000000 pc=1000524d0...100052504
  Format:       DWARF32
  DW_CFA_advance_loc: 8
  DW_CFA_def_cfa_offset: +64
  DW_CFA_offset: reg30 -8
  DW_CFA_offset: reg29 -16

  0x1000524d0: CFA=reg31
  0x1000524d8: CFA=reg31+64: reg29=[CFA-16], reg30=[CFA-8]

000028e8 00000034 000028ec FDE cie=00000000 pc=10005254c...1000529c4
  Format:       DWARF32
  DW_CFA_advance_loc: 28
  DW_CFA_def_cfa_offset: +160
  DW_CFA_offset: reg30 -8
  DW_CFA_offset: reg29 -16
  DW_CFA_offset: reg19 -24
  DW_CFA_offset: reg20 -32
  DW_CFA_offset: reg21 -40
  DW_CFA_offset: reg22 -48
  DW_CFA_offset: reg23 -56
  DW_CFA_offset: reg24 -64
  DW_CFA_offset: reg25 -72
  DW_CFA_offset: reg26 -80
  DW_CFA_offset: reg27 -88
  DW_CFA_offset: reg28 -96
  DW_CFA_nop:
  DW_CFA_nop:
  DW_CFA_nop:

  0x10005254c: CFA=reg31
  0x100052568: CFA=reg31+160: reg19=[CFA-24], reg20=[CFA-32], reg21=[CFA-40], reg22=[CFA-48], reg23=[CFA-56], reg24=[CFA-64], reg25=[CFA-72], reg26=[CFA-80], reg27=[CFA-88], reg28=[CFA-96], reg29=[CFA-16], reg30=[CFA-8]

00002920 0000001c 00002924 FDE cie=00000000 pc=1000529c4...100052ac4
  Format:       DWARF32
  DW_CFA_advance_loc: 8
  DW_CFA_def_cfa_offset: +32
  DW_CFA_offset: reg30 -8
  DW_CFA_offset: reg29 -16

  0x1000529c4: CFA=reg31
  0x1000529cc: CFA=reg31+32: reg29=[CFA-16], reg30=[CFA-8]

00002940 0000001c 00002944 FDE cie=00000000 pc=100408dcc...100408de4
  Format:       DWARF32
  DW_CFA_advance_loc: 4
  DW_CFA_def_cfa_offset: +16
  DW_CFA_offset: reg30 -8
  DW_CFA_offset: reg29 -16

  0x100408dcc: CFA=reg31
  0x100408dd0: CFA=reg31+16: reg29=[CFA-16], reg30=[CFA-8]

00002960 0000001c 00002964 FDE cie=00000000 pc=100408de4...100408e34
  Format:       DWARF32
  DW_CFA_advance_loc: 8
  DW_CFA_def_cfa_offset: +112
  DW_CFA_offset: reg30 -8
  DW_CFA_offset: reg29 -16

  0x100408de4: CFA=reg31
  0x100408dec: CFA=reg31+112: reg29=[CFA-16], reg30=[CFA-8]

00002980 0000001c 00002984 FDE cie=00000000 pc=100052d60...100052de8
  Format:       DWARF32
  DW_CFA_advance_loc: 8
  DW_CFA_def_cfa_offset: +112
  DW_CFA_offset: reg30 -8
  DW_CFA_offset: reg29 -16

  0x100052d60: CFA=reg31
  0x100052d68: CFA=reg31+112: reg29=[CFA-16], reg30=[CFA-8]

000029a0 0000001c 000029a4 FDE cie=00000000 pc=100052de8...100052e9c
  Format:       DWARF32
  DW_CFA_advance_loc: 8
  DW_CFA_def_cfa_offset: +64
  DW_CFA_offset: reg30 -8
  DW_CFA_offset: reg29 -16

  0x100052de8: CFA=reg31
  0x100052df0: CFA=reg31+64: reg29=[CFA-16], reg30=[CFA-8]

000029c0 0000001c 000029c4 FDE cie=00000000 pc=100408e34...100408e50
  Format:       DWARF32
  DW_CFA_advance_loc: 4
  DW_CFA_def_cfa_offset: +16
  DW_CFA_offset: reg30 -8
  DW_CFA_offset: reg29 -16

  0x100408e34: CFA=reg31
  0x100408e38: CFA=reg31+16: reg29=[CFA-16], reg30=[CFA-8]

000029e0 0000002c 000029e4 FDE cie=00000000 pc=100052e9c...100053398
  Format:       DWARF32
  DW_CFA_advance_loc: 20
  DW_CFA_def_cfa_offset: +80
  DW_CFA_offset: reg30 -8
  DW_CFA_offset: reg29 -16
  DW_CFA_offset: reg19 -24
  DW_CFA_offset: reg20 -32
  DW_CFA_offset: reg21 -40
  DW_CFA_offset: reg22 -48
  DW_CFA_offset: reg23 -56
  DW_CFA_offset: reg24 -64
  DW_CFA_offset: reg25 -72
  DW_CFA_offset: reg26 -80

  0x100052e9c: CFA=reg31
  0x100052eb0: CFA=reg31+80: reg19=[CFA-24], reg20=[CFA-32], reg21=[CFA-40], reg22=[CFA-48], reg23=[CFA-56], reg24=[CFA-64], reg25=[CFA-72], reg26=[CFA-80], reg29=[CFA-16], reg30=[CFA-8]

00002a10 0000001c 00002a14 FDE cie=00000000 pc=100053398...1000537a0
  Format:       DWARF32
  DW_CFA_advance_loc: 4
  DW_CFA_def_cfa_offset: +16
  DW_CFA_offset: reg30 -8
  DW_CFA_offset: reg29 -16

  0x100053398: CFA=reg31
  0x10005339c: CFA=reg31+16: reg29=[CFA-16], reg30=[CFA-8]

00002a30 0000002c 00002a34 FDE cie=00000000 pc=1000537a0...1000538a4
  Format:       DWARF32
  DW_CFA_advance_loc: 20
  DW_CFA_def_cfa_offset: +112
  DW_CFA_offset: reg30 -8
  DW_CFA_offset: reg29 -16
  DW_CFA_offset: reg19 -24
  DW_CFA_offset: reg20 -32
  DW_CFA_offset: reg21 -40
  DW_CFA_offset: reg22 -48
  DW_CFA_offset: reg23 -56
  DW_CFA_offset: reg24 -64
  DW_CFA_nop:
  DW_CFA_nop:
  DW_CFA_nop:
  DW_CFA_nop:

  0x1000537a0: CFA=reg31
  0x1000537b4: CFA=reg31+112: reg19=[CFA-24], reg20=[CFA-32], reg21=[CFA-40], reg22=[CFA-48], reg23=[CFA-56], reg24=[CFA-64], reg29=[CFA-16], reg30=[CFA-8]

00002a60 00000024 00002a64 FDE cie=00000000 pc=1000538a4...100053938
  Format:       DWARF32
  DW_CFA_advance_loc: 8
  DW_CFA_def_cfa_offset: +144
  DW_CFA_offset: reg30 -8
  DW_CFA_offset: reg29 -16
  DW_CFA_nop:
  DW_CFA_nop:
  DW_CFA_nop:
  DW_CFA_nop:
  DW_CFA_nop:
  DW_CFA_nop:
  DW_CFA_nop:

  0x1000538a4: CFA=reg31
  0x1000538ac: CFA=reg31+144: reg29=[CFA-16], reg30=[CFA-8]

00002a88 00000024 00002a8c FDE cie=00000000 pc=100053938...100053ab8
  Format:       DWARF32
  DW_CFA_advance_loc: 12
  DW_CFA_def_cfa_offset: +80
  DW_CFA_offset: reg30 -8
  DW_CFA_offset: reg29 -16
  DW_CFA_offset: reg19 -24
  DW_CFA_offset: reg20 -32
  DW_CFA_nop:
  DW_CFA_nop:
  DW_CFA_nop:
  DW_CFA_nop:

  0x100053938: CFA=reg31
  0x100053944: CFA=reg31+80: reg19=[CFA-24], reg20=[CFA-32], reg29=[CFA-16], reg30=[CFA-8]

00002ab0 00000024 00002ab4 FDE cie=00000000 pc=100053ab8...100053c8c
  Format:       DWARF32
  DW_CFA_advance_loc: 8
  DW_CFA_def_cfa_offset: +160
  DW_CFA_offset: reg30 -8
  DW_CFA_offset: reg29 -16
  DW_CFA_nop:
  DW_CFA_nop:
  DW_CFA_nop:
  DW_CFA_nop:
  DW_CFA_nop:
  DW_CFA_nop:
  DW_CFA_nop:

  0x100053ab8: CFA=reg31
  0x100053ac0: CFA=reg31+160: reg29=[CFA-16], reg30=[CFA-8]

00002ad8 0000002c 00002adc FDE cie=00000000 pc=100053c8c...100053d68
  Format:       DWARF32
  DW_CFA_advance_loc: 16
  DW_CFA_def_cfa_offset: +176
  DW_CFA_offset: reg30 -8
  DW_CFA_offset: reg29 -16
  DW_CFA_offset: reg19 -24
  DW_CFA_offset: reg20 -32
  DW_CFA_offset: reg21 -40
  DW_CFA_offset: reg22 -48
  DW_CFA_nop:
  DW_CFA_nop:
  DW_CFA_nop:
  DW_CFA_nop:
  DW_CFA_nop:
  DW_CFA_nop:
  DW_CFA_nop:

  0x100053c8c: CFA=reg31
  0x100053c9c: CFA=reg31+176: reg19=[CFA-24], reg20=[CFA-32], reg21=[CFA-40], reg22=[CFA-48], reg29=[CFA-16], reg30=[CFA-8]

00002b08 0000002c 00002b0c FDE cie=00000000 pc=100053d68...100053e44
  Format:       DWARF32
  DW_CFA_advance_loc: 16
  DW_CFA_def_cfa_offset: +176
  DW_CFA_offset: reg30 -8
  DW_CFA_offset: reg29 -16
  DW_CFA_offset: reg19 -24
  DW_CFA_offset: reg20 -32
  DW_CFA_offset: reg21 -40
  DW_CFA_offset: reg22 -48
  DW_CFA_nop:
  DW_CFA_nop:
  DW_CFA_nop:
  DW_CFA_nop:
  DW_CFA_nop:
  DW_CFA_nop:
  DW_CFA_nop:

  0x100053d68: CFA=reg31
  0x100053d78: CFA=reg31+176: reg19=[CFA-24], reg20=[CFA-32], reg21=[CFA-40], reg22=[CFA-48], reg29=[CFA-16], reg30=[CFA-8]

00002b38 00000034 00002b3c FDE cie=00000000 pc=100053e44...100054160
  Format:       DWARF32
  DW_CFA_advance_loc: 28
  DW_CFA_def_cfa_offset: +112
  DW_CFA_offset: reg30 -8
  DW_CFA_offset: reg29 -16
  DW_CFA_offset: reg19 -24
  DW_CFA_offset: reg20 -32
  DW_CFA_offset: reg21 -40
  DW_CFA_offset: reg22 -48
  DW_CFA_offset: reg23 -56
  DW_CFA_offset: reg24 -64
  DW_CFA_offset: reg25 -72
  DW_CFA_offset: reg26 -80
  DW_CFA_offset: reg27 -88
  DW_CFA_offset: reg28 -96
  DW_CFA_nop:
  DW_CFA_nop:
  DW_CFA_nop:
  DW_CFA_nop:

  0x100053e44: CFA=reg31
  0x100053e60: CFA=reg31+112: reg19=[CFA-24], reg20=[CFA-32], reg21=[CFA-40], reg22=[CFA-48], reg23=[CFA-56], reg24=[CFA-64], reg25=[CFA-72], reg26=[CFA-80], reg27=[CFA-88], reg28=[CFA-96], reg29=[CFA-16], reg30=[CFA-8]

00002b70 00000024 00002b74 FDE cie=00000000 pc=100054160...1000541f4
  Format:       DWARF32
  DW_CFA_advance_loc: 8
  DW_CFA_def_cfa_offset: +144
  DW_CFA_offset: reg30 -8
  DW_CFA_offset: reg29 -16
  DW_CFA_nop:
  DW_CFA_nop:
  DW_CFA_nop:
  DW_CFA_nop:
  DW_CFA_nop:
  DW_CFA_nop:
  DW_CFA_nop:

  0x100054160: CFA=reg31
  0x100054168: CFA=reg31+144: reg29=[CFA-16], reg30=[CFA-8]

00002b98 00000024 00002b9c FDE cie=00000000 pc=1000541f4...100054384
  Format:       DWARF32
  DW_CFA_advance_loc: 8
  DW_CFA_def_cfa_offset: +144
  DW_CFA_offset: reg30 -8
  DW_CFA_offset: reg29 -16
  DW_CFA_nop:
  DW_CFA_nop:
  DW_CFA_nop:
  DW_CFA_nop:
  DW_CFA_nop:
  DW_CFA_nop:
  DW_CFA_nop:

  0x1000541f4: CFA=reg31
  0x1000541fc: CFA=reg31+144: reg29=[CFA-16], reg30=[CFA-8]

00002bc0 00000024 00002bc4 FDE cie=00000000 pc=10005438c...100054468
  Format:       DWARF32
  DW_CFA_advance_loc: 12
  DW_CFA_def_cfa_offset: +64
  DW_CFA_offset: reg30 -8
  DW_CFA_offset: reg29 -16
  DW_CFA_offset: reg19 -24
  DW_CFA_offset: reg20 -32
  DW_CFA_nop:
  DW_CFA_nop:
  DW_CFA_nop:
  DW_CFA_nop:

  0x10005438c: CFA=reg31
  0x100054398: CFA=reg31+64: reg19=[CFA-24], reg20=[CFA-32], reg29=[CFA-16], reg30=[CFA-8]

00002be8 00000024 00002bec FDE cie=00000000 pc=100054468...100054530
  Format:       DWARF32
  DW_CFA_advance_loc: 12
  DW_CFA_def_cfa_offset: +64
  DW_CFA_offset: reg30 -8
  DW_CFA_offset: reg29 -16
  DW_CFA_offset: reg19 -24
  DW_CFA_offset: reg20 -32
  DW_CFA_nop:
  DW_CFA_nop:
  DW_CFA_nop:
  DW_CFA_nop:

  0x100054468: CFA=reg31
  0x100054474: CFA=reg31+64: reg19=[CFA-24], reg20=[CFA-32], reg29=[CFA-16], reg30=[CFA-8]

00002c10 00000024 00002c14 FDE cie=00000000 pc=1000545c8...1000546a4
  Format:       DWARF32
  DW_CFA_advance_loc: 12
  DW_CFA_def_cfa_offset: +64
  DW_CFA_offset: reg30 -8
  DW_CFA_offset: reg29 -16
  DW_CFA_offset: reg19 -24
  DW_CFA_offset: reg20 -32
  DW_CFA_nop:
  DW_CFA_nop:
  DW_CFA_nop:
  DW_CFA_nop:

  0x1000545c8: CFA=reg31
  0x1000545d4: CFA=reg31+64: reg19=[CFA-24], reg20=[CFA-32], reg29=[CFA-16], reg30=[CFA-8]

00002c38 0000002c 00002c3c FDE cie=00000000 pc=1000546a4...1000548cc
  Format:       DWARF32
  DW_CFA_advance_loc: 24
  DW_CFA_def_cfa_offset: +112
  DW_CFA_offset: reg30 -8
  DW_CFA_offset: reg29 -16
  DW_CFA_offset: reg19 -24
  DW_CFA_offset: reg20 -32
  DW_CFA_offset: reg21 -40
  DW_CFA_offset: reg22 -48
  DW_CFA_offset: reg23 -56
  DW_CFA_offset: reg24 -64
  DW_CFA_offset: reg25 -72
  DW_CFA_offset: reg26 -80

  0x1000546a4: CFA=reg31
  0x1000546bc: CFA=reg31+112: reg19=[CFA-24], reg20=[CFA-32], reg21=[CFA-40], reg22=[CFA-48], reg23=[CFA-56], reg24=[CFA-64], reg25=[CFA-72], reg26=[CFA-80], reg29=[CFA-16], reg30=[CFA-8]

00002c68 00000034 00002c6c FDE cie=00000000 pc=1000548cc...100054adc
  Format:       DWARF32
  DW_CFA_advance_loc: 28
  DW_CFA_def_cfa_offset: +112
  DW_CFA_offset: reg30 -8
  DW_CFA_offset: reg29 -16
  DW_CFA_offset: reg19 -24
  DW_CFA_offset: reg20 -32
  DW_CFA_offset: reg21 -40
  DW_CFA_offset: reg22 -48
  DW_CFA_offset: reg23 -56
  DW_CFA_offset: reg24 -64
  DW_CFA_offset: reg25 -72
  DW_CFA_offset: reg26 -80
  DW_CFA_offset: reg27 -88
  DW_CFA_offset: reg28 -96
  DW_CFA_nop:
  DW_CFA_nop:
  DW_CFA_nop:
  DW_CFA_nop:

  0x1000548cc: CFA=reg31
  0x1000548e8: CFA=reg31+112: reg19=[CFA-24], reg20=[CFA-32], reg21=[CFA-40], reg22=[CFA-48], reg23=[CFA-56], reg24=[CFA-64], reg25=[CFA-72], reg26=[CFA-80], reg27=[CFA-88], reg28=[CFA-96], reg29=[CFA-16], reg30=[CFA-8]

00002ca0 00000034 00002ca4 FDE cie=00000000 pc=100054adc...100055f08
  Format:       DWARF32
  DW_CFA_advance_loc: 28
  DW_CFA_def_cfa_offset: +2064
  DW_CFA_offset: reg30 -8
  DW_CFA_offset: reg29 -16
  DW_CFA_offset: reg19 -24
  DW_CFA_offset: reg20 -32
  DW_CFA_offset: reg21 -40
  DW_CFA_offset: reg22 -48
  DW_CFA_offset: reg23 -56
  DW_CFA_offset: reg24 -64
  DW_CFA_offset: reg25 -72
  DW_CFA_offset: reg26 -80
  DW_CFA_offset: reg27 -88
  DW_CFA_offset: reg28 -96
  DW_CFA_nop:
  DW_CFA_nop:
  DW_CFA_nop:

  0x100054adc: CFA=reg31
  0x100054af8: CFA=reg31+2064: reg19=[CFA-24], reg20=[CFA-32], reg21=[CFA-40], reg22=[CFA-48], reg23=[CFA-56], reg24=[CFA-64], reg25=[CFA-72], reg26=[CFA-80], reg27=[CFA-88], reg28=[CFA-96], reg29=[CFA-16], reg30=[CFA-8]

00002cd8 00000034 00002cdc FDE cie=00000000 pc=100055f08...1000576a4
  Format:       DWARF32
  DW_CFA_advance_loc: 28
  DW_CFA_def_cfa_offset: +1584
  DW_CFA_offset: reg30 -8
  DW_CFA_offset: reg29 -16
  DW_CFA_offset: reg19 -24
  DW_CFA_offset: reg20 -32
  DW_CFA_offset: reg21 -40
  DW_CFA_offset: reg22 -48
  DW_CFA_offset: reg23 -56
  DW_CFA_offset: reg24 -64
  DW_CFA_offset: reg25 -72
  DW_CFA_offset: reg26 -80
  DW_CFA_offset: reg27 -88
  DW_CFA_offset: reg28 -96
  DW_CFA_nop:
  DW_CFA_nop:
  DW_CFA_nop:

  0x100055f08: CFA=reg31
  0x100055f24: CFA=reg31+1584: reg19=[CFA-24], reg20=[CFA-32], reg21=[CFA-40], reg22=[CFA-48], reg23=[CFA-56], reg24=[CFA-64], reg25=[CFA-72], reg26=[CFA-80], reg27=[CFA-88], reg28=[CFA-96], reg29=[CFA-16], reg30=[CFA-8]

00002d10 00000024 00002d14 FDE cie=00000000 pc=1000576d4...100057758
  Format:       DWARF32
  DW_CFA_advance_loc: 8
  DW_CFA_def_cfa_offset: +144
  DW_CFA_offset: reg30 -8
  DW_CFA_offset: reg29 -16
  DW_CFA_nop:
  DW_CFA_nop:
  DW_CFA_nop:
  DW_CFA_nop:
  DW_CFA_nop:
  DW_CFA_nop:
  DW_CFA_nop:

  0x1000576d4: CFA=reg31
  0x1000576dc: CFA=reg31+144: reg29=[CFA-16], reg30=[CFA-8]

00002d38 00000024 00002d3c FDE cie=00000000 pc=100057758...1000577ec
  Format:       DWARF32
  DW_CFA_advance_loc: 8
  DW_CFA_def_cfa_offset: +144
  DW_CFA_offset: reg30 -8
  DW_CFA_offset: reg29 -16
  DW_CFA_nop:
  DW_CFA_nop:
  DW_CFA_nop:
  DW_CFA_nop:
  DW_CFA_nop:
  DW_CFA_nop:
  DW_CFA_nop:

  0x100057758: CFA=reg31
  0x100057760: CFA=reg31+144: reg29=[CFA-16], reg30=[CFA-8]

00002d60 00000024 00002d64 FDE cie=00000000 pc=1000577ec...100057870
  Format:       DWARF32
  DW_CFA_advance_loc: 8
  DW_CFA_def_cfa_offset: +144
  DW_CFA_offset: reg30 -8
  DW_CFA_offset: reg29 -16
  DW_CFA_nop:
  DW_CFA_nop:
  DW_CFA_nop:
  DW_CFA_nop:
  DW_CFA_nop:
  DW_CFA_nop:
  DW_CFA_nop:

  0x1000577ec: CFA=reg31
  0x1000577f4: CFA=reg31+144: reg29=[CFA-16], reg30=[CFA-8]

00002d88 00000024 00002d8c FDE cie=00000000 pc=100057870...1000578f4
  Format:       DWARF32
  DW_CFA_advance_loc: 8
  DW_CFA_def_cfa_offset: +144
  DW_CFA_offset: reg30 -8
  DW_CFA_offset: reg29 -16
  DW_CFA_nop:
  DW_CFA_nop:
  DW_CFA_nop:
  DW_CFA_nop:
  DW_CFA_nop:
  DW_CFA_nop:
  DW_CFA_nop:

  0x100057870: CFA=reg31
  0x100057878: CFA=reg31+144: reg29=[CFA-16], reg30=[CFA-8]

00002db0 00000024 00002db4 FDE cie=00000000 pc=1000578f4...100057988
  Format:       DWARF32
  DW_CFA_advance_loc: 8
  DW_CFA_def_cfa_offset: +144
  DW_CFA_offset: reg30 -8
  DW_CFA_offset: reg29 -16
  DW_CFA_nop:
  DW_CFA_nop:
  DW_CFA_nop:
  DW_CFA_nop:
  DW_CFA_nop:
  DW_CFA_nop:
  DW_CFA_nop:

  0x1000578f4: CFA=reg31
  0x1000578fc: CFA=reg31+144: reg29=[CFA-16], reg30=[CFA-8]

00002dd8 00000024 00002ddc FDE cie=00000000 pc=100057988...100057a1c
  Format:       DWARF32
  DW_CFA_advance_loc: 8
  DW_CFA_def_cfa_offset: +144
  DW_CFA_offset: reg30 -8
  DW_CFA_offset: reg29 -16
  DW_CFA_nop:
  DW_CFA_nop:
  DW_CFA_nop:
  DW_CFA_nop:
  DW_CFA_nop:
  DW_CFA_nop:
  DW_CFA_nop:

  0x100057988: CFA=reg31
  0x100057990: CFA=reg31+144: reg29=[CFA-16], reg30=[CFA-8]

00002e00 0000001c 00002e04 FDE cie=00000000 pc=100057a1c...100057b7c
  Format:       DWARF32
  DW_CFA_advance_loc: 8
  DW_CFA_def_cfa_offset: +64
  DW_CFA_offset: reg30 -8
  DW_CFA_offset: reg29 -16

  0x100057a1c: CFA=reg31
  0x100057a24: CFA=reg31+64: reg29=[CFA-16], reg30=[CFA-8]

00002e20 0000001c 00002e24 FDE cie=00000000 pc=100057b7c...100057cdc
  Format:       DWARF32
  DW_CFA_advance_loc: 8
  DW_CFA_def_cfa_offset: +64
  DW_CFA_offset: reg30 -8
  DW_CFA_offset: reg29 -16

  0x100057b7c: CFA=reg31
  0x100057b84: CFA=reg31+64: reg29=[CFA-16], reg30=[CFA-8]

00002e40 0000001c 00002e44 FDE cie=00000000 pc=100057cdc...100057e20
  Format:       DWARF32
  DW_CFA_advance_loc: 8
  DW_CFA_def_cfa_offset: +64
  DW_CFA_offset: reg30 -8
  DW_CFA_offset: reg29 -16

  0x100057cdc: CFA=reg31
  0x100057ce4: CFA=reg31+64: reg29=[CFA-16], reg30=[CFA-8]

00002e60 0000001c 00002e64 FDE cie=00000000 pc=100057e20...100057f7c
  Format:       DWARF32
  DW_CFA_advance_loc: 8
  DW_CFA_def_cfa_offset: +64
  DW_CFA_offset: reg30 -8
  DW_CFA_offset: reg29 -16

  0x100057e20: CFA=reg31
  0x100057e28: CFA=reg31+64: reg29=[CFA-16], reg30=[CFA-8]

00002e80 0000001c 00002e84 FDE cie=00000000 pc=100057f7c...1000580d0
  Format:       DWARF32
  DW_CFA_advance_loc: 8
  DW_CFA_def_cfa_offset: +64
  DW_CFA_offset: reg30 -8
  DW_CFA_offset: reg29 -16

  0x100057f7c: CFA=reg31
  0x100057f84: CFA=reg31+64: reg29=[CFA-16], reg30=[CFA-8]

00002ea0 00000024 00002ea4 FDE cie=00000000 pc=1000580e8...1000581e0
  Format:       DWARF32
  DW_CFA_advance_loc: 16
  DW_CFA_def_cfa_offset: +80
  DW_CFA_offset: reg30 -8
  DW_CFA_offset: reg29 -16
  DW_CFA_offset: reg19 -24
  DW_CFA_offset: reg20 -32
  DW_CFA_offset: reg21 -40
  DW_CFA_offset: reg22 -48

  0x1000580e8: CFA=reg31
  0x1000580f8: CFA=reg31+80: reg19=[CFA-24], reg20=[CFA-32], reg21=[CFA-40], reg22=[CFA-48], reg29=[CFA-16], reg30=[CFA-8]

00002ec8 00000024 00002ecc FDE cie=00000000 pc=1000581e0...1000582f0
  Format:       DWARF32
  DW_CFA_advance_loc: 12
  DW_CFA_def_cfa_offset: +64
  DW_CFA_offset: reg30 -8
  DW_CFA_offset: reg29 -16
  DW_CFA_offset: reg19 -24
  DW_CFA_offset: reg20 -32
  DW_CFA_nop:
  DW_CFA_nop:
  DW_CFA_nop:
  DW_CFA_nop:

  0x1000581e0: CFA=reg31
  0x1000581ec: CFA=reg31+64: reg19=[CFA-24], reg20=[CFA-32], reg29=[CFA-16], reg30=[CFA-8]

00002ef0 0000001c 00002ef4 FDE cie=00000000 pc=1000582f0...100058424
  Format:       DWARF32
  DW_CFA_advance_loc: 4
  DW_CFA_def_cfa_offset: +16
  DW_CFA_offset: reg30 -8
  DW_CFA_offset: reg29 -16

  0x1000582f0: CFA=reg31
  0x1000582f4: CFA=reg31+16: reg29=[CFA-16], reg30=[CFA-8]

00002f10 0000001c 00002f14 FDE cie=00000000 pc=100058424...100058558
  Format:       DWARF32
  DW_CFA_advance_loc: 4
  DW_CFA_def_cfa_offset: +16
  DW_CFA_offset: reg30 -8
  DW_CFA_offset: reg29 -16

  0x100058424: CFA=reg31
  0x100058428: CFA=reg31+16: reg29=[CFA-16], reg30=[CFA-8]

00002f30 0000001c 00002f34 FDE cie=00000000 pc=100058558...10005868c
  Format:       DWARF32
  DW_CFA_advance_loc: 4
  DW_CFA_def_cfa_offset: +16
  DW_CFA_offset: reg30 -8
  DW_CFA_offset: reg29 -16

  0x100058558: CFA=reg31
  0x10005855c: CFA=reg31+16: reg29=[CFA-16], reg30=[CFA-8]

00002f50 0000001c 00002f54 FDE cie=00000000 pc=10005868c...1000587c0
  Format:       DWARF32
  DW_CFA_advance_loc: 4
  DW_CFA_def_cfa_offset: +16
  DW_CFA_offset: reg30 -8
  DW_CFA_offset: reg29 -16

  0x10005868c: CFA=reg31
  0x100058690: CFA=reg31+16: reg29=[CFA-16], reg30=[CFA-8]

00002f70 0000001c 00002f74 FDE cie=00000000 pc=1000587c0...1000588f4
  Format:       DWARF32
  DW_CFA_advance_loc: 4
  DW_CFA_def_cfa_offset: +16
  DW_CFA_offset: reg30 -8
  DW_CFA_offset: reg29 -16

  0x1000587c0: CFA=reg31
  0x1000587c4: CFA=reg31+16: reg29=[CFA-16], reg30=[CFA-8]

00002f90 0000001c 00002f94 FDE cie=00000000 pc=1000588f4...10005891c
  Format:       DWARF32
  DW_CFA_advance_loc: 8
  DW_CFA_def_cfa_offset: +32
  DW_CFA_offset: reg30 -8
  DW_CFA_offset: reg29 -16

  0x1000588f4: CFA=reg31
  0x1000588fc: CFA=reg31+32: reg29=[CFA-16], reg30=[CFA-8]

00002fb0 00000024 00002fb4 FDE cie=00000000 pc=10005891c...1000589e4
  Format:       DWARF32
  DW_CFA_advance_loc: 12
  DW_CFA_def_cfa_offset: +64
  DW_CFA_offset: reg30 -8
  DW_CFA_offset: reg29 -16
  DW_CFA_offset: reg19 -24
  DW_CFA_offset: reg20 -32
  DW_CFA_nop:
  DW_CFA_nop:
  DW_CFA_nop:
  DW_CFA_nop:

  0x10005891c: CFA=reg31
  0x100058928: CFA=reg31+64: reg19=[CFA-24], reg20=[CFA-32], reg29=[CFA-16], reg30=[CFA-8]

00002fd8 0000001c 00002fdc FDE cie=00000000 pc=100408e50...100408e7c
  Format:       DWARF32
  DW_CFA_advance_loc: 8
  DW_CFA_def_cfa_offset: +48
  DW_CFA_offset: reg30 -8
  DW_CFA_offset: reg29 -16

  0x100408e50: CFA=reg31
  0x100408e58: CFA=reg31+48: reg29=[CFA-16], reg30=[CFA-8]

00002ff8 0000001c 00002ffc FDE cie=00000000 pc=1000589e4...100058a04
  Format:       DWARF32
  DW_CFA_advance_loc: 8
  DW_CFA_def_cfa_offset: +48
  DW_CFA_offset: reg30 -8
  DW_CFA_offset: reg29 -16

  0x1000589e4: CFA=reg31
  0x1000589ec: CFA=reg31+48: reg29=[CFA-16], reg30=[CFA-8]

00003018 0000001c 0000301c FDE cie=00000000 pc=100058a04...100058a2c
  Format:       DWARF32
  DW_CFA_advance_loc: 8
  DW_CFA_def_cfa_offset: +32
  DW_CFA_offset: reg30 -8
  DW_CFA_offset: reg29 -16

  0x100058a04: CFA=reg31
  0x100058a0c: CFA=reg31+32: reg29=[CFA-16], reg30=[CFA-8]

00003038 00000024 0000303c FDE cie=00000000 pc=100058a2c...100058a74
  Format:       DWARF32
  DW_CFA_advance_loc: 8
  DW_CFA_def_cfa_offset: +32
  DW_CFA_offset: reg30 -8
  DW_CFA_offset: reg29 -16
  DW_CFA_offset: reg19 -24
  DW_CFA_offset: reg20 -32
  DW_CFA_nop:
  DW_CFA_nop:
  DW_CFA_nop:
  DW_CFA_nop:

  0x100058a2c: CFA=reg31
  0x100058a34: CFA=reg31+32: reg19=[CFA-24], reg20=[CFA-32], reg29=[CFA-16], reg30=[CFA-8]

00003060 0000001c 00003064 FDE cie=00000000 pc=100058a74...100058a94
  Format:       DWARF32
  DW_CFA_advance_loc: 4
  DW_CFA_def_cfa_offset: +16
  DW_CFA_offset: reg30 -8
  DW_CFA_offset: reg29 -16

  0x100058a74: CFA=reg31
  0x100058a78: CFA=reg31+16: reg29=[CFA-16], reg30=[CFA-8]

00003080 0000001c 00003084 FDE cie=00000000 pc=100408e7c...100408ebc
  Format:       DWARF32
  DW_CFA_advance_loc: 8
  DW_CFA_def_cfa_offset: +80
  DW_CFA_offset: reg30 -8
  DW_CFA_offset: reg29 -16

  0x100408e7c: CFA=reg31
  0x100408e84: CFA=reg31+80: reg29=[CFA-16], reg30=[CFA-8]

000030a0 00000024 000030a4 FDE cie=00000000 pc=100058a94...100058cd4
  Format:       DWARF32
  DW_CFA_advance_loc: 8
  DW_CFA_def_cfa_offset: +144
  DW_CFA_offset: reg30 -8
  DW_CFA_offset: reg29 -16
  DW_CFA_nop:
  DW_CFA_nop:
  DW_CFA_nop:
  DW_CFA_nop:
  DW_CFA_nop:
  DW_CFA_nop:
  DW_CFA_nop:

  0x100058a94: CFA=reg31
  0x100058a9c: CFA=reg31+144: reg29=[CFA-16], reg30=[CFA-8]

000030c8 0000001c 000030cc FDE cie=00000000 pc=100058cd4...100058d38
  Format:       DWARF32
  DW_CFA_advance_loc: 8
  DW_CFA_def_cfa_offset: +80
  DW_CFA_offset: reg30 -8
  DW_CFA_offset: reg29 -16

  0x100058cd4: CFA=reg31
  0x100058cdc: CFA=reg31+80: reg29=[CFA-16], reg30=[CFA-8]

000030e8 0000001c 000030ec FDE cie=00000000 pc=100058d38...100058d9c
  Format:       DWARF32
  DW_CFA_advance_loc: 8
  DW_CFA_def_cfa_offset: +80
  DW_CFA_offset: reg30 -8
  DW_CFA_offset: reg29 -16

  0x100058d38: CFA=reg31
  0x100058d40: CFA=reg31+80: reg29=[CFA-16], reg30=[CFA-8]

00003108 0000001c 0000310c FDE cie=00000000 pc=100408ebc...100408f08
  Format:       DWARF32
  DW_CFA_advance_loc: 8
  DW_CFA_def_cfa_offset: +80
  DW_CFA_offset: reg30 -8
  DW_CFA_offset: reg29 -16

  0x100408ebc: CFA=reg31
  0x100408ec4: CFA=reg31+80: reg29=[CFA-16], reg30=[CFA-8]

00003128 0000002c 0000312c FDE cie=00000000 pc=100058d9c...100058ef8
  Format:       DWARF32
  DW_CFA_advance_loc: 16
  DW_CFA_def_cfa_offset: +192
  DW_CFA_offset: reg30 -8
  DW_CFA_offset: reg29 -16
  DW_CFA_offset: reg19 -24
  DW_CFA_offset: reg20 -32
  DW_CFA_offset: reg21 -40
  DW_CFA_offset: reg22 -48
  DW_CFA_nop:
  DW_CFA_nop:
  DW_CFA_nop:
  DW_CFA_nop:
  DW_CFA_nop:
  DW_CFA_nop:
  DW_CFA_nop:

  0x100058d9c: CFA=reg31
  0x100058dac: CFA=reg31+192: reg19=[CFA-24], reg20=[CFA-32], reg21=[CFA-40], reg22=[CFA-48], reg29=[CFA-16], reg30=[CFA-8]

00003158 00000024 0000315c FDE cie=00000000 pc=100058f1c...1000590a8
  Format:       DWARF32
  DW_CFA_advance_loc: 16
  DW_CFA_def_cfa_offset: +112
  DW_CFA_offset: reg30 -8
  DW_CFA_offset: reg29 -16
  DW_CFA_offset: reg19 -24
  DW_CFA_offset: reg20 -32
  DW_CFA_offset: reg21 -40
  DW_CFA_offset: reg22 -48

  0x100058f1c: CFA=reg31
  0x100058f2c: CFA=reg31+112: reg19=[CFA-24], reg20=[CFA-32], reg21=[CFA-40], reg22=[CFA-48], reg29=[CFA-16], reg30=[CFA-8]

00003180 00000024 00003184 FDE cie=00000000 pc=1000590a8...1000591a4
  Format:       DWARF32
  DW_CFA_advance_loc: 12
  DW_CFA_def_cfa_offset: +64
  DW_CFA_offset: reg30 -8
  DW_CFA_offset: reg29 -16
  DW_CFA_offset: reg19 -24
  DW_CFA_offset: reg20 -32
  DW_CFA_nop:
  DW_CFA_nop:
  DW_CFA_nop:
  DW_CFA_nop:

  0x1000590a8: CFA=reg31
  0x1000590b4: CFA=reg31+64: reg19=[CFA-24], reg20=[CFA-32], reg29=[CFA-16], reg30=[CFA-8]

000031a8 00000024 000031ac FDE cie=00000000 pc=1000591a4...1000593d0
  Format:       DWARF32
  DW_CFA_advance_loc: 8
  DW_CFA_def_cfa_offset: +144
  DW_CFA_offset: reg30 -8
  DW_CFA_offset: reg29 -16
  DW_CFA_nop:
  DW_CFA_nop:
  DW_CFA_nop:
  DW_CFA_nop:
  DW_CFA_nop:
  DW_CFA_nop:
  DW_CFA_nop:

  0x1000591a4: CFA=reg31
  0x1000591ac: CFA=reg31+144: reg29=[CFA-16], reg30=[CFA-8]

000031d0 00000024 000031d4 FDE cie=00000000 pc=10005ad7c...10005ae90
  Format:       DWARF32
  DW_CFA_advance_loc: 12
  DW_CFA_def_cfa_offset: +64
  DW_CFA_offset: reg30 -8
  DW_CFA_offset: reg29 -16
  DW_CFA_offset: reg19 -24
  DW_CFA_offset: reg20 -32
  DW_CFA_nop:
  DW_CFA_nop:
  DW_CFA_nop:
  DW_CFA_nop:

  0x10005ad7c: CFA=reg31
  0x10005ad88: CFA=reg31+64: reg19=[CFA-24], reg20=[CFA-32], reg29=[CFA-16], reg30=[CFA-8]

000031f8 0000001c 000031fc FDE cie=00000000 pc=10005b024...10005b0e8
  Format:       DWARF32
  DW_CFA_advance_loc: 8
  DW_CFA_def_cfa_offset: +32
  DW_CFA_offset: reg30 -8
  DW_CFA_offset: reg29 -16

  0x10005b024: CFA=reg31
  0x10005b02c: CFA=reg31+32: reg29=[CFA-16], reg30=[CFA-8]

00003218 0000001c 0000321c FDE cie=00000000 pc=10005b0e8...10005b124
  Format:       DWARF32
  DW_CFA_advance_loc: 8
  DW_CFA_def_cfa_offset: +80
  DW_CFA_offset: reg30 -8
  DW_CFA_offset: reg29 -16

  0x10005b0e8: CFA=reg31
  0x10005b0f0: CFA=reg31+80: reg29=[CFA-16], reg30=[CFA-8]

00003238 0000001c 0000323c FDE cie=00000000 pc=10005b12c...10005b16c
  Format:       DWARF32
  DW_CFA_advance_loc: 8
  DW_CFA_def_cfa_offset: +80
  DW_CFA_offset: reg30 -8
  DW_CFA_offset: reg29 -16

  0x10005b12c: CFA=reg31
  0x10005b134: CFA=reg31+80: reg29=[CFA-16], reg30=[CFA-8]

00003258 00000034 0000325c FDE cie=00000000 pc=10005b180...10005b600
  Format:       DWARF32
  DW_CFA_advance_loc: 28
  DW_CFA_def_cfa_offset: +128
  DW_CFA_offset: reg30 -8
  DW_CFA_offset: reg29 -16
  DW_CFA_offset: reg19 -24
  DW_CFA_offset: reg20 -32
  DW_CFA_offset: reg21 -40
  DW_CFA_offset: reg22 -48
  DW_CFA_offset: reg23 -56
  DW_CFA_offset: reg24 -64
  DW_CFA_offset: reg25 -72
  DW_CFA_offset: reg26 -80
  DW_CFA_offset: reg27 -88
  DW_CFA_offset: reg28 -96
  DW_CFA_nop:
  DW_CFA_nop:
  DW_CFA_nop:

  0x10005b180: CFA=reg31
  0x10005b19c: CFA=reg31+128: reg19=[CFA-24], reg20=[CFA-32], reg21=[CFA-40], reg22=[CFA-48], reg23=[CFA-56], reg24=[CFA-64], reg25=[CFA-72], reg26=[CFA-80], reg27=[CFA-88], reg28=[CFA-96], reg29=[CFA-16], reg30=[CFA-8]

00003290 00000024 00003294 FDE cie=00000000 pc=10005b600...10005b950
  Format:       DWARF32
  DW_CFA_advance_loc: 16
  DW_CFA_def_cfa_offset: +112
  DW_CFA_offset: reg30 -8
  DW_CFA_offset: reg29 -16
  DW_CFA_offset: reg19 -24
  DW_CFA_offset: reg20 -32
  DW_CFA_offset: reg21 -40
  DW_CFA_offset: reg22 -48

  0x10005b600: CFA=reg31
  0x10005b610: CFA=reg31+112: reg19=[CFA-24], reg20=[CFA-32], reg21=[CFA-40], reg22=[CFA-48], reg29=[CFA-16], reg30=[CFA-8]

000032b8 00000034 000032bc FDE cie=00000000 pc=10005bab8...10005cfb8
  Format:       DWARF32
  DW_CFA_advance_loc: 28
  DW_CFA_def_cfa_offset: +960
  DW_CFA_offset: reg30 -8
  DW_CFA_offset: reg29 -16
  DW_CFA_offset: reg19 -24
  DW_CFA_offset: reg20 -32
  DW_CFA_offset: reg21 -40
  DW_CFA_offset: reg22 -48
  DW_CFA_offset: reg23 -56
  DW_CFA_offset: reg24 -64
  DW_CFA_offset: reg25 -72
  DW_CFA_offset: reg26 -80
  DW_CFA_offset: reg27 -88
  DW_CFA_offset: reg28 -96
  DW_CFA_nop:
  DW_CFA_nop:
  DW_CFA_nop:

  0x10005bab8: CFA=reg31
  0x10005bad4: CFA=reg31+960: reg19=[CFA-24], reg20=[CFA-32], reg21=[CFA-40], reg22=[CFA-48], reg23=[CFA-56], reg24=[CFA-64], reg25=[CFA-72], reg26=[CFA-80], reg27=[CFA-88], reg28=[CFA-96], reg29=[CFA-16], reg30=[CFA-8]

000032f0 00000034 000032f4 FDE cie=00000000 pc=10005d2f8...10005ddcc
  Format:       DWARF32
  DW_CFA_advance_loc: 28
  DW_CFA_def_cfa_offset: +320
  DW_CFA_offset: reg30 -8
  DW_CFA_offset: reg29 -16
  DW_CFA_offset: reg19 -24
  DW_CFA_offset: reg20 -32
  DW_CFA_offset: reg21 -40
  DW_CFA_offset: reg22 -48
  DW_CFA_offset: reg23 -56
  DW_CFA_offset: reg24 -64
  DW_CFA_offset: reg25 -72
  DW_CFA_offset: reg26 -80
  DW_CFA_offset: reg27 -88
  DW_CFA_offset: reg28 -96
  DW_CFA_nop:
  DW_CFA_nop:
  DW_CFA_nop:

  0x10005d2f8: CFA=reg31
  0x10005d314: CFA=reg31+320: reg19=[CFA-24], reg20=[CFA-32], reg21=[CFA-40], reg22=[CFA-48], reg23=[CFA-56], reg24=[CFA-64], reg25=[CFA-72], reg26=[CFA-80], reg27=[CFA-88], reg28=[CFA-96], reg29=[CFA-16], reg30=[CFA-8]

00003328 00000034 0000332c FDE cie=00000000 pc=10005ddcc...10005e6c8
  Format:       DWARF32
  DW_CFA_advance_loc: 28
  DW_CFA_def_cfa_offset: +400
  DW_CFA_offset: reg30 -8
  DW_CFA_offset: reg29 -16
  DW_CFA_offset: reg19 -24
  DW_CFA_offset: reg20 -32
  DW_CFA_offset: reg21 -40
  DW_CFA_offset: reg22 -48
  DW_CFA_offset: reg23 -56
  DW_CFA_offset: reg24 -64
  DW_CFA_offset: reg25 -72
  DW_CFA_offset: reg26 -80
  DW_CFA_offset: reg27 -88
  DW_CFA_offset: reg28 -96
  DW_CFA_nop:
  DW_CFA_nop:
  DW_CFA_nop:

  0x10005ddcc: CFA=reg31
  0x10005dde8: CFA=reg31+400: reg19=[CFA-24], reg20=[CFA-32], reg21=[CFA-40], reg22=[CFA-48], reg23=[CFA-56], reg24=[CFA-64], reg25=[CFA-72], reg26=[CFA-80], reg27=[CFA-88], reg28=[CFA-96], reg29=[CFA-16], reg30=[CFA-8]

00003360 00000034 00003364 FDE cie=00000000 pc=10005e6c8...10005e914
  Format:       DWARF32
  DW_CFA_advance_loc: 28
  DW_CFA_def_cfa_offset: +304
  DW_CFA_offset: reg30 -8
  DW_CFA_offset: reg29 -16
  DW_CFA_offset: reg19 -24
  DW_CFA_offset: reg20 -32
  DW_CFA_offset: reg21 -40
  DW_CFA_offset: reg22 -48
  DW_CFA_offset: reg23 -56
  DW_CFA_offset: reg24 -64
  DW_CFA_offset: reg25 -72
  DW_CFA_offset: reg26 -80
  DW_CFA_offset: reg27 -88
  DW_CFA_offset: reg28 -96
  DW_CFA_nop:
  DW_CFA_nop:
  DW_CFA_nop:

  0x10005e6c8: CFA=reg31
  0x10005e6e4: CFA=reg31+304: reg19=[CFA-24], reg20=[CFA-32], reg21=[CFA-40], reg22=[CFA-48], reg23=[CFA-56], reg24=[CFA-64], reg25=[CFA-72], reg26=[CFA-80], reg27=[CFA-88], reg28=[CFA-96], reg29=[CFA-16], reg30=[CFA-8]

00003398 00000024 0000339c FDE cie=00000000 pc=1000626a8...1000628c0
  Format:       DWARF32
  DW_CFA_advance_loc: 12
  DW_CFA_def_cfa_offset: +112
  DW_CFA_offset: reg30 -8
  DW_CFA_offset: reg29 -16
  DW_CFA_offset: reg19 -24
  DW_CFA_offset: reg20 -32
  DW_CFA_nop:
  DW_CFA_nop:
  DW_CFA_nop:
  DW_CFA_nop:

  0x1000626a8: CFA=reg31
  0x1000626b4: CFA=reg31+112: reg19=[CFA-24], reg20=[CFA-32], reg29=[CFA-16], reg30=[CFA-8]

000033c0 0000001c 000033c4 FDE cie=00000000 pc=100408f08...100408f20
  Format:       DWARF32
  DW_CFA_advance_loc: 8
  DW_CFA_def_cfa_offset: +48
  DW_CFA_offset: reg30 -8
  DW_CFA_offset: reg29 -16

  0x100408f08: CFA=reg31
  0x100408f10: CFA=reg31+48: reg29=[CFA-16], reg30=[CFA-8]

000033e0 00000024 000033e4 FDE cie=00000000 pc=100063010...100063094
  Format:       DWARF32
  DW_CFA_advance_loc: 8
  DW_CFA_def_cfa_offset: +32
  DW_CFA_offset: reg30 -8
  DW_CFA_offset: reg29 -16
  DW_CFA_offset: reg19 -24
  DW_CFA_offset: reg20 -32
  DW_CFA_nop:
  DW_CFA_nop:
  DW_CFA_nop:
  DW_CFA_nop:

  0x100063010: CFA=reg31
  0x100063018: CFA=reg31+32: reg19=[CFA-24], reg20=[CFA-32], reg29=[CFA-16], reg30=[CFA-8]

00003408 00000024 0000340c FDE cie=00000000 pc=1000634e4...100063508
  Format:       DWARF32
  DW_CFA_advance_loc: 8
  DW_CFA_def_cfa_offset: +32
  DW_CFA_offset: reg30 -8
  DW_CFA_offset: reg29 -16
  DW_CFA_offset: reg19 -24
  DW_CFA_offset: reg20 -32
  DW_CFA_nop:
  DW_CFA_nop:
  DW_CFA_nop:
  DW_CFA_nop:

  0x1000634e4: CFA=reg31
  0x1000634ec: CFA=reg31+32: reg19=[CFA-24], reg20=[CFA-32], reg29=[CFA-16], reg30=[CFA-8]

00003430 00000024 00003434 FDE cie=00000000 pc=10006399c...100063a14
  Format:       DWARF32
  DW_CFA_advance_loc: 8
  DW_CFA_def_cfa_offset: +32
  DW_CFA_offset: reg30 -8
  DW_CFA_offset: reg29 -16
  DW_CFA_offset: reg19 -24
  DW_CFA_offset: reg20 -32
  DW_CFA_nop:
  DW_CFA_nop:
  DW_CFA_nop:
  DW_CFA_nop:

  0x10006399c: CFA=reg31
  0x1000639a4: CFA=reg31+32: reg19=[CFA-24], reg20=[CFA-32], reg29=[CFA-16], reg30=[CFA-8]

00003458 00000024 0000345c FDE cie=00000000 pc=100063b18...100063b3c
  Format:       DWARF32
  DW_CFA_advance_loc: 8
  DW_CFA_def_cfa_offset: +32
  DW_CFA_offset: reg30 -8
  DW_CFA_offset: reg29 -16
  DW_CFA_offset: reg19 -24
  DW_CFA_offset: reg20 -32
  DW_CFA_nop:
  DW_CFA_nop:
  DW_CFA_nop:
  DW_CFA_nop:

  0x100063b18: CFA=reg31
  0x100063b20: CFA=reg31+32: reg19=[CFA-24], reg20=[CFA-32], reg29=[CFA-16], reg30=[CFA-8]

00003480 0000001c 00003484 FDE cie=00000000 pc=100063b50...100063ba0
  Format:       DWARF32
  DW_CFA_advance_loc: 4
  DW_CFA_def_cfa_offset: +16
  DW_CFA_offset: reg30 -8
  DW_CFA_offset: reg29 -16

  0x100063b50: CFA=reg31
  0x100063b54: CFA=reg31+16: reg29=[CFA-16], reg30=[CFA-8]

000034a0 00000024 000034a4 FDE cie=00000000 pc=100063bec...100063cd4
  Format:       DWARF32
  DW_CFA_advance_loc: 12
  DW_CFA_def_cfa_offset: +64
  DW_CFA_offset: reg30 -8
  DW_CFA_offset: reg29 -16
  DW_CFA_offset: reg19 -24
  DW_CFA_offset: reg20 -32
  DW_CFA_nop:
  DW_CFA_nop:
  DW_CFA_nop:
  DW_CFA_nop:

  0x100063bec: CFA=reg31
  0x100063bf8: CFA=reg31+64: reg19=[CFA-24], reg20=[CFA-32], reg29=[CFA-16], reg30=[CFA-8]

000034c8 00000024 000034cc FDE cie=00000000 pc=100063cd4...100063f7c
  Format:       DWARF32
  DW_CFA_advance_loc: 12
  DW_CFA_def_cfa_offset: +64
  DW_CFA_offset: reg30 -8
  DW_CFA_offset: reg29 -16
  DW_CFA_offset: reg19 -24
  DW_CFA_offset: reg20 -32
  DW_CFA_nop:
  DW_CFA_nop:
  DW_CFA_nop:
  DW_CFA_nop:

  0x100063cd4: CFA=reg31
  0x100063ce0: CFA=reg31+64: reg19=[CFA-24], reg20=[CFA-32], reg29=[CFA-16], reg30=[CFA-8]

000034f0 00000024 000034f4 FDE cie=00000000 pc=100063f8c...100064030
  Format:       DWARF32
  DW_CFA_advance_loc: 12
  DW_CFA_def_cfa_offset: +112
  DW_CFA_offset: reg30 -8
  DW_CFA_offset: reg29 -16
  DW_CFA_offset: reg19 -24
  DW_CFA_offset: reg20 -32
  DW_CFA_nop:
  DW_CFA_nop:
  DW_CFA_nop:
  DW_CFA_nop:

  0x100063f8c: CFA=reg31
  0x100063f98: CFA=reg31+112: reg19=[CFA-24], reg20=[CFA-32], reg29=[CFA-16], reg30=[CFA-8]

00003518 0000001c 0000351c FDE cie=00000000 pc=100064044...100064084
  Format:       DWARF32
  DW_CFA_advance_loc: 8
  DW_CFA_def_cfa_offset: +80
  DW_CFA_offset: reg30 -8
  DW_CFA_offset: reg29 -16

  0x100064044: CFA=reg31
  0x10006404c: CFA=reg31+80: reg29=[CFA-16], reg30=[CFA-8]

00003538 0000001c 0000353c FDE cie=00000000 pc=1000640b0...100064138
  Format:       DWARF32
  DW_CFA_advance_loc: 4
  DW_CFA_def_cfa_offset: +16
  DW_CFA_offset: reg30 -8
  DW_CFA_offset: reg29 -16

  0x1000640b0: CFA=reg31
  0x1000640b4: CFA=reg31+16: reg29=[CFA-16], reg30=[CFA-8]

00003558 0000001c 0000355c FDE cie=00000000 pc=100064138...100064264
  Format:       DWARF32
  DW_CFA_advance_loc: 8
  DW_CFA_def_cfa_offset: +96
  DW_CFA_offset: reg30 -8
  DW_CFA_offset: reg29 -16

  0x100064138: CFA=reg31
  0x100064140: CFA=reg31+96: reg29=[CFA-16], reg30=[CFA-8]

00003578 0000001c 0000357c FDE cie=00000000 pc=100064264...100064284
  Format:       DWARF32
  DW_CFA_advance_loc: 8
  DW_CFA_def_cfa_offset: +48
  DW_CFA_offset: reg30 -8
  DW_CFA_offset: reg29 -16

  0x100064264: CFA=reg31
  0x10006426c: CFA=reg31+48: reg29=[CFA-16], reg30=[CFA-8]

00003598 0000001c 0000359c FDE cie=00000000 pc=100064284...1000642ac
  Format:       DWARF32
  DW_CFA_advance_loc: 8
  DW_CFA_def_cfa_offset: +32
  DW_CFA_offset: reg30 -8
  DW_CFA_offset: reg29 -16

  0x100064284: CFA=reg31
  0x10006428c: CFA=reg31+32: reg29=[CFA-16], reg30=[CFA-8]

000035b8 00000024 000035bc FDE cie=00000000 pc=1000642ac...1000642f4
  Format:       DWARF32
  DW_CFA_advance_loc: 8
  DW_CFA_def_cfa_offset: +32
  DW_CFA_offset: reg30 -8
  DW_CFA_offset: reg29 -16
  DW_CFA_offset: reg19 -24
  DW_CFA_offset: reg20 -32
  DW_CFA_nop:
  DW_CFA_nop:
  DW_CFA_nop:
  DW_CFA_nop:

  0x1000642ac: CFA=reg31
  0x1000642b4: CFA=reg31+32: reg19=[CFA-24], reg20=[CFA-32], reg29=[CFA-16], reg30=[CFA-8]

000035e0 0000001c 000035e4 FDE cie=00000000 pc=1000642f4...100064314
  Format:       DWARF32
  DW_CFA_advance_loc: 4
  DW_CFA_def_cfa_offset: +16
  DW_CFA_offset: reg30 -8
  DW_CFA_offset: reg29 -16

  0x1000642f4: CFA=reg31
  0x1000642f8: CFA=reg31+16: reg29=[CFA-16], reg30=[CFA-8]

00003600 0000001c 00003604 FDE cie=00000000 pc=1000667c4...1000667e0
  Format:       DWARF32
  DW_CFA_advance_loc: 8
  DW_CFA_def_cfa_offset: +32
  DW_CFA_offset: reg30 -8
  DW_CFA_offset: reg29 -16

  0x1000667c4: CFA=reg31
  0x1000667cc: CFA=reg31+32: reg29=[CFA-16], reg30=[CFA-8]

00003620 00000024 00003624 FDE cie=00000000 pc=100066870...100066894
  Format:       DWARF32
  DW_CFA_advance_loc: 8
  DW_CFA_def_cfa_offset: +32
  DW_CFA_offset: reg30 -8
  DW_CFA_offset: reg29 -16
  DW_CFA_offset: reg19 -24
  DW_CFA_offset: reg20 -32
  DW_CFA_nop:
  DW_CFA_nop:
  DW_CFA_nop:
  DW_CFA_nop:

  0x100066870: CFA=reg31
  0x100066878: CFA=reg31+32: reg19=[CFA-24], reg20=[CFA-32], reg29=[CFA-16], reg30=[CFA-8]

00003648 0000001c 0000364c FDE cie=00000000 pc=1000679bc...100067a0c
  Format:       DWARF32
  DW_CFA_advance_loc: 4
  DW_CFA_def_cfa_offset: +16
  DW_CFA_offset: reg30 -8
  DW_CFA_offset: reg29 -16

  0x1000679bc: CFA=reg31
  0x1000679c0: CFA=reg31+16: reg29=[CFA-16], reg30=[CFA-8]

00003668 00000024 0000366c FDE cie=00000000 pc=100067aa0...100067b88
  Format:       DWARF32
  DW_CFA_advance_loc: 12
  DW_CFA_def_cfa_offset: +64
  DW_CFA_offset: reg30 -8
  DW_CFA_offset: reg29 -16
  DW_CFA_offset: reg19 -24
  DW_CFA_offset: reg20 -32
  DW_CFA_nop:
  DW_CFA_nop:
  DW_CFA_nop:
  DW_CFA_nop:

  0x100067aa0: CFA=reg31
  0x100067aac: CFA=reg31+64: reg19=[CFA-24], reg20=[CFA-32], reg29=[CFA-16], reg30=[CFA-8]

00003690 00000024 00003694 FDE cie=00000000 pc=100067b88...100067c2c
  Format:       DWARF32
  DW_CFA_advance_loc: 12
  DW_CFA_def_cfa_offset: +112
  DW_CFA_offset: reg30 -8
  DW_CFA_offset: reg29 -16
  DW_CFA_offset: reg19 -24
  DW_CFA_offset: reg20 -32
  DW_CFA_nop:
  DW_CFA_nop:
  DW_CFA_nop:
  DW_CFA_nop:

  0x100067b88: CFA=reg31
  0x100067b94: CFA=reg31+112: reg19=[CFA-24], reg20=[CFA-32], reg29=[CFA-16], reg30=[CFA-8]

000036b8 00000024 000036bc FDE cie=00000000 pc=100067c48...100067c80
  Format:       DWARF32
  DW_CFA_advance_loc: 8
  DW_CFA_def_cfa_offset: +32
  DW_CFA_offset: reg30 -8
  DW_CFA_offset: reg29 -16
  DW_CFA_offset: reg19 -24
  DW_CFA_offset: reg20 -32
  DW_CFA_nop:
  DW_CFA_nop:
  DW_CFA_nop:
  DW_CFA_nop:

  0x100067c48: CFA=reg31
  0x100067c50: CFA=reg31+32: reg19=[CFA-24], reg20=[CFA-32], reg29=[CFA-16], reg30=[CFA-8]

000036e0 00000024 000036e4 FDE cie=00000000 pc=100067cd8...100067d14
  Format:       DWARF32
  DW_CFA_advance_loc: 8
  DW_CFA_def_cfa_offset: +32
  DW_CFA_offset: reg30 -8
  DW_CFA_offset: reg29 -16
  DW_CFA_offset: reg19 -24
  DW_CFA_offset: reg20 -32
  DW_CFA_nop:
  DW_CFA_nop:
  DW_CFA_nop:
  DW_CFA_nop:

  0x100067cd8: CFA=reg31
  0x100067ce0: CFA=reg31+32: reg19=[CFA-24], reg20=[CFA-32], reg29=[CFA-16], reg30=[CFA-8]

00003708 00000024 0000370c FDE cie=00000000 pc=100067d38...100067d64
  Format:       DWARF32
  DW_CFA_advance_loc: 8
  DW_CFA_def_cfa_offset: +32
  DW_CFA_offset: reg30 -8
  DW_CFA_offset: reg29 -16
  DW_CFA_offset: reg19 -24
  DW_CFA_offset: reg20 -32
  DW_CFA_nop:
  DW_CFA_nop:
  DW_CFA_nop:
  DW_CFA_nop:

  0x100067d38: CFA=reg31
  0x100067d40: CFA=reg31+32: reg19=[CFA-24], reg20=[CFA-32], reg29=[CFA-16], reg30=[CFA-8]

00003730 00000024 00003734 FDE cie=00000000 pc=100067da8...100067e90
  Format:       DWARF32
  DW_CFA_advance_loc: 12
  DW_CFA_def_cfa_offset: +64
  DW_CFA_offset: reg30 -8
  DW_CFA_offset: reg29 -16
  DW_CFA_offset: reg19 -24
  DW_CFA_offset: reg20 -32
  DW_CFA_nop:
  DW_CFA_nop:
  DW_CFA_nop:
  DW_CFA_nop:

  0x100067da8: CFA=reg31
  0x100067db4: CFA=reg31+64: reg19=[CFA-24], reg20=[CFA-32], reg29=[CFA-16], reg30=[CFA-8]

00003758 00000024 0000375c FDE cie=00000000 pc=1000685d0...100068608
  Format:       DWARF32
  DW_CFA_advance_loc: 8
  DW_CFA_def_cfa_offset: +32
  DW_CFA_offset: reg30 -8
  DW_CFA_offset: reg29 -16
  DW_CFA_offset: reg19 -24
  DW_CFA_offset: reg20 -32
  DW_CFA_nop:
  DW_CFA_nop:
  DW_CFA_nop:
  DW_CFA_nop:

  0x1000685d0: CFA=reg31
  0x1000685d8: CFA=reg31+32: reg19=[CFA-24], reg20=[CFA-32], reg29=[CFA-16], reg30=[CFA-8]

00003780 00000024 00003784 FDE cie=00000000 pc=100068644...100068680
  Format:       DWARF32
  DW_CFA_advance_loc: 8
  DW_CFA_def_cfa_offset: +32
  DW_CFA_offset: reg30 -8
  DW_CFA_offset: reg29 -16
  DW_CFA_offset: reg19 -24
  DW_CFA_offset: reg20 -32
  DW_CFA_nop:
  DW_CFA_nop:
  DW_CFA_nop:
  DW_CFA_nop:

  0x100068644: CFA=reg31
  0x10006864c: CFA=reg31+32: reg19=[CFA-24], reg20=[CFA-32], reg29=[CFA-16], reg30=[CFA-8]

000037a8 00000024 000037ac FDE cie=00000000 pc=100068694...1000686c0
  Format:       DWARF32
  DW_CFA_advance_loc: 8
  DW_CFA_def_cfa_offset: +32
  DW_CFA_offset: reg30 -8
  DW_CFA_offset: reg29 -16
  DW_CFA_offset: reg19 -24
  DW_CFA_offset: reg20 -32
  DW_CFA_nop:
  DW_CFA_nop:
  DW_CFA_nop:
  DW_CFA_nop:

  0x100068694: CFA=reg31
  0x10006869c: CFA=reg31+32: reg19=[CFA-24], reg20=[CFA-32], reg29=[CFA-16], reg30=[CFA-8]

000037d0 00000024 000037d4 FDE cie=00000000 pc=1000686c0...100068800
  Format:       DWARF32
  DW_CFA_advance_loc: 16
  DW_CFA_def_cfa_offset: +64
  DW_CFA_offset: reg30 -8
  DW_CFA_offset: reg29 -16
  DW_CFA_offset: reg19 -24
  DW_CFA_offset: reg20 -32
  DW_CFA_offset: reg21 -40
  DW_CFA_offset: reg22 -48

  0x1000686c0: CFA=reg31
  0x1000686d0: CFA=reg31+64: reg19=[CFA-24], reg20=[CFA-32], reg21=[CFA-40], reg22=[CFA-48], reg29=[CFA-16], reg30=[CFA-8]

000037f8 0000001c 000037fc FDE cie=00000000 pc=100068800...10006883c
  Format:       DWARF32
  DW_CFA_advance_loc: 8
  DW_CFA_def_cfa_offset: +80
  DW_CFA_offset: reg30 -8
  DW_CFA_offset: reg29 -16

  0x100068800: CFA=reg31
  0x100068808: CFA=reg31+80: reg29=[CFA-16], reg30=[CFA-8]

00003818 0000001c 0000381c FDE cie=00000000 pc=10006883c...100068854
  Format:       DWARF32
  DW_CFA_advance_loc: 4
  DW_CFA_def_cfa_offset: +16
  DW_CFA_offset: reg30 -8
  DW_CFA_offset: reg29 -16

  0x10006883c: CFA=reg31
  0x100068840: CFA=reg31+16: reg29=[CFA-16], reg30=[CFA-8]

00003838 0000001c 0000383c FDE cie=00000000 pc=100068854...100068894
  Format:       DWARF32
  DW_CFA_advance_loc: 8
  DW_CFA_def_cfa_offset: +80
  DW_CFA_offset: reg30 -8
  DW_CFA_offset: reg29 -16

  0x100068854: CFA=reg31
  0x10006885c: CFA=reg31+80: reg29=[CFA-16], reg30=[CFA-8]

00003858 0000001c 0000385c FDE cie=00000000 pc=100068894...1000688e8
  Format:       DWARF32
  DW_CFA_advance_loc: 8
  DW_CFA_def_cfa_offset: +80
  DW_CFA_offset: reg30 -8
  DW_CFA_offset: reg29 -16

  0x100068894: CFA=reg31
  0x10006889c: CFA=reg31+80: reg29=[CFA-16], reg30=[CFA-8]

00003878 0000001c 0000387c FDE cie=00000000 pc=100068ce0...100068d14
  Format:       DWARF32
  DW_CFA_advance_loc: 8
  DW_CFA_def_cfa_offset: +64
  DW_CFA_offset: reg30 -8
  DW_CFA_offset: reg29 -16

  0x100068ce0: CFA=reg31
  0x100068ce8: CFA=reg31+64: reg29=[CFA-16], reg30=[CFA-8]

00003898 00000024 0000389c FDE cie=00000000 pc=100068f90...100069078
  Format:       DWARF32
  DW_CFA_advance_loc: 12
  DW_CFA_def_cfa_offset: +64
  DW_CFA_offset: reg30 -8
  DW_CFA_offset: reg29 -16
  DW_CFA_offset: reg19 -24
  DW_CFA_offset: reg20 -32
  DW_CFA_nop:
  DW_CFA_nop:
  DW_CFA_nop:
  DW_CFA_nop:

  0x100068f90: CFA=reg31
  0x100068f9c: CFA=reg31+64: reg19=[CFA-24], reg20=[CFA-32], reg29=[CFA-16], reg30=[CFA-8]

000038c0 00000024 000038c4 FDE cie=00000000 pc=1000690b0...100069234
  Format:       DWARF32
  DW_CFA_advance_loc: 8
  DW_CFA_def_cfa_offset: +240
  DW_CFA_offset: reg30 -8
  DW_CFA_offset: reg29 -16
  DW_CFA_nop:
  DW_CFA_nop:
  DW_CFA_nop:
  DW_CFA_nop:
  DW_CFA_nop:
  DW_CFA_nop:
  DW_CFA_nop:

  0x1000690b0: CFA=reg31
  0x1000690b8: CFA=reg31+240: reg29=[CFA-16], reg30=[CFA-8]

000038e8 0000002c 000038ec FDE cie=00000000 pc=100069234...1000694d4
  Format:       DWARF32
  DW_CFA_advance_loc: 24
  DW_CFA_def_cfa_offset: +112
  DW_CFA_offset: reg30 -8
  DW_CFA_offset: reg29 -16
  DW_CFA_offset: reg19 -24
  DW_CFA_offset: reg20 -32
  DW_CFA_offset: reg21 -40
  DW_CFA_offset: reg22 -48
  DW_CFA_offset: reg23 -56
  DW_CFA_offset: reg24 -64
  DW_CFA_offset: reg25 -72
  DW_CFA_offset: reg26 -80

  0x100069234: CFA=reg31
  0x10006924c: CFA=reg31+112: reg19=[CFA-24], reg20=[CFA-32], reg21=[CFA-40], reg22=[CFA-48], reg23=[CFA-56], reg24=[CFA-64], reg25=[CFA-72], reg26=[CFA-80], reg29=[CFA-16], reg30=[CFA-8]

00003918 00000034 0000391c FDE cie=00000000 pc=1000694d4...10006dc0c
  Format:       DWARF32
  DW_CFA_advance_loc: 32
  DW_CFA_def_cfa_offset: +4320
  DW_CFA_offset: reg30 -8
  DW_CFA_offset: reg29 -16
  DW_CFA_offset: reg19 -24
  DW_CFA_offset: reg20 -32
  DW_CFA_offset: reg21 -40
  DW_CFA_offset: reg22 -48
  DW_CFA_offset: reg23 -56
  DW_CFA_offset: reg24 -64
  DW_CFA_offset: reg25 -72
  DW_CFA_offset: reg26 -80
  DW_CFA_offset: reg27 -88
  DW_CFA_offset: reg28 -96
  DW_CFA_nop:
  DW_CFA_nop:
  DW_CFA_nop:

  0x1000694d4: CFA=reg31
  0x1000694f4: CFA=reg31+4320: reg19=[CFA-24], reg20=[CFA-32], reg21=[CFA-40], reg22=[CFA-48], reg23=[CFA-56], reg24=[CFA-64], reg25=[CFA-72], reg26=[CFA-80], reg27=[CFA-88], reg28=[CFA-96], reg29=[CFA-16], reg30=[CFA-8]

00003950 0000002c 00003954 FDE cie=00000000 pc=10006dc0c...10006dccc
  Format:       DWARF32
  DW_CFA_advance_loc: 16
  DW_CFA_def_cfa_offset: +128
  DW_CFA_offset: reg30 -8
  DW_CFA_offset: reg29 -16
  DW_CFA_offset: reg19 -24
  DW_CFA_offset: reg20 -32
  DW_CFA_offset: reg21 -40
  DW_CFA_offset: reg22 -48
  DW_CFA_nop:
  DW_CFA_nop:
  DW_CFA_nop:
  DW_CFA_nop:
  DW_CFA_nop:
  DW_CFA_nop:
  DW_CFA_nop:

  0x10006dc0c: CFA=reg31
  0x10006dc1c: CFA=reg31+128: reg19=[CFA-24], reg20=[CFA-32], reg21=[CFA-40], reg22=[CFA-48], reg29=[CFA-16], reg30=[CFA-8]

00003980 0000001c 00003984 FDE cie=00000000 pc=10006dccc...10006ddd0
  Format:       DWARF32
  DW_CFA_advance_loc: 8
  DW_CFA_def_cfa_offset: +112
  DW_CFA_offset: reg30 -8
  DW_CFA_offset: reg29 -16

  0x10006dccc: CFA=reg31
  0x10006dcd4: CFA=reg31+112: reg29=[CFA-16], reg30=[CFA-8]

000039a0 0000001c 000039a4 FDE cie=00000000 pc=10006dde8...10006dfc0
  Format:       DWARF32
  DW_CFA_advance_loc: 4
  DW_CFA_def_cfa_offset: +16
  DW_CFA_offset: reg30 -8
  DW_CFA_offset: reg29 -16

  0x10006dde8: CFA=reg31
  0x10006ddec: CFA=reg31+16: reg29=[CFA-16], reg30=[CFA-8]

000039c0 00000034 000039c4 FDE cie=00000000 pc=10006dfc0...10006e484
  Format:       DWARF32
  DW_CFA_advance_loc: 28
  DW_CFA_def_cfa_offset: +176
  DW_CFA_offset: reg30 -8
  DW_CFA_offset: reg29 -16
  DW_CFA_offset: reg19 -24
  DW_CFA_offset: reg20 -32
  DW_CFA_offset: reg21 -40
  DW_CFA_offset: reg22 -48
  DW_CFA_offset: reg23 -56
  DW_CFA_offset: reg24 -64
  DW_CFA_offset: reg25 -72
  DW_CFA_offset: reg26 -80
  DW_CFA_offset: reg27 -88
  DW_CFA_offset: reg28 -96
  DW_CFA_nop:
  DW_CFA_nop:
  DW_CFA_nop:

  0x10006dfc0: CFA=reg31
  0x10006dfdc: CFA=reg31+176: reg19=[CFA-24], reg20=[CFA-32], reg21=[CFA-40], reg22=[CFA-48], reg23=[CFA-56], reg24=[CFA-64], reg25=[CFA-72], reg26=[CFA-80], reg27=[CFA-88], reg28=[CFA-96], reg29=[CFA-16], reg30=[CFA-8]

000039f8 00000034 000039fc FDE cie=00000000 pc=10006e484...10006eb8c
  Format:       DWARF32
  DW_CFA_advance_loc: 28
  DW_CFA_def_cfa_offset: +176
  DW_CFA_offset: reg30 -8
  DW_CFA_offset: reg29 -16
  DW_CFA_offset: reg19 -24
  DW_CFA_offset: reg20 -32
  DW_CFA_offset: reg21 -40
  DW_CFA_offset: reg22 -48
  DW_CFA_offset: reg23 -56
  DW_CFA_offset: reg24 -64
  DW_CFA_offset: reg25 -72
  DW_CFA_offset: reg26 -80
  DW_CFA_offset: reg27 -88
  DW_CFA_offset: reg28 -96
  DW_CFA_nop:
  DW_CFA_nop:
  DW_CFA_nop:

  0x10006e484: CFA=reg31
  0x10006e4a0: CFA=reg31+176: reg19=[CFA-24], reg20=[CFA-32], reg21=[CFA-40], reg22=[CFA-48], reg23=[CFA-56], reg24=[CFA-64], reg25=[CFA-72], reg26=[CFA-80], reg27=[CFA-88], reg28=[CFA-96], reg29=[CFA-16], reg30=[CFA-8]

00003a30 0000001c 00003a34 FDE cie=00000000 pc=10006ebbc...10006ebfc
  Format:       DWARF32
  DW_CFA_advance_loc: 8
  DW_CFA_def_cfa_offset: +64
  DW_CFA_offset: reg30 -8
  DW_CFA_offset: reg29 -16

  0x10006ebbc: CFA=reg31
  0x10006ebc4: CFA=reg31+64: reg29=[CFA-16], reg30=[CFA-8]

00003a50 00000024 00003a54 FDE cie=00000000 pc=10006ebfc...10006ecd8
  Format:       DWARF32
  DW_CFA_advance_loc: 12
  DW_CFA_def_cfa_offset: +64
  DW_CFA_offset: reg30 -8
  DW_CFA_offset: reg29 -16
  DW_CFA_offset: reg19 -24
  DW_CFA_offset: reg20 -32
  DW_CFA_nop:
  DW_CFA_nop:
  DW_CFA_nop:
  DW_CFA_nop:

  0x10006ebfc: CFA=reg31
  0x10006ec08: CFA=reg31+64: reg19=[CFA-24], reg20=[CFA-32], reg29=[CFA-16], reg30=[CFA-8]

00003a78 00000024 00003a7c FDE cie=00000000 pc=10006ecd8...10006eda0
  Format:       DWARF32
  DW_CFA_advance_loc: 12
  DW_CFA_def_cfa_offset: +64
  DW_CFA_offset: reg30 -8
  DW_CFA_offset: reg29 -16
  DW_CFA_offset: reg19 -24
  DW_CFA_offset: reg20 -32
  DW_CFA_nop:
  DW_CFA_nop:
  DW_CFA_nop:
  DW_CFA_nop:

  0x10006ecd8: CFA=reg31
  0x10006ece4: CFA=reg31+64: reg19=[CFA-24], reg20=[CFA-32], reg29=[CFA-16], reg30=[CFA-8]

00003aa0 00000024 00003aa4 FDE cie=00000000 pc=10006eda0...10006eea4
  Format:       DWARF32
  DW_CFA_advance_loc: 12
  DW_CFA_def_cfa_offset: +64
  DW_CFA_offset: reg30 -8
  DW_CFA_offset: reg29 -16
  DW_CFA_offset: reg19 -24
  DW_CFA_offset: reg20 -32
  DW_CFA_nop:
  DW_CFA_nop:
  DW_CFA_nop:
  DW_CFA_nop:

  0x10006eda0: CFA=reg31
  0x10006edac: CFA=reg31+64: reg19=[CFA-24], reg20=[CFA-32], reg29=[CFA-16], reg30=[CFA-8]

00003ac8 00000024 00003acc FDE cie=00000000 pc=10006eea4...10006f0d4
  Format:       DWARF32
  DW_CFA_advance_loc: 8
  DW_CFA_def_cfa_offset: +144
  DW_CFA_offset: reg30 -8
  DW_CFA_offset: reg29 -16
  DW_CFA_nop:
  DW_CFA_nop:
  DW_CFA_nop:
  DW_CFA_nop:
  DW_CFA_nop:
  DW_CFA_nop:
  DW_CFA_nop:

  0x10006eea4: CFA=reg31
  0x10006eeac: CFA=reg31+144: reg29=[CFA-16], reg30=[CFA-8]

00003af0 00000024 00003af4 FDE cie=00000000 pc=10006f0e8...10006f2e4
  Format:       DWARF32
  DW_CFA_advance_loc: 12
  DW_CFA_def_cfa_offset: +224
  DW_CFA_offset: reg30 -8
  DW_CFA_offset: reg29 -16
  DW_CFA_offset: reg19 -24
  DW_CFA_offset: reg20 -32
  DW_CFA_nop:
  DW_CFA_nop:
  DW_CFA_nop:

  0x10006f0e8: CFA=reg31
  0x10006f0f4: CFA=reg31+224: reg19=[CFA-24], reg20=[CFA-32], reg29=[CFA-16], reg30=[CFA-8]

00003b18 0000002c 00003b1c FDE cie=00000000 pc=10006f2f4...10006f4f0
  Format:       DWARF32
  DW_CFA_advance_loc: 16
  DW_CFA_def_cfa_offset: +256
  DW_CFA_offset: reg30 -8
  DW_CFA_offset: reg29 -16
  DW_CFA_offset: reg19 -24
  DW_CFA_offset: reg20 -32
  DW_CFA_offset: reg21 -40
  DW_CFA_offset: reg22 -48
  DW_CFA_nop:
  DW_CFA_nop:
  DW_CFA_nop:
  DW_CFA_nop:
  DW_CFA_nop:
  DW_CFA_nop:
  DW_CFA_nop:

  0x10006f2f4: CFA=reg31
  0x10006f304: CFA=reg31+256: reg19=[CFA-24], reg20=[CFA-32], reg21=[CFA-40], reg22=[CFA-48], reg29=[CFA-16], reg30=[CFA-8]

00003b48 00000024 00003b4c FDE cie=00000000 pc=10006f4f0...10006f6e0
  Format:       DWARF32
  DW_CFA_advance_loc: 12
  DW_CFA_def_cfa_offset: +224
  DW_CFA_offset: reg30 -8
  DW_CFA_offset: reg29 -16
  DW_CFA_offset: reg19 -24
  DW_CFA_offset: reg20 -32
  DW_CFA_nop:
  DW_CFA_nop:
  DW_CFA_nop:

  0x10006f4f0: CFA=reg31
  0x10006f4fc: CFA=reg31+224: reg19=[CFA-24], reg20=[CFA-32], reg29=[CFA-16], reg30=[CFA-8]

00003b70 0000002c 00003b74 FDE cie=00000000 pc=10006f6e0...10006f8ec
  Format:       DWARF32
  DW_CFA_advance_loc: 16
  DW_CFA_def_cfa_offset: +256
  DW_CFA_offset: reg30 -8
  DW_CFA_offset: reg29 -16
  DW_CFA_offset: reg19 -24
  DW_CFA_offset: reg20 -32
  DW_CFA_offset: reg21 -40
  DW_CFA_offset: reg22 -48
  DW_CFA_nop:
  DW_CFA_nop:
  DW_CFA_nop:
  DW_CFA_nop:
  DW_CFA_nop:
  DW_CFA_nop:
  DW_CFA_nop:

  0x10006f6e0: CFA=reg31
  0x10006f6f0: CFA=reg31+256: reg19=[CFA-24], reg20=[CFA-32], reg21=[CFA-40], reg22=[CFA-48], reg29=[CFA-16], reg30=[CFA-8]

00003ba0 0000002c 00003ba4 FDE cie=00000000 pc=10006f94c...10006faec
  Format:       DWARF32
  DW_CFA_advance_loc: 20
  DW_CFA_def_cfa_offset: +80
  DW_CFA_offset: reg30 -8
  DW_CFA_offset: reg29 -16
  DW_CFA_offset: reg19 -24
  DW_CFA_offset: reg20 -32
  DW_CFA_offset: reg21 -40
  DW_CFA_offset: reg22 -48
  DW_CFA_offset: reg23 -56
  DW_CFA_offset: reg24 -64
  DW_CFA_nop:
  DW_CFA_nop:
  DW_CFA_nop:
  DW_CFA_nop:

  0x10006f94c: CFA=reg31
  0x10006f960: CFA=reg31+80: reg19=[CFA-24], reg20=[CFA-32], reg21=[CFA-40], reg22=[CFA-48], reg23=[CFA-56], reg24=[CFA-64], reg29=[CFA-16], reg30=[CFA-8]

00003bd0 00000024 00003bd4 FDE cie=00000000 pc=10006fb34...10006fbfc
  Format:       DWARF32
  DW_CFA_advance_loc: 12
  DW_CFA_def_cfa_offset: +144
  DW_CFA_offset: reg30 -8
  DW_CFA_offset: reg29 -16
  DW_CFA_offset: reg19 -24
  DW_CFA_offset: reg20 -32
  DW_CFA_nop:
  DW_CFA_nop:
  DW_CFA_nop:

  0x10006fb34: CFA=reg31
  0x10006fb40: CFA=reg31+144: reg19=[CFA-24], reg20=[CFA-32], reg29=[CFA-16], reg30=[CFA-8]

00003bf8 00000024 00003bfc FDE cie=00000000 pc=10006fbfc...10006fe68
  Format:       DWARF32
  DW_CFA_advance_loc: 8
  DW_CFA_def_cfa_offset: +176
  DW_CFA_offset: reg30 -8
  DW_CFA_offset: reg29 -16
  DW_CFA_nop:
  DW_CFA_nop:
  DW_CFA_nop:
  DW_CFA_nop:
  DW_CFA_nop:
  DW_CFA_nop:
  DW_CFA_nop:

  0x10006fbfc: CFA=reg31
  0x10006fc04: CFA=reg31+176: reg29=[CFA-16], reg30=[CFA-8]

00003c20 00000024 00003c24 FDE cie=00000000 pc=100076c7c...100076e5c
  Format:       DWARF32
  DW_CFA_advance_loc: 12
  DW_CFA_def_cfa_offset: +64
  DW_CFA_offset: reg30 -8
  DW_CFA_offset: reg29 -16
  DW_CFA_offset: reg19 -24
  DW_CFA_offset: reg20 -32
  DW_CFA_nop:
  DW_CFA_nop:
  DW_CFA_nop:
  DW_CFA_nop:

  0x100076c7c: CFA=reg31
  0x100076c88: CFA=reg31+64: reg19=[CFA-24], reg20=[CFA-32], reg29=[CFA-16], reg30=[CFA-8]

00003c48 00000024 00003c4c FDE cie=00000000 pc=100076e5c...100076f38
  Format:       DWARF32
  DW_CFA_advance_loc: 12
  DW_CFA_def_cfa_offset: +64
  DW_CFA_offset: reg30 -8
  DW_CFA_offset: reg29 -16
  DW_CFA_offset: reg19 -24
  DW_CFA_offset: reg20 -32
  DW_CFA_nop:
  DW_CFA_nop:
  DW_CFA_nop:
  DW_CFA_nop:

  0x100076e5c: CFA=reg31
  0x100076e68: CFA=reg31+64: reg19=[CFA-24], reg20=[CFA-32], reg29=[CFA-16], reg30=[CFA-8]

00003c70 0000002c 00003c74 FDE cie=00000000 pc=1000770a0...100077368
  Format:       DWARF32
  DW_CFA_advance_loc: 20
  DW_CFA_def_cfa_offset: +176
  DW_CFA_offset: reg30 -8
  DW_CFA_offset: reg29 -16
  DW_CFA_offset: reg19 -24
  DW_CFA_offset: reg20 -32
  DW_CFA_offset: reg21 -40
  DW_CFA_offset: reg22 -48
  DW_CFA_offset: reg23 -56
  DW_CFA_offset: reg24 -64
  DW_CFA_nop:
  DW_CFA_nop:
  DW_CFA_nop:

  0x1000770a0: CFA=reg31
  0x1000770b4: CFA=reg31+176: reg19=[CFA-24], reg20=[CFA-32], reg21=[CFA-40], reg22=[CFA-48], reg23=[CFA-56], reg24=[CFA-64], reg29=[CFA-16], reg30=[CFA-8]

00003ca0 00000024 00003ca4 FDE cie=00000000 pc=1000774cc...1000776b0
  Format:       DWARF32
  DW_CFA_advance_loc: 12
  DW_CFA_def_cfa_offset: +64
  DW_CFA_offset: reg30 -8
  DW_CFA_offset: reg29 -16
  DW_CFA_offset: reg19 -24
  DW_CFA_offset: reg20 -32
  DW_CFA_nop:
  DW_CFA_nop:
  DW_CFA_nop:
  DW_CFA_nop:

  0x1000774cc: CFA=reg31
  0x1000774d8: CFA=reg31+64: reg19=[CFA-24], reg20=[CFA-32], reg29=[CFA-16], reg30=[CFA-8]

00003cc8 0000001c 00003ccc FDE cie=00000000 pc=100077830...10007798c
  Format:       DWARF32
  DW_CFA_advance_loc: 4
  DW_CFA_def_cfa_offset: +16
  DW_CFA_offset: reg30 -8
  DW_CFA_offset: reg29 -16

  0x100077830: CFA=reg31
  0x100077834: CFA=reg31+16: reg29=[CFA-16], reg30=[CFA-8]

00003ce8 0000001c 00003cec FDE cie=00000000 pc=100408f20...100408f38
  Format:       DWARF32
  DW_CFA_advance_loc: 8
  DW_CFA_def_cfa_offset: +48
  DW_CFA_offset: reg30 -8
  DW_CFA_offset: reg29 -16

  0x100408f20: CFA=reg31
  0x100408f28: CFA=reg31+48: reg29=[CFA-16], reg30=[CFA-8]

00003d08 00000024 00003d0c FDE cie=00000000 pc=10007798c...100077ac8
  Format:       DWARF32
  DW_CFA_advance_loc: 8
  DW_CFA_def_cfa_offset: +32
  DW_CFA_offset: reg30 -8
  DW_CFA_offset: reg29 -16
  DW_CFA_offset: reg19 -24
  DW_CFA_offset: reg20 -32
  DW_CFA_nop:
  DW_CFA_nop:
  DW_CFA_nop:
  DW_CFA_nop:

  0x10007798c: CFA=reg31
  0x100077994: CFA=reg31+32: reg19=[CFA-24], reg20=[CFA-32], reg29=[CFA-16], reg30=[CFA-8]

00003d30 00000024 00003d34 FDE cie=00000000 pc=10007a8f4...10007aa40
  Format:       DWARF32
  DW_CFA_advance_loc: 16
  DW_CFA_def_cfa_offset: +96
  DW_CFA_offset: reg30 -8
  DW_CFA_offset: reg29 -16
  DW_CFA_offset: reg19 -24
  DW_CFA_offset: reg20 -32
  DW_CFA_offset: reg21 -40
  DW_CFA_offset: reg22 -48

  0x10007a8f4: CFA=reg31
  0x10007a904: CFA=reg31+96: reg19=[CFA-24], reg20=[CFA-32], reg21=[CFA-40], reg22=[CFA-48], reg29=[CFA-16], reg30=[CFA-8]

00003d58 00000024 00003d5c FDE cie=00000000 pc=10007aa40...10007b134
  Format:       DWARF32
  DW_CFA_advance_loc: 12
  DW_CFA_def_cfa_offset: +128
  DW_CFA_offset: reg30 -8
  DW_CFA_offset: reg29 -16
  DW_CFA_offset: reg19 -24
  DW_CFA_offset: reg20 -32
  DW_CFA_nop:
  DW_CFA_nop:
  DW_CFA_nop:

  0x10007aa40: CFA=reg31
  0x10007aa4c: CFA=reg31+128: reg19=[CFA-24], reg20=[CFA-32], reg29=[CFA-16], reg30=[CFA-8]

00003d80 00000024 00003d84 FDE cie=00000000 pc=10007b548...10007b768
  Format:       DWARF32
  DW_CFA_advance_loc: 12
  DW_CFA_def_cfa_offset: +112
  DW_CFA_offset: reg30 -8
  DW_CFA_offset: reg29 -16
  DW_CFA_offset: reg19 -24
  DW_CFA_offset: reg20 -32
  DW_CFA_nop:
  DW_CFA_nop:
  DW_CFA_nop:
  DW_CFA_nop:

  0x10007b548: CFA=reg31
  0x10007b554: CFA=reg31+112: reg19=[CFA-24], reg20=[CFA-32], reg29=[CFA-16], reg30=[CFA-8]

00003da8 00000024 00003dac FDE cie=00000000 pc=100408f38...100408fe4
  Format:       DWARF32
  DW_CFA_advance_loc: 12
  DW_CFA_def_cfa_offset: +80
  DW_CFA_offset: reg30 -8
  DW_CFA_offset: reg29 -16
  DW_CFA_offset: reg19 -24
  DW_CFA_offset: reg20 -32
  DW_CFA_nop:
  DW_CFA_nop:
  DW_CFA_nop:
  DW_CFA_nop:

  0x100408f38: CFA=reg31
  0x100408f44: CFA=reg31+80: reg19=[CFA-24], reg20=[CFA-32], reg29=[CFA-16], reg30=[CFA-8]

00003dd0 0000001c 00003dd4 FDE cie=00000000 pc=10007bfac...10007bfcc
  Format:       DWARF32
  DW_CFA_advance_loc: 8
  DW_CFA_def_cfa_offset: +48
  DW_CFA_offset: reg30 -8
  DW_CFA_offset: reg29 -16

  0x10007bfac: CFA=reg31
  0x10007bfb4: CFA=reg31+48: reg29=[CFA-16], reg30=[CFA-8]

00003df0 0000001c 00003df4 FDE cie=00000000 pc=10007bfcc...10007bff4
  Format:       DWARF32
  DW_CFA_advance_loc: 8
  DW_CFA_def_cfa_offset: +32
  DW_CFA_offset: reg30 -8
  DW_CFA_offset: reg29 -16

  0x10007bfcc: CFA=reg31
  0x10007bfd4: CFA=reg31+32: reg29=[CFA-16], reg30=[CFA-8]

00003e10 00000024 00003e14 FDE cie=00000000 pc=10007bff4...10007c03c
  Format:       DWARF32
  DW_CFA_advance_loc: 8
  DW_CFA_def_cfa_offset: +32
  DW_CFA_offset: reg30 -8
  DW_CFA_offset: reg29 -16
  DW_CFA_offset: reg19 -24
  DW_CFA_offset: reg20 -32
  DW_CFA_nop:
  DW_CFA_nop:
  DW_CFA_nop:
  DW_CFA_nop:

  0x10007bff4: CFA=reg31
  0x10007bffc: CFA=reg31+32: reg19=[CFA-24], reg20=[CFA-32], reg29=[CFA-16], reg30=[CFA-8]

00003e38 0000001c 00003e3c FDE cie=00000000 pc=10007c03c...10007c05c
  Format:       DWARF32
  DW_CFA_advance_loc: 4
  DW_CFA_def_cfa_offset: +16
  DW_CFA_offset: reg30 -8
  DW_CFA_offset: reg29 -16

  0x10007c03c: CFA=reg31
  0x10007c040: CFA=reg31+16: reg29=[CFA-16], reg30=[CFA-8]

00003e58 0000001c 00003e5c FDE cie=00000000 pc=10007c070...10007c0c8
  Format:       DWARF32
  DW_CFA_advance_loc: 8
  DW_CFA_def_cfa_offset: +80
  DW_CFA_offset: reg30 -8
  DW_CFA_offset: reg29 -16

  0x10007c070: CFA=reg31
  0x10007c078: CFA=reg31+80: reg29=[CFA-16], reg30=[CFA-8]

00003e78 0000001c 00003e7c FDE cie=00000000 pc=10007c0f8...10007c194
  Format:       DWARF32
  DW_CFA_advance_loc: 8
  DW_CFA_def_cfa_offset: +96
  DW_CFA_offset: reg30 -8
  DW_CFA_offset: reg29 -16

  0x10007c0f8: CFA=reg31
  0x10007c100: CFA=reg31+96: reg29=[CFA-16], reg30=[CFA-8]

00003e98 0000001c 00003e9c FDE cie=00000000 pc=10007c194...10007c2f8
  Format:       DWARF32
  DW_CFA_advance_loc: 8
  DW_CFA_def_cfa_offset: +96
  DW_CFA_offset: reg30 -8
  DW_CFA_offset: reg29 -16

  0x10007c194: CFA=reg31
  0x10007c19c: CFA=reg31+96: reg29=[CFA-16], reg30=[CFA-8]

00003eb8 0000001c 00003ebc FDE cie=00000000 pc=100408fe4...100409030
  Format:       DWARF32
  DW_CFA_advance_loc: 8
  DW_CFA_def_cfa_offset: +80
  DW_CFA_offset: reg30 -8
  DW_CFA_offset: reg29 -16

  0x100408fe4: CFA=reg31
  0x100408fec: CFA=reg31+80: reg29=[CFA-16], reg30=[CFA-8]

00003ed8 00000024 00003edc FDE cie=00000000 pc=10007c5cc...10007c6c4
  Format:       DWARF32
  DW_CFA_advance_loc: 16
  DW_CFA_def_cfa_offset: +80
  DW_CFA_offset: reg30 -8
  DW_CFA_offset: reg29 -16
  DW_CFA_offset: reg19 -24
  DW_CFA_offset: reg20 -32
  DW_CFA_offset: reg21 -40
  DW_CFA_offset: reg22 -48

  0x10007c5cc: CFA=reg31
  0x10007c5dc: CFA=reg31+80: reg19=[CFA-24], reg20=[CFA-32], reg21=[CFA-40], reg22=[CFA-48], reg29=[CFA-16], reg30=[CFA-8]

00003f00 0000002c 00003f04 FDE cie=00000000 pc=10007c6c4...10007cc7c
  Format:       DWARF32
  DW_CFA_advance_loc: 16
  DW_CFA_def_cfa_offset: +160
  DW_CFA_offset: reg30 -8
  DW_CFA_offset: reg29 -16
  DW_CFA_offset: reg19 -24
  DW_CFA_offset: reg20 -32
  DW_CFA_offset: reg21 -40
  DW_CFA_offset: reg22 -48
  DW_CFA_nop:
  DW_CFA_nop:
  DW_CFA_nop:
  DW_CFA_nop:
  DW_CFA_nop:
  DW_CFA_nop:
  DW_CFA_nop:

  0x10007c6c4: CFA=reg31
  0x10007c6d4: CFA=reg31+160: reg19=[CFA-24], reg20=[CFA-32], reg21=[CFA-40], reg22=[CFA-48], reg29=[CFA-16], reg30=[CFA-8]

00003f30 00000024 00003f34 FDE cie=00000000 pc=10007cc84...10007cecc
  Format:       DWARF32
  DW_CFA_advance_loc: 12
  DW_CFA_def_cfa_offset: +64
  DW_CFA_offset: reg30 -8
  DW_CFA_offset: reg29 -16
  DW_CFA_offset: reg19 -24
  DW_CFA_offset: reg20 -32
  DW_CFA_nop:
  DW_CFA_nop:
  DW_CFA_nop:
  DW_CFA_nop:

  0x10007cc84: CFA=reg31
  0x10007cc90: CFA=reg31+64: reg19=[CFA-24], reg20=[CFA-32], reg29=[CFA-16], reg30=[CFA-8]

00003f58 0000002c 00003f5c FDE cie=00000000 pc=10007cecc...10007cfec
  Format:       DWARF32
  DW_CFA_advance_loc: 16
  DW_CFA_def_cfa_offset: +160
  DW_CFA_offset: reg30 -8
  DW_CFA_offset: reg29 -16
  DW_CFA_offset: reg19 -24
  DW_CFA_offset: reg20 -32
  DW_CFA_offset: reg21 -40
  DW_CFA_offset: reg22 -48
  DW_CFA_nop:
  DW_CFA_nop:
  DW_CFA_nop:
  DW_CFA_nop:
  DW_CFA_nop:
  DW_CFA_nop:
  DW_CFA_nop:

  0x10007cecc: CFA=reg31
  0x10007cedc: CFA=reg31+160: reg19=[CFA-24], reg20=[CFA-32], reg21=[CFA-40], reg22=[CFA-48], reg29=[CFA-16], reg30=[CFA-8]

00003f88 0000001c 00003f8c FDE cie=00000000 pc=10007cfec...10007d0e8
  Format:       DWARF32
  DW_CFA_advance_loc: 8
  DW_CFA_def_cfa_offset: +32
  DW_CFA_offset: reg30 -8
  DW_CFA_offset: reg29 -16

  0x10007cfec: CFA=reg31
  0x10007cff4: CFA=reg31+32: reg29=[CFA-16], reg30=[CFA-8]

00003fa8 0000001c 00003fac FDE cie=00000000 pc=10007d0e8...10007d12c
  Format:       DWARF32
  DW_CFA_advance_loc: 8
  DW_CFA_def_cfa_offset: +80
  DW_CFA_offset: reg30 -8
  DW_CFA_offset: reg29 -16

  0x10007d0e8: CFA=reg31
  0x10007d0f0: CFA=reg31+80: reg29=[CFA-16], reg30=[CFA-8]

00003fc8 0000001c 00003fcc FDE cie=00000000 pc=10007d12c...10007d170
  Format:       DWARF32
  DW_CFA_advance_loc: 8
  DW_CFA_def_cfa_offset: +80
  DW_CFA_offset: reg30 -8
  DW_CFA_offset: reg29 -16

  0x10007d12c: CFA=reg31
  0x10007d134: CFA=reg31+80: reg29=[CFA-16], reg30=[CFA-8]

00003fe8 00000034 00003fec FDE cie=00000000 pc=10007d170...10007d910
  Format:       DWARF32
  DW_CFA_advance_loc: 24
  DW_CFA_def_cfa_offset: +352
  DW_CFA_offset: reg30 -8
  DW_CFA_offset: reg29 -16
  DW_CFA_offset: reg19 -24
  DW_CFA_offset: reg20 -32
  DW_CFA_offset: reg21 -40
  DW_CFA_offset: reg22 -48
  DW_CFA_offset: reg23 -56
  DW_CFA_offset: reg24 -64
  DW_CFA_offset: reg25 -72
  DW_CFA_offset: reg26 -80
  DW_CFA_nop:
  DW_CFA_nop:
  DW_CFA_nop:
  DW_CFA_nop:
  DW_CFA_nop:
  DW_CFA_nop:
  DW_CFA_nop:

  0x10007d170: CFA=reg31
  0x10007d188: CFA=reg31+352: reg19=[CFA-24], reg20=[CFA-32], reg21=[CFA-40], reg22=[CFA-48], reg23=[CFA-56], reg24=[CFA-64], reg25=[CFA-72], reg26=[CFA-80], reg29=[CFA-16], reg30=[CFA-8]

00004020 00000024 00004024 FDE cie=00000000 pc=10007d910...10007d9d8
  Format:       DWARF32
  DW_CFA_advance_loc: 12
  DW_CFA_def_cfa_offset: +64
  DW_CFA_offset: reg30 -8
  DW_CFA_offset: reg29 -16
  DW_CFA_offset: reg19 -24
  DW_CFA_offset: reg20 -32
  DW_CFA_nop:
  DW_CFA_nop:
  DW_CFA_nop:
  DW_CFA_nop:

  0x10007d910: CFA=reg31
  0x10007d91c: CFA=reg31+64: reg19=[CFA-24], reg20=[CFA-32], reg29=[CFA-16], reg30=[CFA-8]

00004048 00000024 0000404c FDE cie=00000000 pc=10007d9d8...10007dc44
  Format:       DWARF32
  DW_CFA_advance_loc: 12
  DW_CFA_def_cfa_offset: +48
  DW_CFA_offset: reg30 -8
  DW_CFA_offset: reg29 -16
  DW_CFA_offset: reg19 -24
  DW_CFA_offset: reg20 -32
  DW_CFA_offset: reg21 -40
  DW_CFA_offset: reg22 -48

  0x10007d9d8: CFA=reg31
  0x10007d9e4: CFA=reg31+48: reg19=[CFA-24], reg20=[CFA-32], reg21=[CFA-40], reg22=[CFA-48], reg29=[CFA-16], reg30=[CFA-8]

00004070 0000001c 00004074 FDE cie=00000000 pc=100409030...100409074
  Format:       DWARF32
  DW_CFA_advance_loc: 8
  DW_CFA_def_cfa_offset: +80
  DW_CFA_offset: reg30 -8
  DW_CFA_offset: reg29 -16

  0x100409030: CFA=reg31
  0x100409038: CFA=reg31+80: reg29=[CFA-16], reg30=[CFA-8]

00004090 00000024 00004094 FDE cie=00000000 pc=10007de2c...10007df08
  Format:       DWARF32
  DW_CFA_advance_loc: 12
  DW_CFA_def_cfa_offset: +64
  DW_CFA_offset: reg30 -8
  DW_CFA_offset: reg29 -16
  DW_CFA_offset: reg19 -24
  DW_CFA_offset: reg20 -32
  DW_CFA_nop:
  DW_CFA_nop:
  DW_CFA_nop:
  DW_CFA_nop:

  0x10007de2c: CFA=reg31
  0x10007de38: CFA=reg31+64: reg19=[CFA-24], reg20=[CFA-32], reg29=[CFA-16], reg30=[CFA-8]

000040b8 0000001c 000040bc FDE cie=00000000 pc=10007df08...10007e048
  Format:       DWARF32
  DW_CFA_advance_loc: 8
  DW_CFA_def_cfa_offset: +96
  DW_CFA_offset: reg30 -8
  DW_CFA_offset: reg29 -16

  0x10007df08: CFA=reg31
  0x10007df10: CFA=reg31+96: reg29=[CFA-16], reg30=[CFA-8]

000040d8 00000024 000040dc FDE cie=00000000 pc=10007e050...10007e360
  Format:       DWARF32
  DW_CFA_advance_loc: 16
  DW_CFA_def_cfa_offset: +80
  DW_CFA_offset: reg30 -8
  DW_CFA_offset: reg29 -16
  DW_CFA_offset: reg19 -24
  DW_CFA_offset: reg20 -32
  DW_CFA_offset: reg21 -40
  DW_CFA_offset: reg22 -48

  0x10007e050: CFA=reg31
  0x10007e060: CFA=reg31+80: reg19=[CFA-24], reg20=[CFA-32], reg21=[CFA-40], reg22=[CFA-48], reg29=[CFA-16], reg30=[CFA-8]

00004100 00000024 00004104 FDE cie=00000000 pc=10007e360...10007e594
  Format:       DWARF32
  DW_CFA_advance_loc: 12
  DW_CFA_def_cfa_offset: +64
  DW_CFA_offset: reg30 -8
  DW_CFA_offset: reg29 -16
  DW_CFA_offset: reg19 -24
  DW_CFA_offset: reg20 -32
  DW_CFA_nop:
  DW_CFA_nop:
  DW_CFA_nop:
  DW_CFA_nop:

  0x10007e360: CFA=reg31
  0x10007e36c: CFA=reg31+64: reg19=[CFA-24], reg20=[CFA-32], reg29=[CFA-16], reg30=[CFA-8]

00004128 00000024 0000412c FDE cie=00000000 pc=10007e594...10007e77c
  Format:       DWARF32
  DW_CFA_advance_loc: 12
  DW_CFA_def_cfa_offset: +64
  DW_CFA_offset: reg30 -8
  DW_CFA_offset: reg29 -16
  DW_CFA_offset: reg19 -24
  DW_CFA_offset: reg20 -32
  DW_CFA_nop:
  DW_CFA_nop:
  DW_CFA_nop:
  DW_CFA_nop:

  0x10007e594: CFA=reg31
  0x10007e5a0: CFA=reg31+64: reg19=[CFA-24], reg20=[CFA-32], reg29=[CFA-16], reg30=[CFA-8]

00004150 00000024 00004154 FDE cie=00000000 pc=10007e77c...10007e810
  Format:       DWARF32
  DW_CFA_advance_loc: 8
  DW_CFA_def_cfa_offset: +144
  DW_CFA_offset: reg30 -8
  DW_CFA_offset: reg29 -16
  DW_CFA_nop:
  DW_CFA_nop:
  DW_CFA_nop:
  DW_CFA_nop:
  DW_CFA_nop:
  DW_CFA_nop:
  DW_CFA_nop:

  0x10007e77c: CFA=reg31
  0x10007e784: CFA=reg31+144: reg29=[CFA-16], reg30=[CFA-8]

00004178 00000024 0000417c FDE cie=00000000 pc=10007e850...10007e9bc
  Format:       DWARF32
  DW_CFA_advance_loc: 12
  DW_CFA_def_cfa_offset: +224
  DW_CFA_offset: reg30 -8
  DW_CFA_offset: reg29 -16
  DW_CFA_offset: reg19 -24
  DW_CFA_offset: reg20 -32
  DW_CFA_nop:
  DW_CFA_nop:
  DW_CFA_nop:

  0x10007e850: CFA=reg31
  0x10007e85c: CFA=reg31+224: reg19=[CFA-24], reg20=[CFA-32], reg29=[CFA-16], reg30=[CFA-8]

000041a0 0000001c 000041a4 FDE cie=00000000 pc=10007e9bc...10007eb18
  Format:       DWARF32
  DW_CFA_advance_loc: 8
  DW_CFA_def_cfa_offset: +64
  DW_CFA_offset: reg30 -8
  DW_CFA_offset: reg29 -16

  0x10007e9bc: CFA=reg31
  0x10007e9c4: CFA=reg31+64: reg29=[CFA-16], reg30=[CFA-8]

000041c0 00000024 000041c4 FDE cie=00000000 pc=10007eb18...10007ec90
  Format:       DWARF32
  DW_CFA_advance_loc: 12
  DW_CFA_def_cfa_offset: +224
  DW_CFA_offset: reg30 -8
  DW_CFA_offset: reg29 -16
  DW_CFA_offset: reg19 -24
  DW_CFA_offset: reg20 -32
  DW_CFA_nop:
  DW_CFA_nop:
  DW_CFA_nop:

  0x10007eb18: CFA=reg31
  0x10007eb24: CFA=reg31+224: reg19=[CFA-24], reg20=[CFA-32], reg29=[CFA-16], reg30=[CFA-8]

000041e8 00000034 000041ec FDE cie=00000000 pc=10007ec90...10007eebc
  Format:       DWARF32
  DW_CFA_advance_loc: 24
  DW_CFA_def_cfa_offset: +288
  DW_CFA_offset: reg30 -8
  DW_CFA_offset: reg29 -16
  DW_CFA_offset: reg19 -24
  DW_CFA_offset: reg20 -32
  DW_CFA_offset: reg21 -40
  DW_CFA_offset: reg22 -48
  DW_CFA_offset: reg23 -56
  DW_CFA_offset: reg24 -64
  DW_CFA_offset: reg27 -72
  DW_CFA_offset: reg28 -80
  DW_CFA_nop:
  DW_CFA_nop:
  DW_CFA_nop:
  DW_CFA_nop:
  DW_CFA_nop:
  DW_CFA_nop:
  DW_CFA_nop:

  0x10007ec90: CFA=reg31
  0x10007eca8: CFA=reg31+288: reg19=[CFA-24], reg20=[CFA-32], reg21=[CFA-40], reg22=[CFA-48], reg23=[CFA-56], reg24=[CFA-64], reg27=[CFA-72], reg28=[CFA-80], reg29=[CFA-16], reg30=[CFA-8]

00004220 0000002c 00004224 FDE cie=00000000 pc=10007eebc...10007f3c0
  Format:       DWARF32
  DW_CFA_advance_loc: 20
  DW_CFA_def_cfa_offset: +208
  DW_CFA_offset: reg30 -8
  DW_CFA_offset: reg29 -16
  DW_CFA_offset: reg19 -24
  DW_CFA_offset: reg20 -32
  DW_CFA_offset: reg21 -40
  DW_CFA_offset: reg22 -48
  DW_CFA_offset: reg23 -56
  DW_CFA_offset: reg24 -64
  DW_CFA_nop:
  DW_CFA_nop:
  DW_CFA_nop:

  0x10007eebc: CFA=reg31
  0x10007eed0: CFA=reg31+208: reg19=[CFA-24], reg20=[CFA-32], reg21=[CFA-40], reg22=[CFA-48], reg23=[CFA-56], reg24=[CFA-64], reg29=[CFA-16], reg30=[CFA-8]

00004250 0000002c 00004254 FDE cie=00000000 pc=10007f3dc...10007f8e0
  Format:       DWARF32
  DW_CFA_advance_loc: 20
  DW_CFA_def_cfa_offset: +208
  DW_CFA_offset: reg30 -8
  DW_CFA_offset: reg29 -16
  DW_CFA_offset: reg19 -24
  DW_CFA_offset: reg20 -32
  DW_CFA_offset: reg21 -40
  DW_CFA_offset: reg22 -48
  DW_CFA_offset: reg23 -56
  DW_CFA_offset: reg24 -64
  DW_CFA_nop:
  DW_CFA_nop:
  DW_CFA_nop:

  0x10007f3dc: CFA=reg31
  0x10007f3f0: CFA=reg31+208: reg19=[CFA-24], reg20=[CFA-32], reg21=[CFA-40], reg22=[CFA-48], reg23=[CFA-56], reg24=[CFA-64], reg29=[CFA-16], reg30=[CFA-8]

00004280 0000001c 00004284 FDE cie=00000000 pc=1000818d8...100081930
  Format:       DWARF32
  DW_CFA_advance_loc: 8
  DW_CFA_def_cfa_offset: +80
  DW_CFA_offset: reg30 -8
  DW_CFA_offset: reg29 -16

  0x1000818d8: CFA=reg31
  0x1000818e0: CFA=reg31+80: reg29=[CFA-16], reg30=[CFA-8]

000042a0 0000001c 000042a4 FDE cie=00000000 pc=100081930...100081988
  Format:       DWARF32
  DW_CFA_advance_loc: 8
  DW_CFA_def_cfa_offset: +80
  DW_CFA_offset: reg30 -8
  DW_CFA_offset: reg29 -16

  0x100081930: CFA=reg31
  0x100081938: CFA=reg31+80: reg29=[CFA-16], reg30=[CFA-8]

000042c0 0000001c 000042c4 FDE cie=00000000 pc=100081988...100081ae8
  Format:       DWARF32
  DW_CFA_advance_loc: 8
  DW_CFA_def_cfa_offset: +64
  DW_CFA_offset: reg30 -8
  DW_CFA_offset: reg29 -16

  0x100081988: CFA=reg31
  0x100081990: CFA=reg31+64: reg29=[CFA-16], reg30=[CFA-8]

000042e0 00000024 000042e4 FDE cie=00000000 pc=100081b04...100081bfc
  Format:       DWARF32
  DW_CFA_advance_loc: 16
  DW_CFA_def_cfa_offset: +80
  DW_CFA_offset: reg30 -8
  DW_CFA_offset: reg29 -16
  DW_CFA_offset: reg19 -24
  DW_CFA_offset: reg20 -32
  DW_CFA_offset: reg21 -40
  DW_CFA_offset: reg22 -48

  0x100081b04: CFA=reg31
  0x100081b14: CFA=reg31+80: reg19=[CFA-24], reg20=[CFA-32], reg21=[CFA-40], reg22=[CFA-48], reg29=[CFA-16], reg30=[CFA-8]

00004308 00000024 0000430c FDE cie=00000000 pc=100081bfc...100081cd8
  Format:       DWARF32
  DW_CFA_advance_loc: 12
  DW_CFA_def_cfa_offset: +64
  DW_CFA_offset: reg30 -8
  DW_CFA_offset: reg29 -16
  DW_CFA_offset: reg19 -24
  DW_CFA_offset: reg20 -32
  DW_CFA_nop:
  DW_CFA_nop:
  DW_CFA_nop:
  DW_CFA_nop:

  0x100081bfc: CFA=reg31
  0x100081c08: CFA=reg31+64: reg19=[CFA-24], reg20=[CFA-32], reg29=[CFA-16], reg30=[CFA-8]

00004330 00000024 00004334 FDE cie=00000000 pc=100081cd8...100081f20
  Format:       DWARF32
  DW_CFA_advance_loc: 8
  DW_CFA_def_cfa_offset: +144
  DW_CFA_offset: reg30 -8
  DW_CFA_offset: reg29 -16
  DW_CFA_nop:
  DW_CFA_nop:
  DW_CFA_nop:
  DW_CFA_nop:
  DW_CFA_nop:
  DW_CFA_nop:
  DW_CFA_nop:

  0x100081cd8: CFA=reg31
  0x100081ce0: CFA=reg31+144: reg29=[CFA-16], reg30=[CFA-8]

00004358 00000024 0000435c FDE cie=00000000 pc=100081f3c...100082004
  Format:       DWARF32
  DW_CFA_advance_loc: 12
  DW_CFA_def_cfa_offset: +64
  DW_CFA_offset: reg30 -8
  DW_CFA_offset: reg29 -16
  DW_CFA_offset: reg19 -24
  DW_CFA_offset: reg20 -32
  DW_CFA_nop:
  DW_CFA_nop:
  DW_CFA_nop:
  DW_CFA_nop:

  0x100081f3c: CFA=reg31
  0x100081f48: CFA=reg31+64: reg19=[CFA-24], reg20=[CFA-32], reg29=[CFA-16], reg30=[CFA-8]

00004380 0000001c 00004384 FDE cie=00000000 pc=100082004...100082198
  Format:       DWARF32
  DW_CFA_advance_loc: 8
  DW_CFA_def_cfa_offset: +32
  DW_CFA_offset: reg30 -8
  DW_CFA_offset: reg29 -16

  0x100082004: CFA=reg31
  0x10008200c: CFA=reg31+32: reg29=[CFA-16], reg30=[CFA-8]

000043a0 0000002c 000043a4 FDE cie=00000000 pc=100082198...100082590
  Format:       DWARF32
  DW_CFA_advance_loc: 16
  DW_CFA_def_cfa_offset: +304
  DW_CFA_offset: reg30 -8
  DW_CFA_offset: reg29 -16
  DW_CFA_offset: reg19 -24
  DW_CFA_offset: reg20 -32
  DW_CFA_offset: reg27 -40
  DW_CFA_offset: reg28 -48
  DW_CFA_nop:
  DW_CFA_nop:
  DW_CFA_nop:
  DW_CFA_nop:
  DW_CFA_nop:
  DW_CFA_nop:
  DW_CFA_nop:

  0x100082198: CFA=reg31
  0x1000821a8: CFA=reg31+304: reg19=[CFA-24], reg20=[CFA-32], reg27=[CFA-40], reg28=[CFA-48], reg29=[CFA-16], reg30=[CFA-8]

000043d0 00000024 000043d4 FDE cie=00000000 pc=100409074...10040914c
  Format:       DWARF32
  DW_CFA_advance_loc: 12
  DW_CFA_def_cfa_offset: +80
  DW_CFA_offset: reg30 -8
  DW_CFA_offset: reg29 -16
  DW_CFA_offset: reg19 -24
  DW_CFA_offset: reg20 -32
  DW_CFA_nop:
  DW_CFA_nop:
  DW_CFA_nop:
  DW_CFA_nop:

  0x100409074: CFA=reg31
  0x100409080: CFA=reg31+80: reg19=[CFA-24], reg20=[CFA-32], reg29=[CFA-16], reg30=[CFA-8]

000043f8 0000002c 000043fc FDE cie=00000000 pc=10008524c...1000855fc
  Format:       DWARF32
  DW_CFA_advance_loc: 16
  DW_CFA_def_cfa_offset: +288
  DW_CFA_offset: reg30 -8
  DW_CFA_offset: reg29 -16
  DW_CFA_offset: reg19 -24
  DW_CFA_offset: reg20 -32
  DW_CFA_offset: reg21 -40
  DW_CFA_offset: reg22 -48
  DW_CFA_nop:
  DW_CFA_nop:
  DW_CFA_nop:
  DW_CFA_nop:
  DW_CFA_nop:
  DW_CFA_nop:
  DW_CFA_nop:

  0x10008524c: CFA=reg31
  0x10008525c: CFA=reg31+288: reg19=[CFA-24], reg20=[CFA-32], reg21=[CFA-40], reg22=[CFA-48], reg29=[CFA-16], reg30=[CFA-8]

00004428 0000002c 0000442c FDE cie=00000000 pc=100085638...1000857bc
  Format:       DWARF32
  DW_CFA_advance_loc: 16
  DW_CFA_def_cfa_offset: +224
  DW_CFA_offset: reg30 -8
  DW_CFA_offset: reg29 -16
  DW_CFA_offset: reg19 -24
  DW_CFA_offset: reg20 -32
  DW_CFA_offset: reg21 -40
  DW_CFA_offset: reg22 -48
  DW_CFA_nop:
  DW_CFA_nop:
  DW_CFA_nop:
  DW_CFA_nop:
  DW_CFA_nop:
  DW_CFA_nop:
  DW_CFA_nop:

  0x100085638: CFA=reg31
  0x100085648: CFA=reg31+224: reg19=[CFA-24], reg20=[CFA-32], reg21=[CFA-40], reg22=[CFA-48], reg29=[CFA-16], reg30=[CFA-8]

00004458 0000002c 0000445c FDE cie=00000000 pc=1000857bc...100085958
  Format:       DWARF32
  DW_CFA_advance_loc: 16
  DW_CFA_def_cfa_offset: +240
  DW_CFA_offset: reg30 -8
  DW_CFA_offset: reg29 -16
  DW_CFA_offset: reg19 -24
  DW_CFA_offset: reg20 -32
  DW_CFA_offset: reg21 -40
  DW_CFA_offset: reg22 -48
  DW_CFA_nop:
  DW_CFA_nop:
  DW_CFA_nop:
  DW_CFA_nop:
  DW_CFA_nop:
  DW_CFA_nop:
  DW_CFA_nop:

  0x1000857bc: CFA=reg31
  0x1000857cc: CFA=reg31+240: reg19=[CFA-24], reg20=[CFA-32], reg21=[CFA-40], reg22=[CFA-48], reg29=[CFA-16], reg30=[CFA-8]

00004488 0000001c 0000448c FDE cie=00000000 pc=100085958...100085a4c
  Format:       DWARF32
  DW_CFA_advance_loc: 4
  DW_CFA_def_cfa_offset: +16
  DW_CFA_offset: reg30 -8
  DW_CFA_offset: reg29 -16

  0x100085958: CFA=reg31
  0x10008595c: CFA=reg31+16: reg29=[CFA-16], reg30=[CFA-8]

000044a8 00000024 000044ac FDE cie=00000000 pc=100085a4c...100085be8
  Format:       DWARF32
  DW_CFA_advance_loc: 12
  DW_CFA_def_cfa_offset: +64
  DW_CFA_offset: reg30 -8
  DW_CFA_offset: reg29 -16
  DW_CFA_offset: reg19 -24
  DW_CFA_offset: reg20 -32
  DW_CFA_nop:
  DW_CFA_nop:
  DW_CFA_nop:
  DW_CFA_nop:

  0x100085a4c: CFA=reg31
  0x100085a58: CFA=reg31+64: reg19=[CFA-24], reg20=[CFA-32], reg29=[CFA-16], reg30=[CFA-8]

000044d0 00000024 000044d4 FDE cie=00000000 pc=100085bfc...100085de0
  Format:       DWARF32
  DW_CFA_advance_loc: 12
  DW_CFA_def_cfa_offset: +64
  DW_CFA_offset: reg30 -8
  DW_CFA_offset: reg29 -16
  DW_CFA_offset: reg19 -24
  DW_CFA_offset: reg20 -32
  DW_CFA_nop:
  DW_CFA_nop:
  DW_CFA_nop:
  DW_CFA_nop:

  0x100085bfc: CFA=reg31
  0x100085c08: CFA=reg31+64: reg19=[CFA-24], reg20=[CFA-32], reg29=[CFA-16], reg30=[CFA-8]

000044f8 00000024 000044fc FDE cie=00000000 pc=100085de0...100085f64
  Format:       DWARF32
  DW_CFA_advance_loc: 12
  DW_CFA_def_cfa_offset: +192
  DW_CFA_offset: reg30 -8
  DW_CFA_offset: reg29 -16
  DW_CFA_offset: reg19 -24
  DW_CFA_offset: reg20 -32
  DW_CFA_nop:
  DW_CFA_nop:
  DW_CFA_nop:

  0x100085de0: CFA=reg31
  0x100085dec: CFA=reg31+192: reg19=[CFA-24], reg20=[CFA-32], reg29=[CFA-16], reg30=[CFA-8]

00004520 00000024 00004524 FDE cie=00000000 pc=100085f64...100086108
  Format:       DWARF32
  DW_CFA_advance_loc: 12
  DW_CFA_def_cfa_offset: +64
  DW_CFA_offset: reg30 -8
  DW_CFA_offset: reg29 -16
  DW_CFA_offset: reg19 -24
  DW_CFA_offset: reg20 -32
  DW_CFA_nop:
  DW_CFA_nop:
  DW_CFA_nop:
  DW_CFA_nop:

  0x100085f64: CFA=reg31
  0x100085f70: CFA=reg31+64: reg19=[CFA-24], reg20=[CFA-32], reg29=[CFA-16], reg30=[CFA-8]

00004548 0000002c 0000454c FDE cie=00000000 pc=100086108...100086838
  Format:       DWARF32
  DW_CFA_advance_loc: 20
  DW_CFA_def_cfa_offset: +224
  DW_CFA_offset: reg30 -8
  DW_CFA_offset: reg29 -16
  DW_CFA_offset: reg19 -24
  DW_CFA_offset: reg20 -32
  DW_CFA_offset: reg21 -40
  DW_CFA_offset: reg22 -48
  DW_CFA_offset: reg23 -56
  DW_CFA_offset: reg24 -64
  DW_CFA_nop:
  DW_CFA_nop:
  DW_CFA_nop:

  0x100086108: CFA=reg31
  0x10008611c: CFA=reg31+224: reg19=[CFA-24], reg20=[CFA-32], reg21=[CFA-40], reg22=[CFA-48], reg23=[CFA-56], reg24=[CFA-64], reg29=[CFA-16], reg30=[CFA-8]

00004578 0000001c 0000457c FDE cie=00000000 pc=100086838...1000869cc
  Format:       DWARF32
  DW_CFA_advance_loc: 8
  DW_CFA_def_cfa_offset: +32
  DW_CFA_offset: reg30 -8
  DW_CFA_offset: reg29 -16

  0x100086838: CFA=reg31
  0x100086840: CFA=reg31+32: reg29=[CFA-16], reg30=[CFA-8]

00004598 0000001c 0000459c FDE cie=00000000 pc=1000869cc...100086b60
  Format:       DWARF32
  DW_CFA_advance_loc: 8
  DW_CFA_def_cfa_offset: +32
  DW_CFA_offset: reg30 -8
  DW_CFA_offset: reg29 -16

  0x1000869cc: CFA=reg31
  0x1000869d4: CFA=reg31+32: reg29=[CFA-16], reg30=[CFA-8]

000045b8 00000034 000045bc FDE cie=00000000 pc=100086cf0...10008723c
  Format:       DWARF32
  DW_CFA_advance_loc: 28
  DW_CFA_def_cfa_offset: +256
  DW_CFA_offset: reg30 -8
  DW_CFA_offset: reg29 -16
  DW_CFA_offset: reg19 -24
  DW_CFA_offset: reg20 -32
  DW_CFA_offset: reg21 -40
  DW_CFA_offset: reg22 -48
  DW_CFA_offset: reg23 -56
  DW_CFA_offset: reg24 -64
  DW_CFA_offset: reg25 -72
  DW_CFA_offset: reg26 -80
  DW_CFA_offset: reg27 -88
  DW_CFA_offset: reg28 -96
  DW_CFA_nop:
  DW_CFA_nop:
  DW_CFA_nop:

  0x100086cf0: CFA=reg31
  0x100086d0c: CFA=reg31+256: reg19=[CFA-24], reg20=[CFA-32], reg21=[CFA-40], reg22=[CFA-48], reg23=[CFA-56], reg24=[CFA-64], reg25=[CFA-72], reg26=[CFA-80], reg27=[CFA-88], reg28=[CFA-96], reg29=[CFA-16], reg30=[CFA-8]

000045f0 00000024 000045f4 FDE cie=00000000 pc=10008723c...100087488
  Format:       DWARF32
  DW_CFA_advance_loc: 16
  DW_CFA_def_cfa_offset: +64
  DW_CFA_offset: reg30 -8
  DW_CFA_offset: reg29 -16
  DW_CFA_offset: reg19 -24
  DW_CFA_offset: reg20 -32
  DW_CFA_offset: reg21 -40
  DW_CFA_offset: reg22 -48

  0x10008723c: CFA=reg31
  0x10008724c: CFA=reg31+64: reg19=[CFA-24], reg20=[CFA-32], reg21=[CFA-40], reg22=[CFA-48], reg29=[CFA-16], reg30=[CFA-8]

00004618 0000001c 0000461c FDE cie=00000000 pc=100087488...10008761c
  Format:       DWARF32
  DW_CFA_advance_loc: 8
  DW_CFA_def_cfa_offset: +32
  DW_CFA_offset: reg30 -8
  DW_CFA_offset: reg29 -16

  0x100087488: CFA=reg31
  0x100087490: CFA=reg31+32: reg29=[CFA-16], reg30=[CFA-8]

00004638 00000024 0000463c FDE cie=00000000 pc=10008761c...100087740
  Format:       DWARF32
  DW_CFA_advance_loc: 12
  DW_CFA_def_cfa_offset: +48
  DW_CFA_offset: reg30 -8
  DW_CFA_offset: reg29 -16
  DW_CFA_offset: reg19 -24
  DW_CFA_offset: reg20 -32
  DW_CFA_offset: reg21 -40
  DW_CFA_offset: reg22 -48

  0x10008761c: CFA=reg31
  0x100087628: CFA=reg31+48: reg19=[CFA-24], reg20=[CFA-32], reg21=[CFA-40], reg22=[CFA-48], reg29=[CFA-16], reg30=[CFA-8]

00004660 0000002c 00004664 FDE cie=00000000 pc=100087740...1000878b8
  Format:       DWARF32
  DW_CFA_advance_loc: 20
  DW_CFA_def_cfa_offset: +336
  DW_CFA_offset: reg30 -8
  DW_CFA_offset: reg29 -16
  DW_CFA_offset: reg19 -24
  DW_CFA_offset: reg20 -32
  DW_CFA_offset: reg21 -40
  DW_CFA_offset: reg22 -48
  DW_CFA_offset: reg27 -56
  DW_CFA_offset: reg28 -64
  DW_CFA_nop:
  DW_CFA_nop:
  DW_CFA_nop:

  0x100087740: CFA=reg31
  0x100087754: CFA=reg31+336: reg19=[CFA-24], reg20=[CFA-32], reg21=[CFA-40], reg22=[CFA-48], reg27=[CFA-56], reg28=[CFA-64], reg29=[CFA-16], reg30=[CFA-8]

00004690 0000002c 00004694 FDE cie=00000000 pc=100087a1c...100087c50
  Format:       DWARF32
  DW_CFA_advance_loc: 20
  DW_CFA_def_cfa_offset: +112
  DW_CFA_offset: reg30 -8
  DW_CFA_offset: reg29 -16
  DW_CFA_offset: reg19 -24
  DW_CFA_offset: reg20 -32
  DW_CFA_offset: reg21 -40
  DW_CFA_offset: reg22 -48
  DW_CFA_offset: reg23 -56
  DW_CFA_offset: reg24 -64
  DW_CFA_nop:
  DW_CFA_nop:
  DW_CFA_nop:
  DW_CFA_nop:

  0x100087a1c: CFA=reg31
  0x100087a30: CFA=reg31+112: reg19=[CFA-24], reg20=[CFA-32], reg21=[CFA-40], reg22=[CFA-48], reg23=[CFA-56], reg24=[CFA-64], reg29=[CFA-16], reg30=[CFA-8]

000046c0 00000024 000046c4 FDE cie=00000000 pc=1004095fc...1004096cc
  Format:       DWARF32
  DW_CFA_advance_loc: 12
  DW_CFA_def_cfa_offset: +80
  DW_CFA_offset: reg30 -8
  DW_CFA_offset: reg29 -16
  DW_CFA_offset: reg19 -24
  DW_CFA_offset: reg20 -32
  DW_CFA_nop:
  DW_CFA_nop:
  DW_CFA_nop:
  DW_CFA_nop:

  0x1004095fc: CFA=reg31
  0x100409608: CFA=reg31+80: reg19=[CFA-24], reg20=[CFA-32], reg29=[CFA-16], reg30=[CFA-8]

000046e8 00000024 000046ec FDE cie=00000000 pc=100087c98...100087dc4
  Format:       DWARF32
  DW_CFA_advance_loc: 12
  DW_CFA_def_cfa_offset: +48
  DW_CFA_offset: reg30 -8
  DW_CFA_offset: reg29 -16
  DW_CFA_offset: reg19 -24
  DW_CFA_offset: reg20 -32
  DW_CFA_offset: reg21 -40
  DW_CFA_offset: reg22 -48

  0x100087c98: CFA=reg31
  0x100087ca4: CFA=reg31+48: reg19=[CFA-24], reg20=[CFA-32], reg21=[CFA-40], reg22=[CFA-48], reg29=[CFA-16], reg30=[CFA-8]

00004710 00000034 00004714 FDE cie=00000000 pc=100087dc4...1000883a8
  Format:       DWARF32
  DW_CFA_advance_loc: 28
  DW_CFA_def_cfa_offset: +304
  DW_CFA_offset: reg30 -8
  DW_CFA_offset: reg29 -16
  DW_CFA_offset: reg19 -24
  DW_CFA_offset: reg20 -32
  DW_CFA_offset: reg21 -40
  DW_CFA_offset: reg22 -48
  DW_CFA_offset: reg23 -56
  DW_CFA_offset: reg24 -64
  DW_CFA_offset: reg25 -72
  DW_CFA_offset: reg26 -80
  DW_CFA_offset: reg27 -88
  DW_CFA_offset: reg28 -96
  DW_CFA_nop:
  DW_CFA_nop:
  DW_CFA_nop:

  0x100087dc4: CFA=reg31
  0x100087de0: CFA=reg31+304: reg19=[CFA-24], reg20=[CFA-32], reg21=[CFA-40], reg22=[CFA-48], reg23=[CFA-56], reg24=[CFA-64], reg25=[CFA-72], reg26=[CFA-80], reg27=[CFA-88], reg28=[CFA-96], reg29=[CFA-16], reg30=[CFA-8]

00004748 00000024 0000474c FDE cie=00000000 pc=1000883a8...1000884c8
  Format:       DWARF32
  DW_CFA_advance_loc: 12
  DW_CFA_def_cfa_offset: +64
  DW_CFA_offset: reg30 -8
  DW_CFA_offset: reg29 -16
  DW_CFA_offset: reg19 -24
  DW_CFA_offset: reg20 -32
  DW_CFA_nop:
  DW_CFA_nop:
  DW_CFA_nop:
  DW_CFA_nop:

  0x1000883a8: CFA=reg31
  0x1000883b4: CFA=reg31+64: reg19=[CFA-24], reg20=[CFA-32], reg29=[CFA-16], reg30=[CFA-8]

00004770 00000024 00004774 FDE cie=00000000 pc=1000884c8...1000885b4
  Format:       DWARF32
  DW_CFA_advance_loc: 12
  DW_CFA_def_cfa_offset: +64
  DW_CFA_offset: reg30 -8
  DW_CFA_offset: reg29 -16
  DW_CFA_offset: reg19 -24
  DW_CFA_offset: reg20 -32
  DW_CFA_nop:
  DW_CFA_nop:
  DW_CFA_nop:
  DW_CFA_nop:

  0x1000884c8: CFA=reg31
  0x1000884d4: CFA=reg31+64: reg19=[CFA-24], reg20=[CFA-32], reg29=[CFA-16], reg30=[CFA-8]

00004798 00000024 0000479c FDE cie=00000000 pc=1000885cc...1000886d0
  Format:       DWARF32
  DW_CFA_advance_loc: 12
  DW_CFA_def_cfa_offset: +64
  DW_CFA_offset: reg30 -8
  DW_CFA_offset: reg29 -16
  DW_CFA_offset: reg19 -24
  DW_CFA_offset: reg20 -32
  DW_CFA_nop:
  DW_CFA_nop:
  DW_CFA_nop:
  DW_CFA_nop:

  0x1000885cc: CFA=reg31
  0x1000885d8: CFA=reg31+64: reg19=[CFA-24], reg20=[CFA-32], reg29=[CFA-16], reg30=[CFA-8]

000047c0 00000024 000047c4 FDE cie=00000000 pc=1000886d0...1000887c8
  Format:       DWARF32
  DW_CFA_advance_loc: 16
  DW_CFA_def_cfa_offset: +80
  DW_CFA_offset: reg30 -8
  DW_CFA_offset: reg29 -16
  DW_CFA_offset: reg19 -24
  DW_CFA_offset: reg20 -32
  DW_CFA_offset: reg21 -40
  DW_CFA_offset: reg22 -48

  0x1000886d0: CFA=reg31
  0x1000886e0: CFA=reg31+80: reg19=[CFA-24], reg20=[CFA-32], reg21=[CFA-40], reg22=[CFA-48], reg29=[CFA-16], reg30=[CFA-8]

000047e8 00000024 000047ec FDE cie=00000000 pc=1000887c8...1000888c0
  Format:       DWARF32
  DW_CFA_advance_loc: 16
  DW_CFA_def_cfa_offset: +80
  DW_CFA_offset: reg30 -8
  DW_CFA_offset: reg29 -16
  DW_CFA_offset: reg19 -24
  DW_CFA_offset: reg20 -32
  DW_CFA_offset: reg21 -40
  DW_CFA_offset: reg22 -48

  0x1000887c8: CFA=reg31
  0x1000887d8: CFA=reg31+80: reg19=[CFA-24], reg20=[CFA-32], reg21=[CFA-40], reg22=[CFA-48], reg29=[CFA-16], reg30=[CFA-8]

00004810 00000024 00004814 FDE cie=00000000 pc=1000888c0...10008899c
  Format:       DWARF32
  DW_CFA_advance_loc: 12
  DW_CFA_def_cfa_offset: +64
  DW_CFA_offset: reg30 -8
  DW_CFA_offset: reg29 -16
  DW_CFA_offset: reg19 -24
  DW_CFA_offset: reg20 -32
  DW_CFA_nop:
  DW_CFA_nop:
  DW_CFA_nop:
  DW_CFA_nop:

  0x1000888c0: CFA=reg31
  0x1000888cc: CFA=reg31+64: reg19=[CFA-24], reg20=[CFA-32], reg29=[CFA-16], reg30=[CFA-8]

00004838 00000024 0000483c FDE cie=00000000 pc=10008899c...100088aa0
  Format:       DWARF32
  DW_CFA_advance_loc: 12
  DW_CFA_def_cfa_offset: +64
  DW_CFA_offset: reg30 -8
  DW_CFA_offset: reg29 -16
  DW_CFA_offset: reg19 -24
  DW_CFA_offset: reg20 -32
  DW_CFA_nop:
  DW_CFA_nop:
  DW_CFA_nop:
  DW_CFA_nop:

  0x10008899c: CFA=reg31
  0x1000889a8: CFA=reg31+64: reg19=[CFA-24], reg20=[CFA-32], reg29=[CFA-16], reg30=[CFA-8]

00004860 00000024 00004864 FDE cie=00000000 pc=100088aa0...100088b68
  Format:       DWARF32
  DW_CFA_advance_loc: 12
  DW_CFA_def_cfa_offset: +64
  DW_CFA_offset: reg30 -8
  DW_CFA_offset: reg29 -16
  DW_CFA_offset: reg19 -24
  DW_CFA_offset: reg20 -32
  DW_CFA_nop:
  DW_CFA_nop:
  DW_CFA_nop:
  DW_CFA_nop:

  0x100088aa0: CFA=reg31
  0x100088aac: CFA=reg31+64: reg19=[CFA-24], reg20=[CFA-32], reg29=[CFA-16], reg30=[CFA-8]

00004888 00000024 0000488c FDE cie=00000000 pc=100088b68...100088c30
  Format:       DWARF32
  DW_CFA_advance_loc: 12
  DW_CFA_def_cfa_offset: +64
  DW_CFA_offset: reg30 -8
  DW_CFA_offset: reg29 -16
  DW_CFA_offset: reg19 -24
  DW_CFA_offset: reg20 -32
  DW_CFA_nop:
  DW_CFA_nop:
  DW_CFA_nop:
  DW_CFA_nop:

  0x100088b68: CFA=reg31
  0x100088b74: CFA=reg31+64: reg19=[CFA-24], reg20=[CFA-32], reg29=[CFA-16], reg30=[CFA-8]

000048b0 00000024 000048b4 FDE cie=00000000 pc=100088c30...100088d34
  Format:       DWARF32
  DW_CFA_advance_loc: 12
  DW_CFA_def_cfa_offset: +64
  DW_CFA_offset: reg30 -8
  DW_CFA_offset: reg29 -16
  DW_CFA_offset: reg19 -24
  DW_CFA_offset: reg20 -32
  DW_CFA_nop:
  DW_CFA_nop:
  DW_CFA_nop:
  DW_CFA_nop:

  0x100088c30: CFA=reg31
  0x100088c3c: CFA=reg31+64: reg19=[CFA-24], reg20=[CFA-32], reg29=[CFA-16], reg30=[CFA-8]

000048d8 00000024 000048dc FDE cie=00000000 pc=100088d34...100088e2c
  Format:       DWARF32
  DW_CFA_advance_loc: 16
  DW_CFA_def_cfa_offset: +80
  DW_CFA_offset: reg30 -8
  DW_CFA_offset: reg29 -16
  DW_CFA_offset: reg19 -24
  DW_CFA_offset: reg20 -32
  DW_CFA_offset: reg21 -40
  DW_CFA_offset: reg22 -48

  0x100088d34: CFA=reg31
  0x100088d44: CFA=reg31+80: reg19=[CFA-24], reg20=[CFA-32], reg21=[CFA-40], reg22=[CFA-48], reg29=[CFA-16], reg30=[CFA-8]

00004900 00000024 00004904 FDE cie=00000000 pc=100088e2c...100088f28
  Format:       DWARF32
  DW_CFA_advance_loc: 12
  DW_CFA_def_cfa_offset: +64
  DW_CFA_offset: reg30 -8
  DW_CFA_offset: reg29 -16
  DW_CFA_offset: reg19 -24
  DW_CFA_offset: reg20 -32
  DW_CFA_nop:
  DW_CFA_nop:
  DW_CFA_nop:
  DW_CFA_nop:

  0x100088e2c: CFA=reg31
  0x100088e38: CFA=reg31+64: reg19=[CFA-24], reg20=[CFA-32], reg29=[CFA-16], reg30=[CFA-8]

00004928 00000024 0000492c FDE cie=00000000 pc=100088f28...100089014
  Format:       DWARF32
  DW_CFA_advance_loc: 12
  DW_CFA_def_cfa_offset: +64
  DW_CFA_offset: reg30 -8
  DW_CFA_offset: reg29 -16
  DW_CFA_offset: reg19 -24
  DW_CFA_offset: reg20 -32
  DW_CFA_nop:
  DW_CFA_nop:
  DW_CFA_nop:
  DW_CFA_nop:

  0x100088f28: CFA=reg31
  0x100088f34: CFA=reg31+64: reg19=[CFA-24], reg20=[CFA-32], reg29=[CFA-16], reg30=[CFA-8]

00004950 00000024 00004954 FDE cie=00000000 pc=100089014...100089118
  Format:       DWARF32
  DW_CFA_advance_loc: 12
  DW_CFA_def_cfa_offset: +64
  DW_CFA_offset: reg30 -8
  DW_CFA_offset: reg29 -16
  DW_CFA_offset: reg19 -24
  DW_CFA_offset: reg20 -32
  DW_CFA_nop:
  DW_CFA_nop:
  DW_CFA_nop:
  DW_CFA_nop:

  0x100089014: CFA=reg31
  0x100089020: CFA=reg31+64: reg19=[CFA-24], reg20=[CFA-32], reg29=[CFA-16], reg30=[CFA-8]

00004978 00000024 0000497c FDE cie=00000000 pc=100089118...100089348
  Format:       DWARF32
  DW_CFA_advance_loc: 8
  DW_CFA_def_cfa_offset: +144
  DW_CFA_offset: reg30 -8
  DW_CFA_offset: reg29 -16
  DW_CFA_nop:
  DW_CFA_nop:
  DW_CFA_nop:
  DW_CFA_nop:
  DW_CFA_nop:
  DW_CFA_nop:
  DW_CFA_nop:

  0x100089118: CFA=reg31
  0x100089120: CFA=reg31+144: reg29=[CFA-16], reg30=[CFA-8]

000049a0 00000024 000049a4 FDE cie=00000000 pc=100089348...100089440
  Format:       DWARF32
  DW_CFA_advance_loc: 16
  DW_CFA_def_cfa_offset: +80
  DW_CFA_offset: reg30 -8
  DW_CFA_offset: reg29 -16
  DW_CFA_offset: reg19 -24
  DW_CFA_offset: reg20 -32
  DW_CFA_offset: reg21 -40
  DW_CFA_offset: reg22 -48

  0x100089348: CFA=reg31
  0x100089358: CFA=reg31+80: reg19=[CFA-24], reg20=[CFA-32], reg21=[CFA-40], reg22=[CFA-48], reg29=[CFA-16], reg30=[CFA-8]

000049c8 00000024 000049cc FDE cie=00000000 pc=100089918...10008996c
  Format:       DWARF32
  DW_CFA_advance_loc: 8
  DW_CFA_def_cfa_offset: +32
  DW_CFA_offset: reg30 -8
  DW_CFA_offset: reg29 -16
  DW_CFA_offset: reg19 -24
  DW_CFA_offset: reg20 -32
  DW_CFA_nop:
  DW_CFA_nop:
  DW_CFA_nop:
  DW_CFA_nop:

  0x100089918: CFA=reg31
  0x100089920: CFA=reg31+32: reg19=[CFA-24], reg20=[CFA-32], reg29=[CFA-16], reg30=[CFA-8]

000049f0 00000024 000049f4 FDE cie=00000000 pc=1000899ac...100089a0c
  Format:       DWARF32
  DW_CFA_advance_loc: 8
  DW_CFA_def_cfa_offset: +32
  DW_CFA_offset: reg30 -8
  DW_CFA_offset: reg29 -16
  DW_CFA_offset: reg19 -24
  DW_CFA_offset: reg20 -32
  DW_CFA_nop:
  DW_CFA_nop:
  DW_CFA_nop:
  DW_CFA_nop:

  0x1000899ac: CFA=reg31
  0x1000899b4: CFA=reg31+32: reg19=[CFA-24], reg20=[CFA-32], reg29=[CFA-16], reg30=[CFA-8]

00004a18 00000024 00004a1c FDE cie=00000000 pc=10008a6c4...10008a718
  Format:       DWARF32
  DW_CFA_advance_loc: 8
  DW_CFA_def_cfa_offset: +32
  DW_CFA_offset: reg30 -8
  DW_CFA_offset: reg29 -16
  DW_CFA_offset: reg19 -24
  DW_CFA_offset: reg20 -32
  DW_CFA_nop:
  DW_CFA_nop:
  DW_CFA_nop:
  DW_CFA_nop:

  0x10008a6c4: CFA=reg31
  0x10008a6cc: CFA=reg31+32: reg19=[CFA-24], reg20=[CFA-32], reg29=[CFA-16], reg30=[CFA-8]

00004a40 00000024 00004a44 FDE cie=00000000 pc=10008a718...10008a8a0
  Format:       DWARF32
  DW_CFA_advance_loc: 12
  DW_CFA_def_cfa_offset: +192
  DW_CFA_offset: reg30 -8
  DW_CFA_offset: reg29 -16
  DW_CFA_offset: reg19 -24
  DW_CFA_offset: reg20 -32
  DW_CFA_nop:
  DW_CFA_nop:
  DW_CFA_nop:

  0x10008a718: CFA=reg31
  0x10008a724: CFA=reg31+192: reg19=[CFA-24], reg20=[CFA-32], reg29=[CFA-16], reg30=[CFA-8]

00004a68 0000002c 00004a6c FDE cie=00000000 pc=10008a8a0...10008aa4c
  Format:       DWARF32
  DW_CFA_advance_loc: 20
  DW_CFA_def_cfa_offset: +176
  DW_CFA_offset: reg30 -8
  DW_CFA_offset: reg29 -16
  DW_CFA_offset: reg19 -24
  DW_CFA_offset: reg20 -32
  DW_CFA_offset: reg21 -40
  DW_CFA_offset: reg22 -48
  DW_CFA_offset: reg23 -56
  DW_CFA_offset: reg24 -64
  DW_CFA_nop:
  DW_CFA_nop:
  DW_CFA_nop:

  0x10008a8a0: CFA=reg31
  0x10008a8b4: CFA=reg31+176: reg19=[CFA-24], reg20=[CFA-32], reg21=[CFA-40], reg22=[CFA-48], reg23=[CFA-56], reg24=[CFA-64], reg29=[CFA-16], reg30=[CFA-8]

00004a98 00000034 00004a9c FDE cie=00000000 pc=10008aa4c...10008abec
  Format:       DWARF32
  DW_CFA_advance_loc: 24
  DW_CFA_def_cfa_offset: +176
  DW_CFA_offset: reg30 -8
  DW_CFA_offset: reg29 -16
  DW_CFA_offset: reg19 -24
  DW_CFA_offset: reg20 -32
  DW_CFA_offset: reg21 -40
  DW_CFA_offset: reg22 -48
  DW_CFA_offset: reg23 -56
  DW_CFA_offset: reg24 -64
  DW_CFA_offset: reg25 -72
  DW_CFA_offset: reg26 -80
  DW_CFA_nop:
  DW_CFA_nop:
  DW_CFA_nop:
  DW_CFA_nop:
  DW_CFA_nop:
  DW_CFA_nop:
  DW_CFA_nop:

  0x10008aa4c: CFA=reg31
  0x10008aa64: CFA=reg31+176: reg19=[CFA-24], reg20=[CFA-32], reg21=[CFA-40], reg22=[CFA-48], reg23=[CFA-56], reg24=[CFA-64], reg25=[CFA-72], reg26=[CFA-80], reg29=[CFA-16], reg30=[CFA-8]

00004ad0 00000024 00004ad4 FDE cie=00000000 pc=10008d710...10008d814
  Format:       DWARF32
  DW_CFA_advance_loc: 16
  DW_CFA_def_cfa_offset: +64
  DW_CFA_offset: reg30 -8
  DW_CFA_offset: reg29 -16
  DW_CFA_offset: reg19 -24
  DW_CFA_offset: reg20 -32
  DW_CFA_offset: reg21 -40
  DW_CFA_offset: reg22 -48

  0x10008d710: CFA=reg31
  0x10008d720: CFA=reg31+64: reg19=[CFA-24], reg20=[CFA-32], reg21=[CFA-40], reg22=[CFA-48], reg29=[CFA-16], reg30=[CFA-8]

00004af8 0000002c 00004afc FDE cie=00000000 pc=10008d814...10008dffc
  Format:       DWARF32
  DW_CFA_advance_loc: 24
  DW_CFA_def_cfa_offset: +96
  DW_CFA_offset: reg30 -8
  DW_CFA_offset: reg29 -16
  DW_CFA_offset: reg19 -24
  DW_CFA_offset: reg20 -32
  DW_CFA_offset: reg21 -40
  DW_CFA_offset: reg22 -48
  DW_CFA_offset: reg23 -56
  DW_CFA_offset: reg24 -64
  DW_CFA_offset: reg25 -72
  DW_CFA_offset: reg26 -80

  0x10008d814: CFA=reg31
  0x10008d82c: CFA=reg31+96: reg19=[CFA-24], reg20=[CFA-32], reg21=[CFA-40], reg22=[CFA-48], reg23=[CFA-56], reg24=[CFA-64], reg25=[CFA-72], reg26=[CFA-80], reg29=[CFA-16], reg30=[CFA-8]

00004b28 0000002c 00004b2c FDE cie=00000000 pc=10008dffc...10008e1a4
  Format:       DWARF32
  DW_CFA_advance_loc: 20
  DW_CFA_def_cfa_offset: +80
  DW_CFA_offset: reg30 -8
  DW_CFA_offset: reg29 -16
  DW_CFA_offset: reg19 -24
  DW_CFA_offset: reg20 -32
  DW_CFA_offset: reg21 -40
  DW_CFA_offset: reg22 -48
  DW_CFA_offset: reg23 -56
  DW_CFA_offset: reg24 -64
  DW_CFA_nop:
  DW_CFA_nop:
  DW_CFA_nop:
  DW_CFA_nop:

  0x10008dffc: CFA=reg31
  0x10008e010: CFA=reg31+80: reg19=[CFA-24], reg20=[CFA-32], reg21=[CFA-40], reg22=[CFA-48], reg23=[CFA-56], reg24=[CFA-64], reg29=[CFA-16], reg30=[CFA-8]

00004b58 00000024 00004b5c FDE cie=00000000 pc=10008eacc...10008ec18
  Format:       DWARF32
  DW_CFA_advance_loc: 16
  DW_CFA_def_cfa_offset: +96
  DW_CFA_offset: reg30 -8
  DW_CFA_offset: reg29 -16
  DW_CFA_offset: reg19 -24
  DW_CFA_offset: reg20 -32
  DW_CFA_offset: reg21 -40
  DW_CFA_offset: reg22 -48

  0x10008eacc: CFA=reg31
  0x10008eadc: CFA=reg31+96: reg19=[CFA-24], reg20=[CFA-32], reg21=[CFA-40], reg22=[CFA-48], reg29=[CFA-16], reg30=[CFA-8]

00004b80 0000001c 00004b84 FDE cie=00000000 pc=10008ec18...10008ec34
  Format:       DWARF32
  DW_CFA_advance_loc: 4
  DW_CFA_def_cfa_offset: +16
  DW_CFA_offset: reg30 -8
  DW_CFA_offset: reg29 -16

  0x10008ec18: CFA=reg31
  0x10008ec1c: CFA=reg31+16: reg29=[CFA-16], reg30=[CFA-8]

00004ba0 00000024 00004ba4 FDE cie=00000000 pc=1004096cc...100409794
  Format:       DWARF32
  DW_CFA_advance_loc: 12
  DW_CFA_def_cfa_offset: +80
  DW_CFA_offset: reg30 -8
  DW_CFA_offset: reg29 -16
  DW_CFA_offset: reg19 -24
  DW_CFA_offset: reg20 -32
  DW_CFA_nop:
  DW_CFA_nop:
  DW_CFA_nop:
  DW_CFA_nop:

  0x1004096cc: CFA=reg31
  0x1004096d8: CFA=reg31+80: reg19=[CFA-24], reg20=[CFA-32], reg29=[CFA-16], reg30=[CFA-8]

00004bc8 00000034 00004bcc FDE cie=00000000 pc=10008ecfc...10008f0bc
  Format:       DWARF32
  DW_CFA_advance_loc: 28
  DW_CFA_def_cfa_offset: +112
  DW_CFA_offset: reg30 -8
  DW_CFA_offset: reg29 -16
  DW_CFA_offset: reg19 -24
  DW_CFA_offset: reg20 -32
  DW_CFA_offset: reg21 -40
  DW_CFA_offset: reg22 -48
  DW_CFA_offset: reg23 -56
  DW_CFA_offset: reg24 -64
  DW_CFA_offset: reg25 -72
  DW_CFA_offset: reg26 -80
  DW_CFA_offset: reg27 -88
  DW_CFA_offset: reg28 -96
  DW_CFA_nop:
  DW_CFA_nop:
  DW_CFA_nop:
  DW_CFA_nop:

  0x10008ecfc: CFA=reg31
  0x10008ed18: CFA=reg31+112: reg19=[CFA-24], reg20=[CFA-32], reg21=[CFA-40], reg22=[CFA-48], reg23=[CFA-56], reg24=[CFA-64], reg25=[CFA-72], reg26=[CFA-80], reg27=[CFA-88], reg28=[CFA-96], reg29=[CFA-16], reg30=[CFA-8]

00004c00 00000024 00004c04 FDE cie=00000000 pc=10008f128...10008f238
  Format:       DWARF32
  DW_CFA_advance_loc: 12
  DW_CFA_def_cfa_offset: +48
  DW_CFA_offset: reg30 -8
  DW_CFA_offset: reg29 -16
  DW_CFA_offset: reg19 -24
  DW_CFA_offset: reg20 -32
  DW_CFA_nop:
  DW_CFA_nop:
  DW_CFA_nop:
  DW_CFA_nop:

  0x10008f128: CFA=reg31
  0x10008f134: CFA=reg31+48: reg19=[CFA-24], reg20=[CFA-32], reg29=[CFA-16], reg30=[CFA-8]

00004c28 00000024 00004c2c FDE cie=00000000 pc=10008f238...10008f358
  Format:       DWARF32
  DW_CFA_advance_loc: 16
  DW_CFA_def_cfa_offset: +80
  DW_CFA_offset: reg30 -8
  DW_CFA_offset: reg29 -16
  DW_CFA_offset: reg19 -24
  DW_CFA_offset: reg20 -32
  DW_CFA_offset: reg21 -40
  DW_CFA_offset: reg22 -48

  0x10008f238: CFA=reg31
  0x10008f248: CFA=reg31+80: reg19=[CFA-24], reg20=[CFA-32], reg21=[CFA-40], reg22=[CFA-48], reg29=[CFA-16], reg30=[CFA-8]

00004c50 00000024 00004c54 FDE cie=00000000 pc=10008f358...10008f45c
  Format:       DWARF32
  DW_CFA_advance_loc: 12
  DW_CFA_def_cfa_offset: +48
  DW_CFA_offset: reg30 -8
  DW_CFA_offset: reg29 -16
  DW_CFA_offset: reg19 -24
  DW_CFA_offset: reg20 -32
  DW_CFA_nop:
  DW_CFA_nop:
  DW_CFA_nop:
  DW_CFA_nop:

  0x10008f358: CFA=reg31
  0x10008f364: CFA=reg31+48: reg19=[CFA-24], reg20=[CFA-32], reg29=[CFA-16], reg30=[CFA-8]

00004c78 0000002c 00004c7c FDE cie=00000000 pc=10008f45c...10008f608
  Format:       DWARF32
  DW_CFA_advance_loc: 20
  DW_CFA_def_cfa_offset: +176
  DW_CFA_offset: reg30 -8
  DW_CFA_offset: reg29 -16
  DW_CFA_offset: reg19 -24
  DW_CFA_offset: reg20 -32
  DW_CFA_offset: reg21 -40
  DW_CFA_offset: reg22 -48
  DW_CFA_offset: reg23 -56
  DW_CFA_offset: reg24 -64
  DW_CFA_nop:
  DW_CFA_nop:
  DW_CFA_nop:

  0x10008f45c: CFA=reg31
  0x10008f470: CFA=reg31+176: reg19=[CFA-24], reg20=[CFA-32], reg21=[CFA-40], reg22=[CFA-48], reg23=[CFA-56], reg24=[CFA-64], reg29=[CFA-16], reg30=[CFA-8]

00004ca8 0000002c 00004cac FDE cie=00000000 pc=10008f608...10008f860
  Format:       DWARF32
  DW_CFA_advance_loc: 16
  DW_CFA_def_cfa_offset: +208
  DW_CFA_offset: reg30 -8
  DW_CFA_offset: reg29 -16
  DW_CFA_offset: reg19 -24
  DW_CFA_offset: reg20 -32
  DW_CFA_offset: reg21 -40
  DW_CFA_offset: reg22 -48
  DW_CFA_nop:
  DW_CFA_nop:
  DW_CFA_nop:
  DW_CFA_nop:
  DW_CFA_nop:
  DW_CFA_nop:
  DW_CFA_nop:

  0x10008f608: CFA=reg31
  0x10008f618: CFA=reg31+208: reg19=[CFA-24], reg20=[CFA-32], reg21=[CFA-40], reg22=[CFA-48], reg29=[CFA-16], reg30=[CFA-8]

00004cd8 00000024 00004cdc FDE cie=00000000 pc=10008f860...10008fa7c
  Format:       DWARF32
  DW_CFA_advance_loc: 12
  DW_CFA_def_cfa_offset: +64
  DW_CFA_offset: reg30 -8
  DW_CFA_offset: reg29 -16
  DW_CFA_offset: reg19 -24
  DW_CFA_offset: reg20 -32
  DW_CFA_nop:
  DW_CFA_nop:
  DW_CFA_nop:
  DW_CFA_nop:

  0x10008f860: CFA=reg31
  0x10008f86c: CFA=reg31+64: reg19=[CFA-24], reg20=[CFA-32], reg29=[CFA-16], reg30=[CFA-8]

00004d00 00000024 00004d04 FDE cie=00000000 pc=10008ff64...10009002c
  Format:       DWARF32
  DW_CFA_advance_loc: 12
  DW_CFA_def_cfa_offset: +64
  DW_CFA_offset: reg30 -8
  DW_CFA_offset: reg29 -16
  DW_CFA_offset: reg19 -24
  DW_CFA_offset: reg20 -32
  DW_CFA_nop:
  DW_CFA_nop:
  DW_CFA_nop:
  DW_CFA_nop:

  0x10008ff64: CFA=reg31
  0x10008ff70: CFA=reg31+64: reg19=[CFA-24], reg20=[CFA-32], reg29=[CFA-16], reg30=[CFA-8]

00004d28 00000024 00004d2c FDE cie=00000000 pc=10009002c...100090224
  Format:       DWARF32
  DW_CFA_advance_loc: 12
  DW_CFA_def_cfa_offset: +64
  DW_CFA_offset: reg30 -8
  DW_CFA_offset: reg29 -16
  DW_CFA_offset: reg19 -24
  DW_CFA_offset: reg20 -32
  DW_CFA_nop:
  DW_CFA_nop:
  DW_CFA_nop:
  DW_CFA_nop:

  0x10009002c: CFA=reg31
  0x100090038: CFA=reg31+64: reg19=[CFA-24], reg20=[CFA-32], reg29=[CFA-16], reg30=[CFA-8]

00004d50 00000024 00004d54 FDE cie=00000000 pc=100090224...10009031c
  Format:       DWARF32
  DW_CFA_advance_loc: 16
  DW_CFA_def_cfa_offset: +80
  DW_CFA_offset: reg30 -8
  DW_CFA_offset: reg29 -16
  DW_CFA_offset: reg19 -24
  DW_CFA_offset: reg20 -32
  DW_CFA_offset: reg21 -40
  DW_CFA_offset: reg22 -48

  0x100090224: CFA=reg31
  0x100090234: CFA=reg31+80: reg19=[CFA-24], reg20=[CFA-32], reg21=[CFA-40], reg22=[CFA-48], reg29=[CFA-16], reg30=[CFA-8]

00004d78 00000024 00004d7c FDE cie=00000000 pc=10009031c...10009043c
  Format:       DWARF32
  DW_CFA_advance_loc: 16
  DW_CFA_def_cfa_offset: +80
  DW_CFA_offset: reg30 -8
  DW_CFA_offset: reg29 -16
  DW_CFA_offset: reg19 -24
  DW_CFA_offset: reg20 -32
  DW_CFA_offset: reg21 -40
  DW_CFA_offset: reg22 -48

  0x10009031c: CFA=reg31
  0x10009032c: CFA=reg31+80: reg19=[CFA-24], reg20=[CFA-32], reg21=[CFA-40], reg22=[CFA-48], reg29=[CFA-16], reg30=[CFA-8]

00004da0 00000024 00004da4 FDE cie=00000000 pc=10009043c...100090534
  Format:       DWARF32
  DW_CFA_advance_loc: 16
  DW_CFA_def_cfa_offset: +80
  DW_CFA_offset: reg30 -8
  DW_CFA_offset: reg29 -16
  DW_CFA_offset: reg19 -24
  DW_CFA_offset: reg20 -32
  DW_CFA_offset: reg21 -40
  DW_CFA_offset: reg22 -48

  0x10009043c: CFA=reg31
  0x10009044c: CFA=reg31+80: reg19=[CFA-24], reg20=[CFA-32], reg21=[CFA-40], reg22=[CFA-48], reg29=[CFA-16], reg30=[CFA-8]

00004dc8 00000024 00004dcc FDE cie=00000000 pc=100090534...10009062c
  Format:       DWARF32
  DW_CFA_advance_loc: 16
  DW_CFA_def_cfa_offset: +80
  DW_CFA_offset: reg30 -8
  DW_CFA_offset: reg29 -16
  DW_CFA_offset: reg19 -24
  DW_CFA_offset: reg20 -32
  DW_CFA_offset: reg21 -40
  DW_CFA_offset: reg22 -48

  0x100090534: CFA=reg31
  0x100090544: CFA=reg31+80: reg19=[CFA-24], reg20=[CFA-32], reg21=[CFA-40], reg22=[CFA-48], reg29=[CFA-16], reg30=[CFA-8]

00004df0 0000001c 00004df4 FDE cie=00000000 pc=10009062c...100090648
  Format:       DWARF32
  DW_CFA_advance_loc: 4
  DW_CFA_def_cfa_offset: +16
  DW_CFA_offset: reg30 -8
  DW_CFA_offset: reg29 -16

  0x10009062c: CFA=reg31
  0x100090630: CFA=reg31+16: reg29=[CFA-16], reg30=[CFA-8]

00004e10 0000001c 00004e14 FDE cie=00000000 pc=100090648...100090664
  Format:       DWARF32
  DW_CFA_advance_loc: 4
  DW_CFA_def_cfa_offset: +16
  DW_CFA_offset: reg30 -8
  DW_CFA_offset: reg29 -16

  0x100090648: CFA=reg31
  0x10009064c: CFA=reg31+16: reg29=[CFA-16], reg30=[CFA-8]

00004e30 0000001c 00004e34 FDE cie=00000000 pc=100090664...100090670
  Format:       DWARF32
  DW_CFA_advance_loc: 4
  DW_CFA_def_cfa_offset: +16
  DW_CFA_offset: reg30 -8
  DW_CFA_offset: reg29 -16

  0x100090664: CFA=reg31
  0x100090668: CFA=reg31+16: reg29=[CFA-16], reg30=[CFA-8]

00004e50 00000034 00004e54 FDE cie=00000000 pc=1000910ac...10009543c
  Format:       DWARF32
  DW_CFA_advance_loc: 28
  DW_CFA_def_cfa_offset: +192
  DW_CFA_offset: reg30 -8
  DW_CFA_offset: reg29 -16
  DW_CFA_offset: reg19 -24
  DW_CFA_offset: reg20 -32
  DW_CFA_offset: reg21 -40
  DW_CFA_offset: reg22 -48
  DW_CFA_offset: reg23 -56
  DW_CFA_offset: reg24 -64
  DW_CFA_offset: reg25 -72
  DW_CFA_offset: reg26 -80
  DW_CFA_offset: reg27 -88
  DW_CFA_offset: reg28 -96
  DW_CFA_nop:
  DW_CFA_nop:
  DW_CFA_nop:

  0x1000910ac: CFA=reg31
  0x1000910c8: CFA=reg31+192: reg19=[CFA-24], reg20=[CFA-32], reg21=[CFA-40], reg22=[CFA-48], reg23=[CFA-56], reg24=[CFA-64], reg25=[CFA-72], reg26=[CFA-80], reg27=[CFA-88], reg28=[CFA-96], reg29=[CFA-16], reg30=[CFA-8]

00004e88 00000024 00004e8c FDE cie=00000000 pc=10009543c...1000954bc
  Format:       DWARF32
  DW_CFA_advance_loc: 8
  DW_CFA_def_cfa_offset: +32
  DW_CFA_offset: reg30 -8
  DW_CFA_offset: reg29 -16
  DW_CFA_offset: reg19 -24
  DW_CFA_offset: reg20 -32
  DW_CFA_nop:
  DW_CFA_nop:
  DW_CFA_nop:
  DW_CFA_nop:

  0x10009543c: CFA=reg31
  0x100095444: CFA=reg31+32: reg19=[CFA-24], reg20=[CFA-32], reg29=[CFA-16], reg30=[CFA-8]

00004eb0 00000034 00004eb4 FDE cie=00000000 pc=1000954ec...1000956fc
  Format:       DWARF32
  DW_CFA_advance_loc: 28
  DW_CFA_def_cfa_offset: +176
  DW_CFA_offset: reg30 -8
  DW_CFA_offset: reg29 -16
  DW_CFA_offset: reg19 -24
  DW_CFA_offset: reg20 -32
  DW_CFA_offset: reg21 -40
  DW_CFA_offset: reg22 -48
  DW_CFA_offset: reg23 -56
  DW_CFA_offset: reg24 -64
  DW_CFA_offset: reg25 -72
  DW_CFA_offset: reg26 -80
  DW_CFA_offset: reg27 -88
  DW_CFA_offset: reg28 -96
  DW_CFA_nop:
  DW_CFA_nop:
  DW_CFA_nop:

  0x1000954ec: CFA=reg31
  0x100095508: CFA=reg31+176: reg19=[CFA-24], reg20=[CFA-32], reg21=[CFA-40], reg22=[CFA-48], reg23=[CFA-56], reg24=[CFA-64], reg25=[CFA-72], reg26=[CFA-80], reg27=[CFA-88], reg28=[CFA-96], reg29=[CFA-16], reg30=[CFA-8]

00004ee8 00000024 00004eec FDE cie=00000000 pc=10009572c...100095cc4
  Format:       DWARF32
  DW_CFA_advance_loc: 16
  DW_CFA_def_cfa_offset: +64
  DW_CFA_offset: reg30 -8
  DW_CFA_offset: reg29 -16
  DW_CFA_offset: reg19 -24
  DW_CFA_offset: reg20 -32
  DW_CFA_offset: reg21 -40
  DW_CFA_offset: reg22 -48

  0x10009572c: CFA=reg31
  0x10009573c: CFA=reg31+64: reg19=[CFA-24], reg20=[CFA-32], reg21=[CFA-40], reg22=[CFA-48], reg29=[CFA-16], reg30=[CFA-8]

00004f10 0000001c 00004f14 FDE cie=00000000 pc=100095cc4...100095db4
  Format:       DWARF32
  DW_CFA_advance_loc: 4
  DW_CFA_def_cfa_offset: +16
  DW_CFA_offset: reg30 -8
  DW_CFA_offset: reg29 -16

  0x100095cc4: CFA=reg31
  0x100095cc8: CFA=reg31+16: reg29=[CFA-16], reg30=[CFA-8]

00004f30 0000001c 00004f34 FDE cie=00000000 pc=100095de4...100095e68
  Format:       DWARF32
  DW_CFA_advance_loc: 4
  DW_CFA_def_cfa_offset: +16
  DW_CFA_offset: reg30 -8
  DW_CFA_offset: reg29 -16

  0x100095de4: CFA=reg31
  0x100095de8: CFA=reg31+16: reg29=[CFA-16], reg30=[CFA-8]

00004f50 0000002c 00004f54 FDE cie=00000000 pc=100095e68...100096090
  Format:       DWARF32
  DW_CFA_advance_loc: 20
  DW_CFA_def_cfa_offset: +144
  DW_CFA_offset: reg30 -8
  DW_CFA_offset: reg29 -16
  DW_CFA_offset: reg19 -24
  DW_CFA_offset: reg20 -32
  DW_CFA_offset: reg21 -40
  DW_CFA_offset: reg22 -48
  DW_CFA_offset: reg23 -56
  DW_CFA_offset: reg24 -64
  DW_CFA_nop:
  DW_CFA_nop:
  DW_CFA_nop:

  0x100095e68: CFA=reg31
  0x100095e7c: CFA=reg31+144: reg19=[CFA-24], reg20=[CFA-32], reg21=[CFA-40], reg22=[CFA-48], reg23=[CFA-56], reg24=[CFA-64], reg29=[CFA-16], reg30=[CFA-8]

00004f80 0000001c 00004f84 FDE cie=00000000 pc=100096090...100096108
  Format:       DWARF32
  DW_CFA_advance_loc: 4
  DW_CFA_def_cfa_offset: +16
  DW_CFA_offset: reg30 -8
  DW_CFA_offset: reg29 -16

  0x100096090: CFA=reg31
  0x100096094: CFA=reg31+16: reg29=[CFA-16], reg30=[CFA-8]

00004fa0 00000024 00004fa4 FDE cie=00000000 pc=100096120...100096570
  Format:       DWARF32
  DW_CFA_advance_loc: 8
  DW_CFA_def_cfa_offset: +128
  DW_CFA_offset: reg30 -8
  DW_CFA_offset: reg29 -16
  DW_CFA_nop:
  DW_CFA_nop:
  DW_CFA_nop:
  DW_CFA_nop:
  DW_CFA_nop:
  DW_CFA_nop:
  DW_CFA_nop:

  0x100096120: CFA=reg31
  0x100096128: CFA=reg31+128: reg29=[CFA-16], reg30=[CFA-8]

00004fc8 00000024 00004fcc FDE cie=00000000 pc=1000965a0...10009667c
  Format:       DWARF32
  DW_CFA_advance_loc: 12
  DW_CFA_def_cfa_offset: +64
  DW_CFA_offset: reg30 -8
  DW_CFA_offset: reg29 -16
  DW_CFA_offset: reg19 -24
  DW_CFA_offset: reg20 -32
  DW_CFA_nop:
  DW_CFA_nop:
  DW_CFA_nop:
  DW_CFA_nop:

  0x1000965a0: CFA=reg31
  0x1000965ac: CFA=reg31+64: reg19=[CFA-24], reg20=[CFA-32], reg29=[CFA-16], reg30=[CFA-8]

00004ff0 0000002c 00004ff4 FDE cie=00000000 pc=1000967a4...100096ccc
  Format:       DWARF32
  DW_CFA_advance_loc: 16
  DW_CFA_def_cfa_offset: +160
  DW_CFA_offset: reg30 -8
  DW_CFA_offset: reg29 -16
  DW_CFA_offset: reg19 -24
  DW_CFA_offset: reg20 -32
  DW_CFA_offset: reg21 -40
  DW_CFA_offset: reg22 -48
  DW_CFA_nop:
  DW_CFA_nop:
  DW_CFA_nop:
  DW_CFA_nop:
  DW_CFA_nop:
  DW_CFA_nop:
  DW_CFA_nop:

  0x1000967a4: CFA=reg31
  0x1000967b4: CFA=reg31+160: reg19=[CFA-24], reg20=[CFA-32], reg21=[CFA-40], reg22=[CFA-48], reg29=[CFA-16], reg30=[CFA-8]

00005020 00000024 00005024 FDE cie=00000000 pc=100096ccc...100096e84
  Format:       DWARF32
  DW_CFA_advance_loc: 12
  DW_CFA_def_cfa_offset: +144
  DW_CFA_offset: reg30 -8
  DW_CFA_offset: reg29 -16
  DW_CFA_offset: reg19 -24
  DW_CFA_offset: reg20 -32
  DW_CFA_nop:
  DW_CFA_nop:
  DW_CFA_nop:

  0x100096ccc: CFA=reg31
  0x100096cd8: CFA=reg31+144: reg19=[CFA-24], reg20=[CFA-32], reg29=[CFA-16], reg30=[CFA-8]

00005048 00000034 0000504c FDE cie=00000000 pc=100096e84...100097230
  Format:       DWARF32
  DW_CFA_advance_loc: 28
  DW_CFA_def_cfa_offset: +144
  DW_CFA_offset: reg30 -8
  DW_CFA_offset: reg29 -16
  DW_CFA_offset: reg19 -24
  DW_CFA_offset: reg20 -32
  DW_CFA_offset: reg21 -40
  DW_CFA_offset: reg22 -48
  DW_CFA_offset: reg23 -56
  DW_CFA_offset: reg24 -64
  DW_CFA_offset: reg25 -72
  DW_CFA_offset: reg26 -80
  DW_CFA_offset: reg27 -88
  DW_CFA_offset: reg28 -96
  DW_CFA_nop:
  DW_CFA_nop:
  DW_CFA_nop:

  0x100096e84: CFA=reg31
  0x100096ea0: CFA=reg31+144: reg19=[CFA-24], reg20=[CFA-32], reg21=[CFA-40], reg22=[CFA-48], reg23=[CFA-56], reg24=[CFA-64], reg25=[CFA-72], reg26=[CFA-80], reg27=[CFA-88], reg28=[CFA-96], reg29=[CFA-16], reg30=[CFA-8]

00005080 00000034 00005084 FDE cie=00000000 pc=100097230...100097590
  Format:       DWARF32
  DW_CFA_advance_loc: 28
  DW_CFA_def_cfa_offset: +112
  DW_CFA_offset: reg30 -8
  DW_CFA_offset: reg29 -16
  DW_CFA_offset: reg19 -24
  DW_CFA_offset: reg20 -32
  DW_CFA_offset: reg21 -40
  DW_CFA_offset: reg22 -48
  DW_CFA_offset: reg23 -56
  DW_CFA_offset: reg24 -64
  DW_CFA_offset: reg25 -72
  DW_CFA_offset: reg26 -80
  DW_CFA_offset: reg27 -88
  DW_CFA_offset: reg28 -96
  DW_CFA_nop:
  DW_CFA_nop:
  DW_CFA_nop:
  DW_CFA_nop:

  0x100097230: CFA=reg31
  0x10009724c: CFA=reg31+112: reg19=[CFA-24], reg20=[CFA-32], reg21=[CFA-40], reg22=[CFA-48], reg23=[CFA-56], reg24=[CFA-64], reg25=[CFA-72], reg26=[CFA-80], reg27=[CFA-88], reg28=[CFA-96], reg29=[CFA-16], reg30=[CFA-8]

000050b8 00000024 000050bc FDE cie=00000000 pc=100098930...100098a6c
  Format:       DWARF32
  DW_CFA_advance_loc: 12
  DW_CFA_def_cfa_offset: +80
  DW_CFA_offset: reg30 -8
  DW_CFA_offset: reg29 -16
  DW_CFA_offset: reg19 -24
  DW_CFA_offset: reg20 -32
  DW_CFA_nop:
  DW_CFA_nop:
  DW_CFA_nop:
  DW_CFA_nop:

  0x100098930: CFA=reg31
  0x10009893c: CFA=reg31+80: reg19=[CFA-24], reg20=[CFA-32], reg29=[CFA-16], reg30=[CFA-8]

000050e0 00000024 000050e4 FDE cie=00000000 pc=100098ae8...100098bc4
  Format:       DWARF32
  DW_CFA_advance_loc: 12
  DW_CFA_def_cfa_offset: +64
  DW_CFA_offset: reg30 -8
  DW_CFA_offset: reg29 -16
  DW_CFA_offset: reg19 -24
  DW_CFA_offset: reg20 -32
  DW_CFA_nop:
  DW_CFA_nop:
  DW_CFA_nop:
  DW_CFA_nop:

  0x100098ae8: CFA=reg31
  0x100098af4: CFA=reg31+64: reg19=[CFA-24], reg20=[CFA-32], reg29=[CFA-16], reg30=[CFA-8]

00005108 00000024 0000510c FDE cie=00000000 pc=100098bc4...100098ca0
  Format:       DWARF32
  DW_CFA_advance_loc: 12
  DW_CFA_def_cfa_offset: +64
  DW_CFA_offset: reg30 -8
  DW_CFA_offset: reg29 -16
  DW_CFA_offset: reg19 -24
  DW_CFA_offset: reg20 -32
  DW_CFA_nop:
  DW_CFA_nop:
  DW_CFA_nop:
  DW_CFA_nop:

  0x100098bc4: CFA=reg31
  0x100098bd0: CFA=reg31+64: reg19=[CFA-24], reg20=[CFA-32], reg29=[CFA-16], reg30=[CFA-8]

00005130 00000024 00005134 FDE cie=00000000 pc=100098dd8...100098ea0
  Format:       DWARF32
  DW_CFA_advance_loc: 12
  DW_CFA_def_cfa_offset: +64
  DW_CFA_offset: reg30 -8
  DW_CFA_offset: reg29 -16
  DW_CFA_offset: reg19 -24
  DW_CFA_offset: reg20 -32
  DW_CFA_nop:
  DW_CFA_nop:
  DW_CFA_nop:
  DW_CFA_nop:

  0x100098dd8: CFA=reg31
  0x100098de4: CFA=reg31+64: reg19=[CFA-24], reg20=[CFA-32], reg29=[CFA-16], reg30=[CFA-8]

00005158 00000024 0000515c FDE cie=00000000 pc=100099ac8...100099b34
  Format:       DWARF32
  DW_CFA_advance_loc: 8
  DW_CFA_def_cfa_offset: +32
  DW_CFA_offset: reg30 -8
  DW_CFA_offset: reg29 -16
  DW_CFA_offset: reg19 -24
  DW_CFA_offset: reg20 -32
  DW_CFA_nop:
  DW_CFA_nop:
  DW_CFA_nop:
  DW_CFA_nop:

  0x100099ac8: CFA=reg31
  0x100099ad0: CFA=reg31+32: reg19=[CFA-24], reg20=[CFA-32], reg29=[CFA-16], reg30=[CFA-8]

00005180 0000002c 00005184 FDE cie=00000000 pc=10009bbc8...10009bcd8
  Format:       DWARF32
  DW_CFA_advance_loc: 16
  DW_CFA_def_cfa_offset: +64
  DW_CFA_offset: reg30 -8
  DW_CFA_offset: reg29 -16
  DW_CFA_offset: reg19 -24
  DW_CFA_offset: reg20 -32
  DW_CFA_offset: reg21 -40
  DW_CFA_offset: reg22 -48
  DW_CFA_offset: reg23 -56
  DW_CFA_offset: reg24 -64
  DW_CFA_nop:
  DW_CFA_nop:
  DW_CFA_nop:
  DW_CFA_nop:

  0x10009bbc8: CFA=reg31
  0x10009bbd8: CFA=reg31+64: reg19=[CFA-24], reg20=[CFA-32], reg21=[CFA-40], reg22=[CFA-48], reg23=[CFA-56], reg24=[CFA-64], reg29=[CFA-16], reg30=[CFA-8]

000051b0 00000024 000051b4 FDE cie=00000000 pc=10009c334...10009c42c
  Format:       DWARF32
  DW_CFA_advance_loc: 12
  DW_CFA_def_cfa_offset: +64
  DW_CFA_offset: reg30 -8
  DW_CFA_offset: reg29 -16
  DW_CFA_offset: reg19 -24
  DW_CFA_offset: reg20 -32
  DW_CFA_nop:
  DW_CFA_nop:
  DW_CFA_nop:
  DW_CFA_nop:

  0x10009c334: CFA=reg31
  0x10009c340: CFA=reg31+64: reg19=[CFA-24], reg20=[CFA-32], reg29=[CFA-16], reg30=[CFA-8]

000051d8 00000024 000051dc FDE cie=00000000 pc=10009c488...10009c740
  Format:       DWARF32
  DW_CFA_advance_loc: 12
  DW_CFA_def_cfa_offset: +64
  DW_CFA_offset: reg30 -8
  DW_CFA_offset: reg29 -16
  DW_CFA_offset: reg19 -24
  DW_CFA_offset: reg20 -32
  DW_CFA_nop:
  DW_CFA_nop:
  DW_CFA_nop:
  DW_CFA_nop:

  0x10009c488: CFA=reg31
  0x10009c494: CFA=reg31+64: reg19=[CFA-24], reg20=[CFA-32], reg29=[CFA-16], reg30=[CFA-8]

00005200 0000001c 00005204 FDE cie=00000000 pc=100409794...1004097ac
  Format:       DWARF32
  DW_CFA_advance_loc: 8
  DW_CFA_def_cfa_offset: +48
  DW_CFA_offset: reg30 -8
  DW_CFA_offset: reg29 -16

  0x100409794: CFA=reg31
  0x10040979c: CFA=reg31+48: reg29=[CFA-16], reg30=[CFA-8]

00005220 0000001c 00005224 FDE cie=00000000 pc=10009c8d0...10009c8f0
  Format:       DWARF32
  DW_CFA_advance_loc: 8
  DW_CFA_def_cfa_offset: +48
  DW_CFA_offset: reg30 -8
  DW_CFA_offset: reg29 -16

  0x10009c8d0: CFA=reg31
  0x10009c8d8: CFA=reg31+48: reg29=[CFA-16], reg30=[CFA-8]

00005240 0000001c 00005244 FDE cie=00000000 pc=10009c8f0...10009c918
  Format:       DWARF32
  DW_CFA_advance_loc: 8
  DW_CFA_def_cfa_offset: +32
  DW_CFA_offset: reg30 -8
  DW_CFA_offset: reg29 -16

  0x10009c8f0: CFA=reg31
  0x10009c8f8: CFA=reg31+32: reg29=[CFA-16], reg30=[CFA-8]

00005260 00000024 00005264 FDE cie=00000000 pc=10009c918...10009c960
  Format:       DWARF32
  DW_CFA_advance_loc: 8
  DW_CFA_def_cfa_offset: +32
  DW_CFA_offset: reg30 -8
  DW_CFA_offset: reg29 -16
  DW_CFA_offset: reg19 -24
  DW_CFA_offset: reg20 -32
  DW_CFA_nop:
  DW_CFA_nop:
  DW_CFA_nop:
  DW_CFA_nop:

  0x10009c918: CFA=reg31
  0x10009c920: CFA=reg31+32: reg19=[CFA-24], reg20=[CFA-32], reg29=[CFA-16], reg30=[CFA-8]

00005288 0000001c 0000528c FDE cie=00000000 pc=10009c960...10009c980
  Format:       DWARF32
  DW_CFA_advance_loc: 4
  DW_CFA_def_cfa_offset: +16
  DW_CFA_offset: reg30 -8
  DW_CFA_offset: reg29 -16

  0x10009c960: CFA=reg31
  0x10009c964: CFA=reg31+16: reg29=[CFA-16], reg30=[CFA-8]

000052a8 00000024 000052ac FDE cie=00000000 pc=10009cabc...10009cb18
  Format:       DWARF32
  DW_CFA_advance_loc: 8
  DW_CFA_def_cfa_offset: +32
  DW_CFA_offset: reg30 -8
  DW_CFA_offset: reg29 -16
  DW_CFA_offset: reg19 -24
  DW_CFA_offset: reg20 -32
  DW_CFA_nop:
  DW_CFA_nop:
  DW_CFA_nop:
  DW_CFA_nop:

  0x10009cabc: CFA=reg31
  0x10009cac4: CFA=reg31+32: reg19=[CFA-24], reg20=[CFA-32], reg29=[CFA-16], reg30=[CFA-8]

000052d0 0000001c 000052d4 FDE cie=00000000 pc=10009cc08...10009ccd4
  Format:       DWARF32
  DW_CFA_advance_loc: 8
  DW_CFA_def_cfa_offset: +96
  DW_CFA_offset: reg30 -8
  DW_CFA_offset: reg29 -16

  0x10009cc08: CFA=reg31
  0x10009cc10: CFA=reg31+96: reg29=[CFA-16], reg30=[CFA-8]

000052f0 00000024 000052f4 FDE cie=00000000 pc=10009ccd4...10009d0fc
  Format:       DWARF32
  DW_CFA_advance_loc: 8
  DW_CFA_def_cfa_offset: +128
  DW_CFA_offset: reg30 -8
  DW_CFA_offset: reg29 -16
  DW_CFA_nop:
  DW_CFA_nop:
  DW_CFA_nop:
  DW_CFA_nop:
  DW_CFA_nop:
  DW_CFA_nop:
  DW_CFA_nop:

  0x10009ccd4: CFA=reg31
  0x10009ccdc: CFA=reg31+128: reg29=[CFA-16], reg30=[CFA-8]

00005318 00000024 0000531c FDE cie=00000000 pc=10009d13c...10009d1a0
  Format:       DWARF32
  DW_CFA_advance_loc: 16
  DW_CFA_def_cfa_offset: +48
  DW_CFA_offset: reg30 -8
  DW_CFA_offset: reg29 -16
  DW_CFA_offset: reg19 -24
  DW_CFA_offset: reg20 -32
  DW_CFA_offset: reg21 -40
  DW_CFA_offset: reg22 -48

  0x10009d13c: CFA=reg31
  0x10009d14c: CFA=reg31+48: reg19=[CFA-24], reg20=[CFA-32], reg21=[CFA-40], reg22=[CFA-48], reg29=[CFA-16], reg30=[CFA-8]

00005340 00000024 00005344 FDE cie=00000000 pc=10009d864...10009d8e0
  Format:       DWARF32
  DW_CFA_advance_loc: 8
  DW_CFA_def_cfa_offset: +32
  DW_CFA_offset: reg30 -8
  DW_CFA_offset: reg29 -16
  DW_CFA_offset: reg19 -24
  DW_CFA_offset: reg20 -32
  DW_CFA_nop:
  DW_CFA_nop:
  DW_CFA_nop:
  DW_CFA_nop:

  0x10009d864: CFA=reg31
  0x10009d86c: CFA=reg31+32: reg19=[CFA-24], reg20=[CFA-32], reg29=[CFA-16], reg30=[CFA-8]

00005368 00000024 0000536c FDE cie=00000000 pc=10009dfd4...10009e0c0
  Format:       DWARF32
  DW_CFA_advance_loc: 12
  DW_CFA_def_cfa_offset: +112
  DW_CFA_offset: reg30 -8
  DW_CFA_offset: reg29 -16
  DW_CFA_offset: reg19 -24
  DW_CFA_offset: reg20 -32
  DW_CFA_nop:
  DW_CFA_nop:
  DW_CFA_nop:
  DW_CFA_nop:

  0x10009dfd4: CFA=reg31
  0x10009dfe0: CFA=reg31+112: reg19=[CFA-24], reg20=[CFA-32], reg29=[CFA-16], reg30=[CFA-8]

00005390 0000002c 00005394 FDE cie=00000000 pc=10009e0c0...10009e32c
  Format:       DWARF32
  DW_CFA_advance_loc: 20
  DW_CFA_def_cfa_offset: +80
  DW_CFA_offset: reg30 -8
  DW_CFA_offset: reg29 -16
  DW_CFA_offset: reg19 -24
  DW_CFA_offset: reg20 -32
  DW_CFA_offset: reg21 -40
  DW_CFA_offset: reg22 -48
  DW_CFA_offset: reg23 -56
  DW_CFA_offset: reg24 -64
  DW_CFA_offset: reg25 -72
  DW_CFA_offset: reg26 -80

  0x10009e0c0: CFA=reg31
  0x10009e0d4: CFA=reg31+80: reg19=[CFA-24], reg20=[CFA-32], reg21=[CFA-40], reg22=[CFA-48], reg23=[CFA-56], reg24=[CFA-64], reg25=[CFA-72], reg26=[CFA-80], reg29=[CFA-16], reg30=[CFA-8]

000053c0 00000024 000053c4 FDE cie=00000000 pc=1004097ac...100409880
  Format:       DWARF32
  DW_CFA_advance_loc: 12
  DW_CFA_def_cfa_offset: +80
  DW_CFA_offset: reg30 -8
  DW_CFA_offset: reg29 -16
  DW_CFA_offset: reg19 -24
  DW_CFA_offset: reg20 -32
  DW_CFA_nop:
  DW_CFA_nop:
  DW_CFA_nop:
  DW_CFA_nop:

  0x1004097ac: CFA=reg31
  0x1004097b8: CFA=reg31+80: reg19=[CFA-24], reg20=[CFA-32], reg29=[CFA-16], reg30=[CFA-8]

000053e8 00000024 000053ec FDE cie=00000000 pc=10009ed38...10009ee90
  Format:       DWARF32
  DW_CFA_advance_loc: 12
  DW_CFA_def_cfa_offset: +48
  DW_CFA_offset: reg30 -8
  DW_CFA_offset: reg29 -16
  DW_CFA_offset: reg19 -24
  DW_CFA_offset: reg20 -32
  DW_CFA_nop:
  DW_CFA_nop:
  DW_CFA_nop:
  DW_CFA_nop:

  0x10009ed38: CFA=reg31
  0x10009ed44: CFA=reg31+48: reg19=[CFA-24], reg20=[CFA-32], reg29=[CFA-16], reg30=[CFA-8]

00005410 00000024 00005414 FDE cie=00000000 pc=10009eee8...10009f054
  Format:       DWARF32
  DW_CFA_advance_loc: 12
  DW_CFA_def_cfa_offset: +64
  DW_CFA_offset: reg30 -8
  DW_CFA_offset: reg29 -16
  DW_CFA_offset: reg19 -24
  DW_CFA_offset: reg20 -32
  DW_CFA_nop:
  DW_CFA_nop:
  DW_CFA_nop:
  DW_CFA_nop:

  0x10009eee8: CFA=reg31
  0x10009eef4: CFA=reg31+64: reg19=[CFA-24], reg20=[CFA-32], reg29=[CFA-16], reg30=[CFA-8]

00005438 00000024 0000543c FDE cie=00000000 pc=10009f054...10009f14c
  Format:       DWARF32
  DW_CFA_advance_loc: 16
  DW_CFA_def_cfa_offset: +80
  DW_CFA_offset: reg30 -8
  DW_CFA_offset: reg29 -16
  DW_CFA_offset: reg19 -24
  DW_CFA_offset: reg20 -32
  DW_CFA_offset: reg21 -40
  DW_CFA_offset: reg22 -48

  0x10009f054: CFA=reg31
  0x10009f064: CFA=reg31+80: reg19=[CFA-24], reg20=[CFA-32], reg21=[CFA-40], reg22=[CFA-48], reg29=[CFA-16], reg30=[CFA-8]

00005460 00000024 00005464 FDE cie=00000000 pc=10009f14c...10009f250
  Format:       DWARF32
  DW_CFA_advance_loc: 12
  DW_CFA_def_cfa_offset: +64
  DW_CFA_offset: reg30 -8
  DW_CFA_offset: reg29 -16
  DW_CFA_offset: reg19 -24
  DW_CFA_offset: reg20 -32
  DW_CFA_nop:
  DW_CFA_nop:
  DW_CFA_nop:
  DW_CFA_nop:

  0x10009f14c: CFA=reg31
  0x10009f158: CFA=reg31+64: reg19=[CFA-24], reg20=[CFA-32], reg29=[CFA-16], reg30=[CFA-8]

00005488 00000024 0000548c FDE cie=00000000 pc=10009f250...10009f448
  Format:       DWARF32
  DW_CFA_advance_loc: 12
  DW_CFA_def_cfa_offset: +64
  DW_CFA_offset: reg30 -8
  DW_CFA_offset: reg29 -16
  DW_CFA_offset: reg19 -24
  DW_CFA_offset: reg20 -32
  DW_CFA_nop:
  DW_CFA_nop:
  DW_CFA_nop:
  DW_CFA_nop:

  0x10009f250: CFA=reg31
  0x10009f25c: CFA=reg31+64: reg19=[CFA-24], reg20=[CFA-32], reg29=[CFA-16], reg30=[CFA-8]

000054b0 00000024 000054b4 FDE cie=00000000 pc=10009f450...10009f668
  Format:       DWARF32
  DW_CFA_advance_loc: 16
  DW_CFA_def_cfa_offset: +80
  DW_CFA_offset: reg30 -8
  DW_CFA_offset: reg29 -16
  DW_CFA_offset: reg19 -24
  DW_CFA_offset: reg20 -32
  DW_CFA_offset: reg21 -40
  DW_CFA_offset: reg22 -48

  0x10009f450: CFA=reg31
  0x10009f460: CFA=reg31+80: reg19=[CFA-24], reg20=[CFA-32], reg21=[CFA-40], reg22=[CFA-48], reg29=[CFA-16], reg30=[CFA-8]

000054d8 00000024 000054dc FDE cie=00000000 pc=10009f7a8...10009f8d4
  Format:       DWARF32
  DW_CFA_advance_loc: 12
  DW_CFA_def_cfa_offset: +176
  DW_CFA_offset: reg30 -8
  DW_CFA_offset: reg29 -16
  DW_CFA_offset: reg19 -24
  DW_CFA_offset: reg20 -32
  DW_CFA_nop:
  DW_CFA_nop:
  DW_CFA_nop:

  0x10009f7a8: CFA=reg31
  0x10009f7b4: CFA=reg31+176: reg19=[CFA-24], reg20=[CFA-32], reg29=[CFA-16], reg30=[CFA-8]

00005500 00000024 00005504 FDE cie=00000000 pc=10009f8d4...10009f9f4
  Format:       DWARF32
  DW_CFA_advance_loc: 12
  DW_CFA_def_cfa_offset: +176
  DW_CFA_offset: reg30 -8
  DW_CFA_offset: reg29 -16
  DW_CFA_offset: reg19 -24
  DW_CFA_offset: reg20 -32
  DW_CFA_nop:
  DW_CFA_nop:
  DW_CFA_nop:

  0x10009f8d4: CFA=reg31
  0x10009f8e0: CFA=reg31+176: reg19=[CFA-24], reg20=[CFA-32], reg29=[CFA-16], reg30=[CFA-8]

00005528 00000024 0000552c FDE cie=00000000 pc=10009f9f4...10009fb18
  Format:       DWARF32
  DW_CFA_advance_loc: 12
  DW_CFA_def_cfa_offset: +176
  DW_CFA_offset: reg30 -8
  DW_CFA_offset: reg29 -16
  DW_CFA_offset: reg19 -24
  DW_CFA_offset: reg20 -32
  DW_CFA_nop:
  DW_CFA_nop:
  DW_CFA_nop:

  0x10009f9f4: CFA=reg31
  0x10009fa00: CFA=reg31+176: reg19=[CFA-24], reg20=[CFA-32], reg29=[CFA-16], reg30=[CFA-8]

00005550 0000001c 00005554 FDE cie=00000000 pc=10009fba8...10009fbe8
  Format:       DWARF32
  DW_CFA_advance_loc: 8
  DW_CFA_def_cfa_offset: +64
  DW_CFA_offset: reg30 -8
  DW_CFA_offset: reg29 -16

  0x10009fba8: CFA=reg31
  0x10009fbb0: CFA=reg31+64: reg29=[CFA-16], reg30=[CFA-8]

00005570 0000001c 00005574 FDE cie=00000000 pc=10009fe80...10009fec0
  Format:       DWARF32
  DW_CFA_advance_loc: 8
  DW_CFA_def_cfa_offset: +80
  DW_CFA_offset: reg30 -8
  DW_CFA_offset: reg29 -16

  0x10009fe80: CFA=reg31
  0x10009fe88: CFA=reg31+80: reg29=[CFA-16], reg30=[CFA-8]

00005590 00000034 00005594 FDE cie=00000000 pc=10009fec0...1000a00dc
  Format:       DWARF32
  DW_CFA_advance_loc: 28
  DW_CFA_def_cfa_offset: +208
  DW_CFA_offset: reg30 -8
  DW_CFA_offset: reg29 -16
  DW_CFA_offset: reg19 -24
  DW_CFA_offset: reg20 -32
  DW_CFA_offset: reg21 -40
  DW_CFA_offset: reg22 -48
  DW_CFA_offset: reg23 -56
  DW_CFA_offset: reg24 -64
  DW_CFA_offset: reg25 -72
  DW_CFA_offset: reg26 -80
  DW_CFA_offset: reg27 -88
  DW_CFA_offset: reg28 -96
  DW_CFA_nop:
  DW_CFA_nop:
  DW_CFA_nop:

  0x10009fec0: CFA=reg31
  0x10009fedc: CFA=reg31+208: reg19=[CFA-24], reg20=[CFA-32], reg21=[CFA-40], reg22=[CFA-48], reg23=[CFA-56], reg24=[CFA-64], reg25=[CFA-72], reg26=[CFA-80], reg27=[CFA-88], reg28=[CFA-96], reg29=[CFA-16], reg30=[CFA-8]

000055c8 0000001c 000055cc FDE cie=00000000 pc=1000a3640...1000a3824
  Format:       DWARF32
  DW_CFA_advance_loc: 8
  DW_CFA_def_cfa_offset: +96
  DW_CFA_offset: reg30 -8
  DW_CFA_offset: reg29 -16

  0x1000a3640: CFA=reg31
  0x1000a3648: CFA=reg31+96: reg29=[CFA-16], reg30=[CFA-8]

000055e8 00000024 000055ec FDE cie=00000000 pc=1000a3824...1000a3978
  Format:       DWARF32
  DW_CFA_advance_loc: 12
  DW_CFA_def_cfa_offset: +208
  DW_CFA_offset: reg30 -8
  DW_CFA_offset: reg29 -16
  DW_CFA_offset: reg19 -24
  DW_CFA_offset: reg20 -32
  DW_CFA_nop:
  DW_CFA_nop:
  DW_CFA_nop:

  0x1000a3824: CFA=reg31
  0x1000a3830: CFA=reg31+208: reg19=[CFA-24], reg20=[CFA-32], reg29=[CFA-16], reg30=[CFA-8]

00005610 00000024 00005614 FDE cie=00000000 pc=1000a39ac...1000a3aac
  Format:       DWARF32
  DW_CFA_advance_loc: 12
  DW_CFA_def_cfa_offset: +64
  DW_CFA_offset: reg30 -8
  DW_CFA_offset: reg29 -16
  DW_CFA_offset: reg19 -24
  DW_CFA_offset: reg20 -32
  DW_CFA_nop:
  DW_CFA_nop:
  DW_CFA_nop:
  DW_CFA_nop:

  0x1000a39ac: CFA=reg31
  0x1000a39b8: CFA=reg31+64: reg19=[CFA-24], reg20=[CFA-32], reg29=[CFA-16], reg30=[CFA-8]

00005638 00000024 0000563c FDE cie=00000000 pc=1000a47d0...1000a4840
  Format:       DWARF32
  DW_CFA_advance_loc: 12
  DW_CFA_def_cfa_offset: +48
  DW_CFA_offset: reg30 -8
  DW_CFA_offset: reg29 -16
  DW_CFA_offset: reg19 -24
  DW_CFA_offset: reg20 -32
  DW_CFA_offset: reg21 -40
  DW_CFA_offset: reg22 -48

  0x1000a47d0: CFA=reg31
  0x1000a47dc: CFA=reg31+48: reg19=[CFA-24], reg20=[CFA-32], reg21=[CFA-40], reg22=[CFA-48], reg29=[CFA-16], reg30=[CFA-8]

00005660 00000024 00005664 FDE cie=00000000 pc=1000a4840...1000a4958
  Format:       DWARF32
  DW_CFA_advance_loc: 16
  DW_CFA_def_cfa_offset: +64
  DW_CFA_offset: reg30 -8
  DW_CFA_offset: reg29 -16
  DW_CFA_offset: reg19 -24
  DW_CFA_offset: reg20 -32
  DW_CFA_offset: reg21 -40
  DW_CFA_offset: reg22 -48

  0x1000a4840: CFA=reg31
  0x1000a4850: CFA=reg31+64: reg19=[CFA-24], reg20=[CFA-32], reg21=[CFA-40], reg22=[CFA-48], reg29=[CFA-16], reg30=[CFA-8]

00005688 0000001c 0000568c FDE cie=00000000 pc=1000a4958...1000a498c
  Format:       DWARF32
  DW_CFA_advance_loc: 8
  DW_CFA_def_cfa_offset: +64
  DW_CFA_offset: reg30 -8
  DW_CFA_offset: reg29 -16

  0x1000a4958: CFA=reg31
  0x1000a4960: CFA=reg31+64: reg29=[CFA-16], reg30=[CFA-8]

000056a8 00000024 000056ac FDE cie=00000000 pc=1000a4ff4...1000a50f8
  Format:       DWARF32
  DW_CFA_advance_loc: 12
  DW_CFA_def_cfa_offset: +64
  DW_CFA_offset: reg30 -8
  DW_CFA_offset: reg29 -16
  DW_CFA_offset: reg19 -24
  DW_CFA_offset: reg20 -32
  DW_CFA_nop:
  DW_CFA_nop:
  DW_CFA_nop:
  DW_CFA_nop:

  0x1000a4ff4: CFA=reg31
  0x1000a5000: CFA=reg31+64: reg19=[CFA-24], reg20=[CFA-32], reg29=[CFA-16], reg30=[CFA-8]

000056d0 00000024 000056d4 FDE cie=00000000 pc=1000a5478...1000a55f0
  Format:       DWARF32
  DW_CFA_advance_loc: 16
  DW_CFA_def_cfa_offset: +64
  DW_CFA_offset: reg30 -8
  DW_CFA_offset: reg29 -16
  DW_CFA_offset: reg19 -24
  DW_CFA_offset: reg20 -32
  DW_CFA_offset: reg21 -40
  DW_CFA_offset: reg22 -48

  0x1000a5478: CFA=reg31
  0x1000a5488: CFA=reg31+64: reg19=[CFA-24], reg20=[CFA-32], reg21=[CFA-40], reg22=[CFA-48], reg29=[CFA-16], reg30=[CFA-8]

000056f8 00000034 000056fc FDE cie=00000000 pc=1000a61f4...1000a6340
  Format:       DWARF32
  DW_CFA_advance_loc: 24
  DW_CFA_def_cfa_offset: +96
  DW_CFA_offset: reg30 -8
  DW_CFA_offset: reg29 -16
  DW_CFA_offset: reg19 -24
  DW_CFA_offset: reg20 -32
  DW_CFA_offset: reg21 -40
  DW_CFA_offset: reg22 -48
  DW_CFA_offset: reg23 -56
  DW_CFA_offset: reg24 -64
  DW_CFA_offset: reg25 -72
  DW_CFA_offset: reg26 -80
  DW_CFA_offset: reg27 -88
  DW_CFA_offset: reg28 -96
  DW_CFA_nop:
  DW_CFA_nop:
  DW_CFA_nop:
  DW_CFA_nop:

  0x1000a61f4: CFA=reg31
  0x1000a620c: CFA=reg31+96: reg19=[CFA-24], reg20=[CFA-32], reg21=[CFA-40], reg22=[CFA-48], reg23=[CFA-56], reg24=[CFA-64], reg25=[CFA-72], reg26=[CFA-80], reg27=[CFA-88], reg28=[CFA-96], reg29=[CFA-16], reg30=[CFA-8]

00005730 00000024 00005734 FDE cie=00000000 pc=1000a6340...1000a63bc
  Format:       DWARF32
  DW_CFA_advance_loc: 8
  DW_CFA_def_cfa_offset: +32
  DW_CFA_offset: reg30 -8
  DW_CFA_offset: reg29 -16
  DW_CFA_offset: reg19 -24
  DW_CFA_offset: reg20 -32
  DW_CFA_nop:
  DW_CFA_nop:
  DW_CFA_nop:
  DW_CFA_nop:

  0x1000a6340: CFA=reg31
  0x1000a6348: CFA=reg31+32: reg19=[CFA-24], reg20=[CFA-32], reg29=[CFA-16], reg30=[CFA-8]

00005758 00000024 0000575c FDE cie=00000000 pc=1000a63bc...1000a6448
  Format:       DWARF32
  DW_CFA_advance_loc: 8
  DW_CFA_def_cfa_offset: +32
  DW_CFA_offset: reg30 -8
  DW_CFA_offset: reg29 -16
  DW_CFA_offset: reg19 -24
  DW_CFA_offset: reg20 -32
  DW_CFA_nop:
  DW_CFA_nop:
  DW_CFA_nop:
  DW_CFA_nop:

  0x1000a63bc: CFA=reg31
  0x1000a63c4: CFA=reg31+32: reg19=[CFA-24], reg20=[CFA-32], reg29=[CFA-16], reg30=[CFA-8]

00005780 00000024 00005784 FDE cie=00000000 pc=1000a6448...1000a64a4
  Format:       DWARF32
  DW_CFA_advance_loc: 8
  DW_CFA_def_cfa_offset: +32
  DW_CFA_offset: reg30 -8
  DW_CFA_offset: reg29 -16
  DW_CFA_offset: reg19 -24
  DW_CFA_offset: reg20 -32
  DW_CFA_nop:
  DW_CFA_nop:
  DW_CFA_nop:
  DW_CFA_nop:

  0x1000a6448: CFA=reg31
  0x1000a6450: CFA=reg31+32: reg19=[CFA-24], reg20=[CFA-32], reg29=[CFA-16], reg30=[CFA-8]

000057a8 0000001c 000057ac FDE cie=00000000 pc=100409880...1004098c4
  Format:       DWARF32
  DW_CFA_advance_loc: 8
  DW_CFA_def_cfa_offset: +80
  DW_CFA_offset: reg30 -8
  DW_CFA_offset: reg29 -16

  0x100409880: CFA=reg31
  0x100409888: CFA=reg31+80: reg29=[CFA-16], reg30=[CFA-8]

000057c8 00000024 000057cc FDE cie=00000000 pc=1000a7004...1000a7044
  Format:       DWARF32
  DW_CFA_advance_loc: 8
  DW_CFA_def_cfa_offset: +32
  DW_CFA_offset: reg30 -8
  DW_CFA_offset: reg29 -16
  DW_CFA_offset: reg19 -24
  DW_CFA_offset: reg20 -32
  DW_CFA_nop:
  DW_CFA_nop:
  DW_CFA_nop:
  DW_CFA_nop:

  0x1000a7004: CFA=reg31
  0x1000a700c: CFA=reg31+32: reg19=[CFA-24], reg20=[CFA-32], reg29=[CFA-16], reg30=[CFA-8]

000057f0 00000024 000057f4 FDE cie=00000000 pc=1000a8204...1000a8300
  Format:       DWARF32
  DW_CFA_advance_loc: 12
  DW_CFA_def_cfa_offset: +64
  DW_CFA_offset: reg30 -8
  DW_CFA_offset: reg29 -16
  DW_CFA_offset: reg19 -24
  DW_CFA_offset: reg20 -32
  DW_CFA_nop:
  DW_CFA_nop:
  DW_CFA_nop:
  DW_CFA_nop:

  0x1000a8204: CFA=reg31
  0x1000a8210: CFA=reg31+64: reg19=[CFA-24], reg20=[CFA-32], reg29=[CFA-16], reg30=[CFA-8]

00005818 00000024 0000581c FDE cie=00000000 pc=1000a8300...1000a83fc
  Format:       DWARF32
  DW_CFA_advance_loc: 12
  DW_CFA_def_cfa_offset: +64
  DW_CFA_offset: reg30 -8
  DW_CFA_offset: reg29 -16
  DW_CFA_offset: reg19 -24
  DW_CFA_offset: reg20 -32
  DW_CFA_nop:
  DW_CFA_nop:
  DW_CFA_nop:
  DW_CFA_nop:

  0x1000a8300: CFA=reg31
  0x1000a830c: CFA=reg31+64: reg19=[CFA-24], reg20=[CFA-32], reg29=[CFA-16], reg30=[CFA-8]

00005840 00000024 00005844 FDE cie=00000000 pc=1000a83fc...1000a84f8
  Format:       DWARF32
  DW_CFA_advance_loc: 12
  DW_CFA_def_cfa_offset: +64
  DW_CFA_offset: reg30 -8
  DW_CFA_offset: reg29 -16
  DW_CFA_offset: reg19 -24
  DW_CFA_offset: reg20 -32
  DW_CFA_nop:
  DW_CFA_nop:
  DW_CFA_nop:
  DW_CFA_nop:

  0x1000a83fc: CFA=reg31
  0x1000a8408: CFA=reg31+64: reg19=[CFA-24], reg20=[CFA-32], reg29=[CFA-16], reg30=[CFA-8]

00005868 00000024 0000586c FDE cie=00000000 pc=1000a84f8...1000a85d0
  Format:       DWARF32
  DW_CFA_advance_loc: 12
  DW_CFA_def_cfa_offset: +64
  DW_CFA_offset: reg30 -8
  DW_CFA_offset: reg29 -16
  DW_CFA_offset: reg19 -24
  DW_CFA_offset: reg20 -32
  DW_CFA_nop:
  DW_CFA_nop:
  DW_CFA_nop:
  DW_CFA_nop:

  0x1000a84f8: CFA=reg31
  0x1000a8504: CFA=reg31+64: reg19=[CFA-24], reg20=[CFA-32], reg29=[CFA-16], reg30=[CFA-8]

00005890 00000024 00005894 FDE cie=00000000 pc=1000a85d0...1000a87fc
  Format:       DWARF32
  DW_CFA_advance_loc: 8
  DW_CFA_def_cfa_offset: +144
  DW_CFA_offset: reg30 -8
  DW_CFA_offset: reg29 -16
  DW_CFA_nop:
  DW_CFA_nop:
  DW_CFA_nop:
  DW_CFA_nop:
  DW_CFA_nop:
  DW_CFA_nop:
  DW_CFA_nop:

  0x1000a85d0: CFA=reg31
  0x1000a85d8: CFA=reg31+144: reg29=[CFA-16], reg30=[CFA-8]

000058b8 0000001c 000058bc FDE cie=00000000 pc=1000a87fc...1000a8874
  Format:       DWARF32
  DW_CFA_advance_loc: 4
  DW_CFA_def_cfa_offset: +16
  DW_CFA_offset: reg30 -8
  DW_CFA_offset: reg29 -16

  0x1000a87fc: CFA=reg31
  0x1000a8800: CFA=reg31+16: reg29=[CFA-16], reg30=[CFA-8]

000058d8 00000024 000058dc FDE cie=00000000 pc=1000a8a7c...1000a8abc
  Format:       DWARF32
  DW_CFA_advance_loc: 8
  DW_CFA_def_cfa_offset: +32
  DW_CFA_offset: reg30 -8
  DW_CFA_offset: reg29 -16
  DW_CFA_offset: reg19 -24
  DW_CFA_offset: reg20 -32
  DW_CFA_nop:
  DW_CFA_nop:
  DW_CFA_nop:
  DW_CFA_nop:

  0x1000a8a7c: CFA=reg31
  0x1000a8a84: CFA=reg31+32: reg19=[CFA-24], reg20=[CFA-32], reg29=[CFA-16], reg30=[CFA-8]

00005900 0000002c 00005904 FDE cie=00000000 pc=1004098c4...100409d88
  Format:       DWARF32
  DW_CFA_advance_loc: 24
  DW_CFA_def_cfa_offset: +112
  DW_CFA_offset: reg30 -8
  DW_CFA_offset: reg29 -16
  DW_CFA_offset: reg19 -24
  DW_CFA_offset: reg20 -32
  DW_CFA_offset: reg21 -40
  DW_CFA_offset: reg22 -48
  DW_CFA_offset: reg23 -56
  DW_CFA_offset: reg24 -64
  DW_CFA_offset: reg25 -72
  DW_CFA_offset: reg26 -80

  0x1004098c4: CFA=reg31
  0x1004098dc: CFA=reg31+112: reg19=[CFA-24], reg20=[CFA-32], reg21=[CFA-40], reg22=[CFA-48], reg23=[CFA-56], reg24=[CFA-64], reg25=[CFA-72], reg26=[CFA-80], reg29=[CFA-16], reg30=[CFA-8]

00005930 00000024 00005934 FDE cie=00000000 pc=1000a8e58...1000a8f74
  Format:       DWARF32
  DW_CFA_advance_loc: 16
  DW_CFA_def_cfa_offset: +80
  DW_CFA_offset: reg30 -8
  DW_CFA_offset: reg29 -16
  DW_CFA_offset: reg19 -24
  DW_CFA_offset: reg20 -32
  DW_CFA_offset: reg21 -40
  DW_CFA_offset: reg22 -48

  0x1000a8e58: CFA=reg31
  0x1000a8e68: CFA=reg31+80: reg19=[CFA-24], reg20=[CFA-32], reg21=[CFA-40], reg22=[CFA-48], reg29=[CFA-16], reg30=[CFA-8]

00005958 0000002c 0000595c FDE cie=00000000 pc=1000a8f88...1000a9024
  Format:       DWARF32
  DW_CFA_advance_loc: 16
  DW_CFA_def_cfa_offset: +128
  DW_CFA_offset: reg30 -8
  DW_CFA_offset: reg29 -16
  DW_CFA_offset: reg19 -24
  DW_CFA_offset: reg20 -32
  DW_CFA_offset: reg21 -40
  DW_CFA_offset: reg22 -48
  DW_CFA_nop:
  DW_CFA_nop:
  DW_CFA_nop:
  DW_CFA_nop:
  DW_CFA_nop:
  DW_CFA_nop:
  DW_CFA_nop:

  0x1000a8f88: CFA=reg31
  0x1000a8f98: CFA=reg31+128: reg19=[CFA-24], reg20=[CFA-32], reg21=[CFA-40], reg22=[CFA-48], reg29=[CFA-16], reg30=[CFA-8]

00005988 00000024 0000598c FDE cie=00000000 pc=100409d88...100409e38
  Format:       DWARF32
  DW_CFA_advance_loc: 12
  DW_CFA_def_cfa_offset: +80
  DW_CFA_offset: reg30 -8
  DW_CFA_offset: reg29 -16
  DW_CFA_offset: reg19 -24
  DW_CFA_offset: reg20 -32
  DW_CFA_nop:
  DW_CFA_nop:
  DW_CFA_nop:
  DW_CFA_nop:

  0x100409d88: CFA=reg31
  0x100409d94: CFA=reg31+80: reg19=[CFA-24], reg20=[CFA-32], reg29=[CFA-16], reg30=[CFA-8]

000059b0 00000024 000059b4 FDE cie=00000000 pc=1000a90dc...1000a9250
  Format:       DWARF32
  DW_CFA_advance_loc: 12
  DW_CFA_def_cfa_offset: +192
  DW_CFA_offset: reg30 -8
  DW_CFA_offset: reg29 -16
  DW_CFA_offset: reg19 -24
  DW_CFA_offset: reg20 -32
  DW_CFA_nop:
  DW_CFA_nop:
  DW_CFA_nop:

  0x1000a90dc: CFA=reg31
  0x1000a90e8: CFA=reg31+192: reg19=[CFA-24], reg20=[CFA-32], reg29=[CFA-16], reg30=[CFA-8]

000059d8 00000024 000059dc FDE cie=00000000 pc=1000a932c...1000a9414
  Format:       DWARF32
  DW_CFA_advance_loc: 8
  DW_CFA_def_cfa_offset: +176
  DW_CFA_offset: reg30 -8
  DW_CFA_offset: reg29 -16
  DW_CFA_nop:
  DW_CFA_nop:
  DW_CFA_nop:
  DW_CFA_nop:
  DW_CFA_nop:
  DW_CFA_nop:
  DW_CFA_nop:

  0x1000a932c: CFA=reg31
  0x1000a9334: CFA=reg31+176: reg29=[CFA-16], reg30=[CFA-8]

00005a00 0000001c 00005a04 FDE cie=00000000 pc=1000a978c...1000a984c
  Format:       DWARF32
  DW_CFA_advance_loc: 8
  DW_CFA_def_cfa_offset: +96
  DW_CFA_offset: reg30 -8
  DW_CFA_offset: reg29 -16

  0x1000a978c: CFA=reg31
  0x1000a9794: CFA=reg31+96: reg29=[CFA-16], reg30=[CFA-8]

00005a20 0000001c 00005a24 FDE cie=00000000 pc=100409e38...100409e64
  Format:       DWARF32
  DW_CFA_advance_loc: 8
  DW_CFA_def_cfa_offset: +48
  DW_CFA_offset: reg30 -8
  DW_CFA_offset: reg29 -16

  0x100409e38: CFA=reg31
  0x100409e40: CFA=reg31+48: reg29=[CFA-16], reg30=[CFA-8]

00005a40 0000001c 00005a44 FDE cie=00000000 pc=1000a9f54...1000a9f74
  Format:       DWARF32
  DW_CFA_advance_loc: 8
  DW_CFA_def_cfa_offset: +48
  DW_CFA_offset: reg30 -8
  DW_CFA_offset: reg29 -16

  0x1000a9f54: CFA=reg31
  0x1000a9f5c: CFA=reg31+48: reg29=[CFA-16], reg30=[CFA-8]

00005a60 0000001c 00005a64 FDE cie=00000000 pc=1000a9f74...1000a9f9c
  Format:       DWARF32
  DW_CFA_advance_loc: 8
  DW_CFA_def_cfa_offset: +32
  DW_CFA_offset: reg30 -8
  DW_CFA_offset: reg29 -16

  0x1000a9f74: CFA=reg31
  0x1000a9f7c: CFA=reg31+32: reg29=[CFA-16], reg30=[CFA-8]

00005a80 00000024 00005a84 FDE cie=00000000 pc=1000a9f9c...1000a9fe4
  Format:       DWARF32
  DW_CFA_advance_loc: 8
  DW_CFA_def_cfa_offset: +32
  DW_CFA_offset: reg30 -8
  DW_CFA_offset: reg29 -16
  DW_CFA_offset: reg19 -24
  DW_CFA_offset: reg20 -32
  DW_CFA_nop:
  DW_CFA_nop:
  DW_CFA_nop:
  DW_CFA_nop:

  0x1000a9f9c: CFA=reg31
  0x1000a9fa4: CFA=reg31+32: reg19=[CFA-24], reg20=[CFA-32], reg29=[CFA-16], reg30=[CFA-8]

00005aa8 0000001c 00005aac FDE cie=00000000 pc=1000a9fe4...1000aa004
  Format:       DWARF32
  DW_CFA_advance_loc: 4
  DW_CFA_def_cfa_offset: +16
  DW_CFA_offset: reg30 -8
  DW_CFA_offset: reg29 -16

  0x1000a9fe4: CFA=reg31
  0x1000a9fe8: CFA=reg31+16: reg29=[CFA-16], reg30=[CFA-8]

00005ac8 00000024 00005acc FDE cie=00000000 pc=100409e64...100409f14
  Format:       DWARF32
  DW_CFA_advance_loc: 12
  DW_CFA_def_cfa_offset: +80
  DW_CFA_offset: reg30 -8
  DW_CFA_offset: reg29 -16
  DW_CFA_offset: reg19 -24
  DW_CFA_offset: reg20 -32
  DW_CFA_nop:
  DW_CFA_nop:
  DW_CFA_nop:
  DW_CFA_nop:

  0x100409e64: CFA=reg31
  0x100409e70: CFA=reg31+80: reg19=[CFA-24], reg20=[CFA-32], reg29=[CFA-16], reg30=[CFA-8]

00005af0 00000024 00005af4 FDE cie=00000000 pc=1000af2d8...1000af34c
  Format:       DWARF32
  DW_CFA_advance_loc: 8
  DW_CFA_def_cfa_offset: +32
  DW_CFA_offset: reg30 -8
  DW_CFA_offset: reg29 -16
  DW_CFA_offset: reg19 -24
  DW_CFA_offset: reg20 -32
  DW_CFA_nop:
  DW_CFA_nop:
  DW_CFA_nop:
  DW_CFA_nop:

  0x1000af2d8: CFA=reg31
  0x1000af2e0: CFA=reg31+32: reg19=[CFA-24], reg20=[CFA-32], reg29=[CFA-16], reg30=[CFA-8]

00005b18 00000024 00005b1c FDE cie=00000000 pc=1000af34c...1000af3c0
  Format:       DWARF32
  DW_CFA_advance_loc: 8
  DW_CFA_def_cfa_offset: +32
  DW_CFA_offset: reg30 -8
  DW_CFA_offset: reg29 -16
  DW_CFA_offset: reg19 -24
  DW_CFA_offset: reg20 -32
  DW_CFA_nop:
  DW_CFA_nop:
  DW_CFA_nop:
  DW_CFA_nop:

  0x1000af34c: CFA=reg31
  0x1000af354: CFA=reg31+32: reg19=[CFA-24], reg20=[CFA-32], reg29=[CFA-16], reg30=[CFA-8]

00005b40 00000034 00005b44 FDE cie=00000000 pc=1000af3c0...1000b06c0
  Format:       DWARF32
  DW_CFA_advance_loc: 28
  DW_CFA_def_cfa_offset: +208
  DW_CFA_offset: reg30 -8
  DW_CFA_offset: reg29 -16
  DW_CFA_offset: reg19 -24
  DW_CFA_offset: reg20 -32
  DW_CFA_offset: reg21 -40
  DW_CFA_offset: reg22 -48
  DW_CFA_offset: reg23 -56
  DW_CFA_offset: reg24 -64
  DW_CFA_offset: reg25 -72
  DW_CFA_offset: reg26 -80
  DW_CFA_offset: reg27 -88
  DW_CFA_offset: reg28 -96
  DW_CFA_nop:
  DW_CFA_nop:
  DW_CFA_nop:

  0x1000af3c0: CFA=reg31
  0x1000af3dc: CFA=reg31+208: reg19=[CFA-24], reg20=[CFA-32], reg21=[CFA-40], reg22=[CFA-48], reg23=[CFA-56], reg24=[CFA-64], reg25=[CFA-72], reg26=[CFA-80], reg27=[CFA-88], reg28=[CFA-96], reg29=[CFA-16], reg30=[CFA-8]

00005b78 0000001c 00005b7c FDE cie=00000000 pc=1000b06c0...1000b0f1c
  Format:       DWARF32
  DW_CFA_advance_loc: 4
  DW_CFA_def_cfa_offset: +16
  DW_CFA_offset: reg30 -8
  DW_CFA_offset: reg29 -16

  0x1000b06c0: CFA=reg31
  0x1000b06c4: CFA=reg31+16: reg29=[CFA-16], reg30=[CFA-8]

00005b98 00000024 00005b9c FDE cie=00000000 pc=1000b16c8...1000b1714
  Format:       DWARF32
  DW_CFA_advance_loc: 8
  DW_CFA_def_cfa_offset: +32
  DW_CFA_offset: reg30 -8
  DW_CFA_offset: reg29 -16
  DW_CFA_offset: reg19 -24
  DW_CFA_offset: reg20 -32
  DW_CFA_nop:
  DW_CFA_nop:
  DW_CFA_nop:
  DW_CFA_nop:

  0x1000b16c8: CFA=reg31
  0x1000b16d0: CFA=reg31+32: reg19=[CFA-24], reg20=[CFA-32], reg29=[CFA-16], reg30=[CFA-8]

00005bc0 00000024 00005bc4 FDE cie=00000000 pc=1000b172c...1000b18cc
  Format:       DWARF32
  DW_CFA_advance_loc: 12
  DW_CFA_def_cfa_offset: +48
  DW_CFA_offset: reg30 -8
  DW_CFA_offset: reg29 -16
  DW_CFA_offset: reg19 -24
  DW_CFA_offset: reg20 -32
  DW_CFA_nop:
  DW_CFA_nop:
  DW_CFA_nop:
  DW_CFA_nop:

  0x1000b172c: CFA=reg31
  0x1000b1738: CFA=reg31+48: reg19=[CFA-24], reg20=[CFA-32], reg29=[CFA-16], reg30=[CFA-8]

00005be8 0000001c 00005bec FDE cie=00000000 pc=1000b19b0...1000b1ce0
  Format:       DWARF32
  DW_CFA_advance_loc: 4
  DW_CFA_def_cfa_offset: +16
  DW_CFA_offset: reg30 -8
  DW_CFA_offset: reg29 -16

  0x1000b19b0: CFA=reg31
  0x1000b19b4: CFA=reg31+16: reg29=[CFA-16], reg30=[CFA-8]

00005c08 00000024 00005c0c FDE cie=00000000 pc=1000b1ce0...1000b1d40
  Format:       DWARF32
  DW_CFA_advance_loc: 12
  DW_CFA_def_cfa_offset: +64
  DW_CFA_offset: reg30 -8
  DW_CFA_offset: reg29 -16
  DW_CFA_offset: reg19 -24
  DW_CFA_offset: reg20 -32
  DW_CFA_nop:
  DW_CFA_nop:
  DW_CFA_nop:
  DW_CFA_nop:

  0x1000b1ce0: CFA=reg31
  0x1000b1cec: CFA=reg31+64: reg19=[CFA-24], reg20=[CFA-32], reg29=[CFA-16], reg30=[CFA-8]

00005c30 00000024 00005c34 FDE cie=00000000 pc=1000b1d40...1000b1da0
  Format:       DWARF32
  DW_CFA_advance_loc: 12
  DW_CFA_def_cfa_offset: +64
  DW_CFA_offset: reg30 -8
  DW_CFA_offset: reg29 -16
  DW_CFA_offset: reg19 -24
  DW_CFA_offset: reg20 -32
  DW_CFA_nop:
  DW_CFA_nop:
  DW_CFA_nop:
  DW_CFA_nop:

  0x1000b1d40: CFA=reg31
  0x1000b1d4c: CFA=reg31+64: reg19=[CFA-24], reg20=[CFA-32], reg29=[CFA-16], reg30=[CFA-8]

00005c58 0000002c 00005c5c FDE cie=00000000 pc=1000b1da0...1000b20ec
  Format:       DWARF32
  DW_CFA_advance_loc: 20
  DW_CFA_def_cfa_offset: +112
  DW_CFA_offset: reg30 -8
  DW_CFA_offset: reg29 -16
  DW_CFA_offset: reg19 -24
  DW_CFA_offset: reg20 -32
  DW_CFA_offset: reg21 -40
  DW_CFA_offset: reg22 -48
  DW_CFA_offset: reg23 -56
  DW_CFA_offset: reg24 -64
  DW_CFA_nop:
  DW_CFA_nop:
  DW_CFA_nop:
  DW_CFA_nop:

  0x1000b1da0: CFA=reg31
  0x1000b1db4: CFA=reg31+112: reg19=[CFA-24], reg20=[CFA-32], reg21=[CFA-40], reg22=[CFA-48], reg23=[CFA-56], reg24=[CFA-64], reg29=[CFA-16], reg30=[CFA-8]

00005c88 0000002c 00005c8c FDE cie=00000000 pc=1000b20ec...1000b2378
  Format:       DWARF32
  DW_CFA_advance_loc: 16
  DW_CFA_def_cfa_offset: +64
  DW_CFA_offset: reg30 -8
  DW_CFA_offset: reg29 -16
  DW_CFA_offset: reg19 -24
  DW_CFA_offset: reg20 -32
  DW_CFA_offset: reg21 -40
  DW_CFA_offset: reg22 -48
  DW_CFA_offset: reg23 -56
  DW_CFA_offset: reg24 -64
  DW_CFA_nop:
  DW_CFA_nop:
  DW_CFA_nop:
  DW_CFA_nop:

  0x1000b20ec: CFA=reg31
  0x1000b20fc: CFA=reg31+64: reg19=[CFA-24], reg20=[CFA-32], reg21=[CFA-40], reg22=[CFA-48], reg23=[CFA-56], reg24=[CFA-64], reg29=[CFA-16], reg30=[CFA-8]

00005cb8 00000024 00005cbc FDE cie=00000000 pc=1000b2378...1000b23cc
  Format:       DWARF32
  DW_CFA_advance_loc: 8
  DW_CFA_def_cfa_offset: +32
  DW_CFA_offset: reg30 -8
  DW_CFA_offset: reg29 -16
  DW_CFA_offset: reg19 -24
  DW_CFA_offset: reg20 -32
  DW_CFA_nop:
  DW_CFA_nop:
  DW_CFA_nop:
  DW_CFA_nop:

  0x1000b2378: CFA=reg31
  0x1000b2380: CFA=reg31+32: reg19=[CFA-24], reg20=[CFA-32], reg29=[CFA-16], reg30=[CFA-8]

00005ce0 00000024 00005ce4 FDE cie=00000000 pc=1000b23cc...1000b2420
  Format:       DWARF32
  DW_CFA_advance_loc: 8
  DW_CFA_def_cfa_offset: +32
  DW_CFA_offset: reg30 -8
  DW_CFA_offset: reg29 -16
  DW_CFA_offset: reg19 -24
  DW_CFA_offset: reg20 -32
  DW_CFA_nop:
  DW_CFA_nop:
  DW_CFA_nop:
  DW_CFA_nop:

  0x1000b23cc: CFA=reg31
  0x1000b23d4: CFA=reg31+32: reg19=[CFA-24], reg20=[CFA-32], reg29=[CFA-16], reg30=[CFA-8]

00005d08 00000034 00005d0c FDE cie=00000000 pc=1000b2420...1000b2734
  Format:       DWARF32
  DW_CFA_advance_loc: 28
  DW_CFA_def_cfa_offset: +160
  DW_CFA_offset: reg30 -8
  DW_CFA_offset: reg29 -16
  DW_CFA_offset: reg19 -24
  DW_CFA_offset: reg20 -32
  DW_CFA_offset: reg21 -40
  DW_CFA_offset: reg22 -48
  DW_CFA_offset: reg23 -56
  DW_CFA_offset: reg24 -64
  DW_CFA_offset: reg25 -72
  DW_CFA_offset: reg26 -80
  DW_CFA_offset: reg27 -88
  DW_CFA_offset: reg28 -96
  DW_CFA_nop:
  DW_CFA_nop:
  DW_CFA_nop:

  0x1000b2420: CFA=reg31
  0x1000b243c: CFA=reg31+160: reg19=[CFA-24], reg20=[CFA-32], reg21=[CFA-40], reg22=[CFA-48], reg23=[CFA-56], reg24=[CFA-64], reg25=[CFA-72], reg26=[CFA-80], reg27=[CFA-88], reg28=[CFA-96], reg29=[CFA-16], reg30=[CFA-8]

00005d40 00000034 00005d44 FDE cie=00000000 pc=1000b3448...1000b52a8
  Format:       DWARF32
  DW_CFA_advance_loc: 28
  DW_CFA_def_cfa_offset: +352
  DW_CFA_offset: reg30 -8
  DW_CFA_offset: reg29 -16
  DW_CFA_offset: reg19 -24
  DW_CFA_offset: reg20 -32
  DW_CFA_offset: reg21 -40
  DW_CFA_offset: reg22 -48
  DW_CFA_offset: reg23 -56
  DW_CFA_offset: reg24 -64
  DW_CFA_offset: reg25 -72
  DW_CFA_offset: reg26 -80
  DW_CFA_offset: reg27 -88
  DW_CFA_offset: reg28 -96
  DW_CFA_nop:
  DW_CFA_nop:
  DW_CFA_nop:

  0x1000b3448: CFA=reg31
  0x1000b3464: CFA=reg31+352: reg19=[CFA-24], reg20=[CFA-32], reg21=[CFA-40], reg22=[CFA-48], reg23=[CFA-56], reg24=[CFA-64], reg25=[CFA-72], reg26=[CFA-80], reg27=[CFA-88], reg28=[CFA-96], reg29=[CFA-16], reg30=[CFA-8]

00005d78 0000001c 00005d7c FDE cie=00000000 pc=1000b52a8...1000b5398
  Format:       DWARF32
  DW_CFA_advance_loc: 4
  DW_CFA_def_cfa_offset: +16
  DW_CFA_offset: reg30 -8
  DW_CFA_offset: reg29 -16

  0x1000b52a8: CFA=reg31
  0x1000b52ac: CFA=reg31+16: reg29=[CFA-16], reg30=[CFA-8]

00005d98 0000001c 00005d9c FDE cie=00000000 pc=1000b5398...1000b567c
  Format:       DWARF32
  DW_CFA_advance_loc: 4
  DW_CFA_def_cfa_offset: +16
  DW_CFA_offset: reg30 -8
  DW_CFA_offset: reg29 -16

  0x1000b5398: CFA=reg31
  0x1000b539c: CFA=reg31+16: reg29=[CFA-16], reg30=[CFA-8]

00005db8 00000034 00005dbc FDE cie=00000000 pc=1000b567c...1000b5ad8
  Format:       DWARF32
  DW_CFA_advance_loc: 28
  DW_CFA_def_cfa_offset: +256
  DW_CFA_offset: reg30 -8
  DW_CFA_offset: reg29 -16
  DW_CFA_offset: reg19 -24
  DW_CFA_offset: reg20 -32
  DW_CFA_offset: reg21 -40
  DW_CFA_offset: reg22 -48
  DW_CFA_offset: reg23 -56
  DW_CFA_offset: reg24 -64
  DW_CFA_offset: reg25 -72
  DW_CFA_offset: reg26 -80
  DW_CFA_offset: reg27 -88
  DW_CFA_offset: reg28 -96
  DW_CFA_nop:
  DW_CFA_nop:
  DW_CFA_nop:

  0x1000b567c: CFA=reg31
  0x1000b5698: CFA=reg31+256: reg19=[CFA-24], reg20=[CFA-32], reg21=[CFA-40], reg22=[CFA-48], reg23=[CFA-56], reg24=[CFA-64], reg25=[CFA-72], reg26=[CFA-80], reg27=[CFA-88], reg28=[CFA-96], reg29=[CFA-16], reg30=[CFA-8]

00005df0 0000001c 00005df4 FDE cie=00000000 pc=1000b5ba8...1000b5be4
  Format:       DWARF32
  DW_CFA_advance_loc: 4
  DW_CFA_def_cfa_offset: +16
  DW_CFA_offset: reg30 -8
  DW_CFA_offset: reg29 -16

  0x1000b5ba8: CFA=reg31
  0x1000b5bac: CFA=reg31+16: reg29=[CFA-16], reg30=[CFA-8]

00005e10 00000024 00005e14 FDE cie=00000000 pc=1000b5be4...1000b5ccc
  Format:       DWARF32
  DW_CFA_advance_loc: 16
  DW_CFA_def_cfa_offset: +64
  DW_CFA_offset: reg30 -8
  DW_CFA_offset: reg29 -16
  DW_CFA_offset: reg19 -24
  DW_CFA_offset: reg20 -32
  DW_CFA_offset: reg21 -40
  DW_CFA_offset: reg22 -48

  0x1000b5be4: CFA=reg31
  0x1000b5bf4: CFA=reg31+64: reg19=[CFA-24], reg20=[CFA-32], reg21=[CFA-40], reg22=[CFA-48], reg29=[CFA-16], reg30=[CFA-8]

00005e38 0000001c 00005e3c FDE cie=00000000 pc=1000b5ccc...1000b5d18
  Format:       DWARF32
  DW_CFA_advance_loc: 8
  DW_CFA_def_cfa_offset: +80
  DW_CFA_offset: reg30 -8
  DW_CFA_offset: reg29 -16

  0x1000b5ccc: CFA=reg31
  0x1000b5cd4: CFA=reg31+80: reg29=[CFA-16], reg30=[CFA-8]

00005e58 0000001c 00005e5c FDE cie=00000000 pc=10040a26c...10040a290
  Format:       DWARF32
  DW_CFA_advance_loc: 8
  DW_CFA_def_cfa_offset: +48
  DW_CFA_offset: reg30 -8
  DW_CFA_offset: reg29 -16

  0x10040a26c: CFA=reg31
  0x10040a274: CFA=reg31+48: reg29=[CFA-16], reg30=[CFA-8]

00005e78 0000001c 00005e7c FDE cie=00000000 pc=1000b5e90...1000b5eb0
  Format:       DWARF32
  DW_CFA_advance_loc: 8
  DW_CFA_def_cfa_offset: +48
  DW_CFA_offset: reg30 -8
  DW_CFA_offset: reg29 -16

  0x1000b5e90: CFA=reg31
  0x1000b5e98: CFA=reg31+48: reg29=[CFA-16], reg30=[CFA-8]

00005e98 0000001c 00005e9c FDE cie=00000000 pc=1000b5eb0...1000b5ed8
  Format:       DWARF32
  DW_CFA_advance_loc: 8
  DW_CFA_def_cfa_offset: +32
  DW_CFA_offset: reg30 -8
  DW_CFA_offset: reg29 -16

  0x1000b5eb0: CFA=reg31
  0x1000b5eb8: CFA=reg31+32: reg29=[CFA-16], reg30=[CFA-8]

00005eb8 00000024 00005ebc FDE cie=00000000 pc=1000b5ed8...1000b5f20
  Format:       DWARF32
  DW_CFA_advance_loc: 8
  DW_CFA_def_cfa_offset: +32
  DW_CFA_offset: reg30 -8
  DW_CFA_offset: reg29 -16
  DW_CFA_offset: reg19 -24
  DW_CFA_offset: reg20 -32
  DW_CFA_nop:
  DW_CFA_nop:
  DW_CFA_nop:
  DW_CFA_nop:

  0x1000b5ed8: CFA=reg31
  0x1000b5ee0: CFA=reg31+32: reg19=[CFA-24], reg20=[CFA-32], reg29=[CFA-16], reg30=[CFA-8]

00005ee0 0000001c 00005ee4 FDE cie=00000000 pc=1000b5f20...1000b5f40
  Format:       DWARF32
  DW_CFA_advance_loc: 4
  DW_CFA_def_cfa_offset: +16
  DW_CFA_offset: reg30 -8
  DW_CFA_offset: reg29 -16

  0x1000b5f20: CFA=reg31
  0x1000b5f24: CFA=reg31+16: reg29=[CFA-16], reg30=[CFA-8]

00005f00 00000024 00005f04 FDE cie=00000000 pc=1000b5f40...1000b5fa8
  Format:       DWARF32
  DW_CFA_advance_loc: 12
  DW_CFA_def_cfa_offset: +48
  DW_CFA_offset: reg30 -8
  DW_CFA_offset: reg29 -16
  DW_CFA_offset: reg19 -24
  DW_CFA_offset: reg20 -32
  DW_CFA_offset: reg21 -40
  DW_CFA_offset: reg22 -48

  0x1000b5f40: CFA=reg31
  0x1000b5f4c: CFA=reg31+48: reg19=[CFA-24], reg20=[CFA-32], reg21=[CFA-40], reg22=[CFA-48], reg29=[CFA-16], reg30=[CFA-8]

00005f28 00000024 00005f2c FDE cie=00000000 pc=1000b5fb0...1000b6028
  Format:       DWARF32
  DW_CFA_advance_loc: 12
  DW_CFA_def_cfa_offset: +48
  DW_CFA_offset: reg30 -8
  DW_CFA_offset: reg29 -16
  DW_CFA_offset: reg19 -24
  DW_CFA_offset: reg20 -32
  DW_CFA_offset: reg21 -40
  DW_CFA_offset: reg22 -48

  0x1000b5fb0: CFA=reg31
  0x1000b5fbc: CFA=reg31+48: reg19=[CFA-24], reg20=[CFA-32], reg21=[CFA-40], reg22=[CFA-48], reg29=[CFA-16], reg30=[CFA-8]

00005f50 00000024 00005f54 FDE cie=00000000 pc=1000b6028...1000b6128
  Format:       DWARF32
  DW_CFA_advance_loc: 12
  DW_CFA_def_cfa_offset: +64
  DW_CFA_offset: reg30 -8
  DW_CFA_offset: reg29 -16
  DW_CFA_offset: reg19 -24
  DW_CFA_offset: reg20 -32
  DW_CFA_nop:
  DW_CFA_nop:
  DW_CFA_nop:
  DW_CFA_nop:

  0x1000b6028: CFA=reg31
  0x1000b6034: CFA=reg31+64: reg19=[CFA-24], reg20=[CFA-32], reg29=[CFA-16], reg30=[CFA-8]

00005f78 0000002c 00005f7c FDE cie=00000000 pc=1000b6128...1000b637c
  Format:       DWARF32
  DW_CFA_advance_loc: 24
  DW_CFA_def_cfa_offset: +112
  DW_CFA_offset: reg30 -8
  DW_CFA_offset: reg29 -16
  DW_CFA_offset: reg19 -24
  DW_CFA_offset: reg20 -32
  DW_CFA_offset: reg21 -40
  DW_CFA_offset: reg22 -48
  DW_CFA_offset: reg23 -56
  DW_CFA_offset: reg24 -64
  DW_CFA_offset: reg25 -72
  DW_CFA_offset: reg26 -80

  0x1000b6128: CFA=reg31
  0x1000b6140: CFA=reg31+112: reg19=[CFA-24], reg20=[CFA-32], reg21=[CFA-40], reg22=[CFA-48], reg23=[CFA-56], reg24=[CFA-64], reg25=[CFA-72], reg26=[CFA-80], reg29=[CFA-16], reg30=[CFA-8]

00005fa8 00000034 00005fac FDE cie=00000000 pc=1000b639c...1000b65a8
  Format:       DWARF32
  DW_CFA_advance_loc: 28
  DW_CFA_def_cfa_offset: +112
  DW_CFA_offset: reg30 -8
  DW_CFA_offset: reg29 -16
  DW_CFA_offset: reg19 -24
  DW_CFA_offset: reg20 -32
  DW_CFA_offset: reg21 -40
  DW_CFA_offset: reg22 -48
  DW_CFA_offset: reg23 -56
  DW_CFA_offset: reg24 -64
  DW_CFA_offset: reg25 -72
  DW_CFA_offset: reg26 -80
  DW_CFA_offset: reg27 -88
  DW_CFA_offset: reg28 -96
  DW_CFA_nop:
  DW_CFA_nop:
  DW_CFA_nop:
  DW_CFA_nop:

  0x1000b639c: CFA=reg31
  0x1000b63b8: CFA=reg31+112: reg19=[CFA-24], reg20=[CFA-32], reg21=[CFA-40], reg22=[CFA-48], reg23=[CFA-56], reg24=[CFA-64], reg25=[CFA-72], reg26=[CFA-80], reg27=[CFA-88], reg28=[CFA-96], reg29=[CFA-16], reg30=[CFA-8]

00005fe0 0000001c 00005fe4 FDE cie=00000000 pc=10040a290...10040a2a8
  Format:       DWARF32
  DW_CFA_advance_loc: 8
  DW_CFA_def_cfa_offset: +48
  DW_CFA_offset: reg30 -8
  DW_CFA_offset: reg29 -16

  0x10040a290: CFA=reg31
  0x10040a298: CFA=reg31+48: reg29=[CFA-16], reg30=[CFA-8]

00006000 0000001c 00006004 FDE cie=00000000 pc=1000b65c8...1000b65e8
  Format:       DWARF32
  DW_CFA_advance_loc: 8
  DW_CFA_def_cfa_offset: +48
  DW_CFA_offset: reg30 -8
  DW_CFA_offset: reg29 -16

  0x1000b65c8: CFA=reg31
  0x1000b65d0: CFA=reg31+48: reg29=[CFA-16], reg30=[CFA-8]

00006020 0000001c 00006024 FDE cie=00000000 pc=1000b65e8...1000b6610
  Format:       DWARF32
  DW_CFA_advance_loc: 8
  DW_CFA_def_cfa_offset: +32
  DW_CFA_offset: reg30 -8
  DW_CFA_offset: reg29 -16

  0x1000b65e8: CFA=reg31
  0x1000b65f0: CFA=reg31+32: reg29=[CFA-16], reg30=[CFA-8]

00006040 00000024 00006044 FDE cie=00000000 pc=1000b6610...1000b6658
  Format:       DWARF32
  DW_CFA_advance_loc: 8
  DW_CFA_def_cfa_offset: +32
  DW_CFA_offset: reg30 -8
  DW_CFA_offset: reg29 -16
  DW_CFA_offset: reg19 -24
  DW_CFA_offset: reg20 -32
  DW_CFA_nop:
  DW_CFA_nop:
  DW_CFA_nop:
  DW_CFA_nop:

  0x1000b6610: CFA=reg31
  0x1000b6618: CFA=reg31+32: reg19=[CFA-24], reg20=[CFA-32], reg29=[CFA-16], reg30=[CFA-8]

00006068 0000001c 0000606c FDE cie=00000000 pc=1000b6658...1000b6678
  Format:       DWARF32
  DW_CFA_advance_loc: 4
  DW_CFA_def_cfa_offset: +16
  DW_CFA_offset: reg30 -8
  DW_CFA_offset: reg29 -16

  0x1000b6658: CFA=reg31
  0x1000b665c: CFA=reg31+16: reg29=[CFA-16], reg30=[CFA-8]

00006088 0000002c 0000608c FDE cie=00000000 pc=1000b6678...1000b68a8
  Format:       DWARF32
  DW_CFA_advance_loc: 20
  DW_CFA_def_cfa_offset: +96
  DW_CFA_offset: reg30 -8
  DW_CFA_offset: reg29 -16
  DW_CFA_offset: reg19 -24
  DW_CFA_offset: reg20 -32
  DW_CFA_offset: reg21 -40
  DW_CFA_offset: reg22 -48
  DW_CFA_offset: reg23 -56
  DW_CFA_offset: reg24 -64
  DW_CFA_nop:
  DW_CFA_nop:
  DW_CFA_nop:
  DW_CFA_nop:

  0x1000b6678: CFA=reg31
  0x1000b668c: CFA=reg31+96: reg19=[CFA-24], reg20=[CFA-32], reg21=[CFA-40], reg22=[CFA-48], reg23=[CFA-56], reg24=[CFA-64], reg29=[CFA-16], reg30=[CFA-8]

000060b8 0000002c 000060bc FDE cie=00000000 pc=1000b8b28...1000b8cb0
  Format:       DWARF32
  DW_CFA_advance_loc: 24
  DW_CFA_def_cfa_offset: +112
  DW_CFA_offset: reg30 -8
  DW_CFA_offset: reg29 -16
  DW_CFA_offset: reg19 -24
  DW_CFA_offset: reg20 -32
  DW_CFA_offset: reg21 -40
  DW_CFA_offset: reg22 -48
  DW_CFA_offset: reg23 -56
  DW_CFA_offset: reg24 -64
  DW_CFA_offset: reg25 -72
  DW_CFA_offset: reg26 -80

  0x1000b8b28: CFA=reg31
  0x1000b8b40: CFA=reg31+112: reg19=[CFA-24], reg20=[CFA-32], reg21=[CFA-40], reg22=[CFA-48], reg23=[CFA-56], reg24=[CFA-64], reg25=[CFA-72], reg26=[CFA-80], reg29=[CFA-16], reg30=[CFA-8]

000060e8 0000001c 000060ec FDE cie=00000000 pc=10040a2a8...10040a2f4
  Format:       DWARF32
  DW_CFA_advance_loc: 8
  DW_CFA_def_cfa_offset: +80
  DW_CFA_offset: reg30 -8
  DW_CFA_offset: reg29 -16

  0x10040a2a8: CFA=reg31
  0x10040a2b0: CFA=reg31+80: reg29=[CFA-16], reg30=[CFA-8]

00006108 0000002c 0000610c FDE cie=00000000 pc=1000be378...1000be914
  Format:       DWARF32
  DW_CFA_advance_loc: 16
  DW_CFA_def_cfa_offset: +192
  DW_CFA_offset: reg30 -8
  DW_CFA_offset: reg29 -16
  DW_CFA_offset: reg19 -24
  DW_CFA_offset: reg20 -32
  DW_CFA_offset: reg21 -40
  DW_CFA_offset: reg22 -48
  DW_CFA_nop:
  DW_CFA_nop:
  DW_CFA_nop:
  DW_CFA_nop:
  DW_CFA_nop:
  DW_CFA_nop:
  DW_CFA_nop:

  0x1000be378: CFA=reg31
  0x1000be388: CFA=reg31+192: reg19=[CFA-24], reg20=[CFA-32], reg21=[CFA-40], reg22=[CFA-48], reg29=[CFA-16], reg30=[CFA-8]

00006138 00000024 0000613c FDE cie=00000000 pc=1000be914...1000be9ac
  Format:       DWARF32
  DW_CFA_advance_loc: 12
  DW_CFA_def_cfa_offset: +48
  DW_CFA_offset: reg30 -8
  DW_CFA_offset: reg29 -16
  DW_CFA_offset: reg19 -24
  DW_CFA_offset: reg20 -32
  DW_CFA_offset: reg21 -40
  DW_CFA_offset: reg22 -48

  0x1000be914: CFA=reg31
  0x1000be920: CFA=reg31+48: reg19=[CFA-24], reg20=[CFA-32], reg21=[CFA-40], reg22=[CFA-48], reg29=[CFA-16], reg30=[CFA-8]

00006160 00000024 00006164 FDE cie=00000000 pc=1000be9ac...1000bea74
  Format:       DWARF32
  DW_CFA_advance_loc: 12
  DW_CFA_def_cfa_offset: +64
  DW_CFA_offset: reg30 -8
  DW_CFA_offset: reg29 -16
  DW_CFA_offset: reg19 -24
  DW_CFA_offset: reg20 -32
  DW_CFA_nop:
  DW_CFA_nop:
  DW_CFA_nop:
  DW_CFA_nop:

  0x1000be9ac: CFA=reg31
  0x1000be9b8: CFA=reg31+64: reg19=[CFA-24], reg20=[CFA-32], reg29=[CFA-16], reg30=[CFA-8]

00006188 00000034 0000618c FDE cie=00000000 pc=1000bea74...1000becb4
  Format:       DWARF32
  DW_CFA_advance_loc: 28
  DW_CFA_def_cfa_offset: +208
  DW_CFA_offset: reg30 -8
  DW_CFA_offset: reg29 -16
  DW_CFA_offset: reg19 -24
  DW_CFA_offset: reg20 -32
  DW_CFA_offset: reg21 -40
  DW_CFA_offset: reg22 -48
  DW_CFA_offset: reg23 -56
  DW_CFA_offset: reg24 -64
  DW_CFA_offset: reg25 -72
  DW_CFA_offset: reg26 -80
  DW_CFA_offset: reg27 -88
  DW_CFA_offset: reg28 -96
  DW_CFA_nop:
  DW_CFA_nop:
  DW_CFA_nop:

  0x1000bea74: CFA=reg31
  0x1000bea90: CFA=reg31+208: reg19=[CFA-24], reg20=[CFA-32], reg21=[CFA-40], reg22=[CFA-48], reg23=[CFA-56], reg24=[CFA-64], reg25=[CFA-72], reg26=[CFA-80], reg27=[CFA-88], reg28=[CFA-96], reg29=[CFA-16], reg30=[CFA-8]

000061c0 00000034 000061c4 FDE cie=00000000 pc=1000bf4c4...1000bf838
  Format:       DWARF32
  DW_CFA_advance_loc: 28
  DW_CFA_def_cfa_offset: +208
  DW_CFA_offset: reg30 -8
  DW_CFA_offset: reg29 -16
  DW_CFA_offset: reg19 -24
  DW_CFA_offset: reg20 -32
  DW_CFA_offset: reg21 -40
  DW_CFA_offset: reg22 -48
  DW_CFA_offset: reg23 -56
  DW_CFA_offset: reg24 -64
  DW_CFA_offset: reg25 -72
  DW_CFA_offset: reg26 -80
  DW_CFA_offset: reg27 -88
  DW_CFA_offset: reg28 -96
  DW_CFA_nop:
  DW_CFA_nop:
  DW_CFA_nop:

  0x1000bf4c4: CFA=reg31
  0x1000bf4e0: CFA=reg31+208: reg19=[CFA-24], reg20=[CFA-32], reg21=[CFA-40], reg22=[CFA-48], reg23=[CFA-56], reg24=[CFA-64], reg25=[CFA-72], reg26=[CFA-80], reg27=[CFA-88], reg28=[CFA-96], reg29=[CFA-16], reg30=[CFA-8]

000061f8 0000001c 000061fc FDE cie=00000000 pc=1000bf838...1000bf9a0
  Format:       DWARF32
  DW_CFA_advance_loc: 8
  DW_CFA_def_cfa_offset: +112
  DW_CFA_offset: reg30 -8
  DW_CFA_offset: reg29 -16

  0x1000bf838: CFA=reg31
  0x1000bf840: CFA=reg31+112: reg29=[CFA-16], reg30=[CFA-8]

00006218 00000024 0000621c FDE cie=00000000 pc=10040a2f4...10040a38c
  Format:       DWARF32
  DW_CFA_advance_loc: 12
  DW_CFA_def_cfa_offset: +80
  DW_CFA_offset: reg30 -8
  DW_CFA_offset: reg29 -16
  DW_CFA_offset: reg19 -24
  DW_CFA_offset: reg20 -32
  DW_CFA_nop:
  DW_CFA_nop:
  DW_CFA_nop:
  DW_CFA_nop:

  0x10040a2f4: CFA=reg31
  0x10040a300: CFA=reg31+80: reg19=[CFA-24], reg20=[CFA-32], reg29=[CFA-16], reg30=[CFA-8]

00006240 0000002c 00006244 FDE cie=00000000 pc=1000bfe98...1000bff78
  Format:       DWARF32
  DW_CFA_advance_loc: 20
  DW_CFA_def_cfa_offset: +80
  DW_CFA_offset: reg30 -8
  DW_CFA_offset: reg29 -16
  DW_CFA_offset: reg19 -24
  DW_CFA_offset: reg20 -32
  DW_CFA_offset: reg21 -40
  DW_CFA_offset: reg22 -48
  DW_CFA_offset: reg23 -56
  DW_CFA_offset: reg24 -64
  DW_CFA_nop:
  DW_CFA_nop:
  DW_CFA_nop:
  DW_CFA_nop:

  0x1000bfe98: CFA=reg31
  0x1000bfeac: CFA=reg31+80: reg19=[CFA-24], reg20=[CFA-32], reg21=[CFA-40], reg22=[CFA-48], reg23=[CFA-56], reg24=[CFA-64], reg29=[CFA-16], reg30=[CFA-8]

00006270 00000024 00006274 FDE cie=00000000 pc=1000bffb0...1000c0180
  Format:       DWARF32
  DW_CFA_advance_loc: 16
  DW_CFA_def_cfa_offset: +80
  DW_CFA_offset: reg30 -8
  DW_CFA_offset: reg29 -16
  DW_CFA_offset: reg19 -24
  DW_CFA_offset: reg20 -32
  DW_CFA_offset: reg21 -40
  DW_CFA_offset: reg22 -48

  0x1000bffb0: CFA=reg31
  0x1000bffc0: CFA=reg31+80: reg19=[CFA-24], reg20=[CFA-32], reg21=[CFA-40], reg22=[CFA-48], reg29=[CFA-16], reg30=[CFA-8]

00006298 00000024 0000629c FDE cie=00000000 pc=1000c0180...1000c025c
  Format:       DWARF32
  DW_CFA_advance_loc: 12
  DW_CFA_def_cfa_offset: +64
  DW_CFA_offset: reg30 -8
  DW_CFA_offset: reg29 -16
  DW_CFA_offset: reg19 -24
  DW_CFA_offset: reg20 -32
  DW_CFA_nop:
  DW_CFA_nop:
  DW_CFA_nop:
  DW_CFA_nop:

  0x1000c0180: CFA=reg31
  0x1000c018c: CFA=reg31+64: reg19=[CFA-24], reg20=[CFA-32], reg29=[CFA-16], reg30=[CFA-8]

000062c0 00000034 000062c4 FDE cie=00000000 pc=1000c025c...1000c0508
  Format:       DWARF32
  DW_CFA_advance_loc: 28
  DW_CFA_def_cfa_offset: +208
  DW_CFA_offset: reg30 -8
  DW_CFA_offset: reg29 -16
  DW_CFA_offset: reg19 -24
  DW_CFA_offset: reg20 -32
  DW_CFA_offset: reg21 -40
  DW_CFA_offset: reg22 -48
  DW_CFA_offset: reg23 -56
  DW_CFA_offset: reg24 -64
  DW_CFA_offset: reg25 -72
  DW_CFA_offset: reg26 -80
  DW_CFA_offset: reg27 -88
  DW_CFA_offset: reg28 -96
  DW_CFA_nop:
  DW_CFA_nop:
  DW_CFA_nop:

  0x1000c025c: CFA=reg31
  0x1000c0278: CFA=reg31+208: reg19=[CFA-24], reg20=[CFA-32], reg21=[CFA-40], reg22=[CFA-48], reg23=[CFA-56], reg24=[CFA-64], reg25=[CFA-72], reg26=[CFA-80], reg27=[CFA-88], reg28=[CFA-96], reg29=[CFA-16], reg30=[CFA-8]

000062f8 00000024 000062fc FDE cie=00000000 pc=1000c0508...1000c06ac
  Format:       DWARF32
  DW_CFA_advance_loc: 8
  DW_CFA_def_cfa_offset: +32
  DW_CFA_offset: reg30 -8
  DW_CFA_offset: reg29 -16
  DW_CFA_offset: reg19 -24
  DW_CFA_offset: reg20 -32
  DW_CFA_nop:
  DW_CFA_nop:
  DW_CFA_nop:
  DW_CFA_nop:

  0x1000c0508: CFA=reg31
  0x1000c0510: CFA=reg31+32: reg19=[CFA-24], reg20=[CFA-32], reg29=[CFA-16], reg30=[CFA-8]

00006320 00000024 00006324 FDE cie=00000000 pc=1000c06dc...1000c0744
  Format:       DWARF32
  DW_CFA_advance_loc: 8
  DW_CFA_def_cfa_offset: +32
  DW_CFA_offset: reg30 -8
  DW_CFA_offset: reg29 -16
  DW_CFA_offset: reg19 -24
  DW_CFA_offset: reg20 -32
  DW_CFA_nop:
  DW_CFA_nop:
  DW_CFA_nop:
  DW_CFA_nop:

  0x1000c06dc: CFA=reg31
  0x1000c06e4: CFA=reg31+32: reg19=[CFA-24], reg20=[CFA-32], reg29=[CFA-16], reg30=[CFA-8]

00006348 0000001c 0000634c FDE cie=00000000 pc=1000c0744...1000c075c
  Format:       DWARF32
  DW_CFA_advance_loc: 8
  DW_CFA_def_cfa_offset: +32
  DW_CFA_offset: reg30 -8
  DW_CFA_offset: reg29 -16

  0x1000c0744: CFA=reg31
  0x1000c074c: CFA=reg31+32: reg29=[CFA-16], reg30=[CFA-8]

00006368 0000001c 0000636c FDE cie=00000000 pc=1000c07c0...1000c0900
  Format:       DWARF32
  DW_CFA_advance_loc: 4
  DW_CFA_def_cfa_offset: +16
  DW_CFA_offset: reg30 -8
  DW_CFA_offset: reg29 -16

  0x1000c07c0: CFA=reg31
  0x1000c07c4: CFA=reg31+16: reg29=[CFA-16], reg30=[CFA-8]

00006388 00000024 0000638c FDE cie=00000000 pc=1000c0c78...1000c0d5c
  Format:       DWARF32
  DW_CFA_advance_loc: 16
  DW_CFA_def_cfa_offset: +112
  DW_CFA_offset: reg30 -8
  DW_CFA_offset: reg29 -16
  DW_CFA_offset: reg19 -24
  DW_CFA_offset: reg20 -32
  DW_CFA_offset: reg21 -40
  DW_CFA_offset: reg22 -48

  0x1000c0c78: CFA=reg31
  0x1000c0c88: CFA=reg31+112: reg19=[CFA-24], reg20=[CFA-32], reg21=[CFA-40], reg22=[CFA-48], reg29=[CFA-16], reg30=[CFA-8]

000063b0 0000001c 000063b4 FDE cie=00000000 pc=1000c1e44...1000c1e80
  Format:       DWARF32
  DW_CFA_advance_loc: 8
  DW_CFA_def_cfa_offset: +80
  DW_CFA_offset: reg30 -8
  DW_CFA_offset: reg29 -16

  0x1000c1e44: CFA=reg31
  0x1000c1e4c: CFA=reg31+80: reg29=[CFA-16], reg30=[CFA-8]

000063d0 00000024 000063d4 FDE cie=00000000 pc=1000c1e80...1000c1ef0
  Format:       DWARF32
  DW_CFA_advance_loc: 12
  DW_CFA_def_cfa_offset: +48
  DW_CFA_offset: reg30 -8
  DW_CFA_offset: reg29 -16
  DW_CFA_offset: reg19 -24
  DW_CFA_offset: reg20 -32
  DW_CFA_offset: reg21 -40
  DW_CFA_offset: reg22 -48

  0x1000c1e80: CFA=reg31
  0x1000c1e8c: CFA=reg31+48: reg19=[CFA-24], reg20=[CFA-32], reg21=[CFA-40], reg22=[CFA-48], reg29=[CFA-16], reg30=[CFA-8]

000063f8 0000001c 000063fc FDE cie=00000000 pc=1000c1ef0...1000c1f30
  Format:       DWARF32
  DW_CFA_advance_loc: 8
  DW_CFA_def_cfa_offset: +80
  DW_CFA_offset: reg30 -8
  DW_CFA_offset: reg29 -16

  0x1000c1ef0: CFA=reg31
  0x1000c1ef8: CFA=reg31+80: reg29=[CFA-16], reg30=[CFA-8]

00006418 00000024 0000641c FDE cie=00000000 pc=1000c1f5c...1000c20a0
  Format:       DWARF32
  DW_CFA_advance_loc: 8
  DW_CFA_def_cfa_offset: +32
  DW_CFA_offset: reg30 -8
  DW_CFA_offset: reg29 -16
  DW_CFA_offset: reg19 -24
  DW_CFA_offset: reg20 -32
  DW_CFA_nop:
  DW_CFA_nop:
  DW_CFA_nop:
  DW_CFA_nop:

  0x1000c1f5c: CFA=reg31
  0x1000c1f64: CFA=reg31+32: reg19=[CFA-24], reg20=[CFA-32], reg29=[CFA-16], reg30=[CFA-8]

00006440 00000024 00006444 FDE cie=00000000 pc=1000c23f0...1000c247c
  Format:       DWARF32
  DW_CFA_advance_loc: 8
  DW_CFA_def_cfa_offset: +32
  DW_CFA_offset: reg30 -8
  DW_CFA_offset: reg29 -16
  DW_CFA_offset: reg19 -24
  DW_CFA_offset: reg20 -32
  DW_CFA_nop:
  DW_CFA_nop:
  DW_CFA_nop:
  DW_CFA_nop:

  0x1000c23f0: CFA=reg31
  0x1000c23f8: CFA=reg31+32: reg19=[CFA-24], reg20=[CFA-32], reg29=[CFA-16], reg30=[CFA-8]

00006468 00000024 0000646c FDE cie=00000000 pc=1000c247c...1000c253c
  Format:       DWARF32
  DW_CFA_advance_loc: 8
  DW_CFA_def_cfa_offset: +32
  DW_CFA_offset: reg30 -8
  DW_CFA_offset: reg29 -16
  DW_CFA_offset: reg19 -24
  DW_CFA_offset: reg20 -32
  DW_CFA_nop:
  DW_CFA_nop:
  DW_CFA_nop:
  DW_CFA_nop:

  0x1000c247c: CFA=reg31
  0x1000c2484: CFA=reg31+32: reg19=[CFA-24], reg20=[CFA-32], reg29=[CFA-16], reg30=[CFA-8]

00006490 0000002c 00006494 FDE cie=00000000 pc=1000c253c...1000c2768
  Format:       DWARF32
  DW_CFA_advance_loc: 20
  DW_CFA_def_cfa_offset: +80
  DW_CFA_offset: reg30 -8
  DW_CFA_offset: reg29 -16
  DW_CFA_offset: reg19 -24
  DW_CFA_offset: reg20 -32
  DW_CFA_offset: reg21 -40
  DW_CFA_offset: reg22 -48
  DW_CFA_offset: reg23 -56
  DW_CFA_offset: reg24 -64
  DW_CFA_nop:
  DW_CFA_nop:
  DW_CFA_nop:
  DW_CFA_nop:

  0x1000c253c: CFA=reg31
  0x1000c2550: CFA=reg31+80: reg19=[CFA-24], reg20=[CFA-32], reg21=[CFA-40], reg22=[CFA-48], reg23=[CFA-56], reg24=[CFA-64], reg29=[CFA-16], reg30=[CFA-8]

000064c0 0000001c 000064c4 FDE cie=00000000 pc=10040a38c...10040a3b8
  Format:       DWARF32
  DW_CFA_advance_loc: 8
  DW_CFA_def_cfa_offset: +48
  DW_CFA_offset: reg30 -8
  DW_CFA_offset: reg29 -16

  0x10040a38c: CFA=reg31
  0x10040a394: CFA=reg31+48: reg29=[CFA-16], reg30=[CFA-8]

000064e0 00000024 000064e4 FDE cie=00000000 pc=1000c2a68...1000c2fc8
  Format:       DWARF32
  DW_CFA_advance_loc: 12
  DW_CFA_def_cfa_offset: +64
  DW_CFA_offset: reg30 -8
  DW_CFA_offset: reg29 -16
  DW_CFA_offset: reg19 -24
  DW_CFA_offset: reg20 -32
  DW_CFA_nop:
  DW_CFA_nop:
  DW_CFA_nop:
  DW_CFA_nop:

  0x1000c2a68: CFA=reg31
  0x1000c2a74: CFA=reg31+64: reg19=[CFA-24], reg20=[CFA-32], reg29=[CFA-16], reg30=[CFA-8]

00006508 0000002c 0000650c FDE cie=00000000 pc=1000c2fc8...1000c30a0
  Format:       DWARF32
  DW_CFA_advance_loc: 16
  DW_CFA_def_cfa_offset: +128
  DW_CFA_offset: reg30 -8
  DW_CFA_offset: reg29 -16
  DW_CFA_offset: reg19 -24
  DW_CFA_offset: reg20 -32
  DW_CFA_offset: reg21 -40
  DW_CFA_offset: reg22 -48
  DW_CFA_nop:
  DW_CFA_nop:
  DW_CFA_nop:
  DW_CFA_nop:
  DW_CFA_nop:
  DW_CFA_nop:
  DW_CFA_nop:

  0x1000c2fc8: CFA=reg31
  0x1000c2fd8: CFA=reg31+128: reg19=[CFA-24], reg20=[CFA-32], reg21=[CFA-40], reg22=[CFA-48], reg29=[CFA-16], reg30=[CFA-8]

00006538 00000024 0000653c FDE cie=00000000 pc=1000c30ac...1000c3174
  Format:       DWARF32
  DW_CFA_advance_loc: 12
  DW_CFA_def_cfa_offset: +64
  DW_CFA_offset: reg30 -8
  DW_CFA_offset: reg29 -16
  DW_CFA_offset: reg19 -24
  DW_CFA_offset: reg20 -32
  DW_CFA_nop:
  DW_CFA_nop:
  DW_CFA_nop:
  DW_CFA_nop:

  0x1000c30ac: CFA=reg31
  0x1000c30b8: CFA=reg31+64: reg19=[CFA-24], reg20=[CFA-32], reg29=[CFA-16], reg30=[CFA-8]

00006560 00000024 00006564 FDE cie=00000000 pc=1000c3174...1000c33b8
  Format:       DWARF32
  DW_CFA_advance_loc: 12
  DW_CFA_def_cfa_offset: +64
  DW_CFA_offset: reg30 -8
  DW_CFA_offset: reg29 -16
  DW_CFA_offset: reg19 -24
  DW_CFA_offset: reg20 -32
  DW_CFA_nop:
  DW_CFA_nop:
  DW_CFA_nop:
  DW_CFA_nop:

  0x1000c3174: CFA=reg31
  0x1000c3180: CFA=reg31+64: reg19=[CFA-24], reg20=[CFA-32], reg29=[CFA-16], reg30=[CFA-8]

00006588 00000024 0000658c FDE cie=00000000 pc=1000c33c8...1000c3aac
  Format:       DWARF32
  DW_CFA_advance_loc: 12
  DW_CFA_def_cfa_offset: +64
  DW_CFA_offset: reg30 -8
  DW_CFA_offset: reg29 -16
  DW_CFA_offset: reg19 -24
  DW_CFA_offset: reg20 -32
  DW_CFA_nop:
  DW_CFA_nop:
  DW_CFA_nop:
  DW_CFA_nop:

  0x1000c33c8: CFA=reg31
  0x1000c33d4: CFA=reg31+64: reg19=[CFA-24], reg20=[CFA-32], reg29=[CFA-16], reg30=[CFA-8]

000065b0 0000002c 000065b4 FDE cie=00000000 pc=1000c3aac...1000c4308
  Format:       DWARF32
  DW_CFA_advance_loc: 20
  DW_CFA_def_cfa_offset: +672
  DW_CFA_offset: reg30 -8
  DW_CFA_offset: reg29 -16
  DW_CFA_offset: reg19 -24
  DW_CFA_offset: reg20 -32
  DW_CFA_offset: reg21 -40
  DW_CFA_offset: reg22 -48
  DW_CFA_offset: reg27 -56
  DW_CFA_offset: reg28 -64
  DW_CFA_nop:
  DW_CFA_nop:
  DW_CFA_nop:

  0x1000c3aac: CFA=reg31
  0x1000c3ac0: CFA=reg31+672: reg19=[CFA-24], reg20=[CFA-32], reg21=[CFA-40], reg22=[CFA-48], reg27=[CFA-56], reg28=[CFA-64], reg29=[CFA-16], reg30=[CFA-8]

000065e0 0000002c 000065e4 FDE cie=00000000 pc=1000c443c...1000c45e0
  Format:       DWARF32
  DW_CFA_advance_loc: 16
  DW_CFA_def_cfa_offset: +64
  DW_CFA_offset: reg30 -8
  DW_CFA_offset: reg29 -16
  DW_CFA_offset: reg19 -24
  DW_CFA_offset: reg20 -32
  DW_CFA_offset: reg21 -40
  DW_CFA_offset: reg22 -48
  DW_CFA_offset: reg23 -56
  DW_CFA_offset: reg24 -64
  DW_CFA_nop:
  DW_CFA_nop:
  DW_CFA_nop:
  DW_CFA_nop:

  0x1000c443c: CFA=reg31
  0x1000c444c: CFA=reg31+64: reg19=[CFA-24], reg20=[CFA-32], reg21=[CFA-40], reg22=[CFA-48], reg23=[CFA-56], reg24=[CFA-64], reg29=[CFA-16], reg30=[CFA-8]

00006610 0000002c 00006614 FDE cie=00000000 pc=1000c473c...1000c4928
  Format:       DWARF32
  DW_CFA_advance_loc: 16
  DW_CFA_def_cfa_offset: +64
  DW_CFA_offset: reg30 -8
  DW_CFA_offset: reg29 -16
  DW_CFA_offset: reg19 -24
  DW_CFA_offset: reg20 -32
  DW_CFA_offset: reg21 -40
  DW_CFA_offset: reg22 -48
  DW_CFA_offset: reg23 -56
  DW_CFA_offset: reg24 -64
  DW_CFA_nop:
  DW_CFA_nop:
  DW_CFA_nop:
  DW_CFA_nop:

  0x1000c473c: CFA=reg31
  0x1000c474c: CFA=reg31+64: reg19=[CFA-24], reg20=[CFA-32], reg21=[CFA-40], reg22=[CFA-48], reg23=[CFA-56], reg24=[CFA-64], reg29=[CFA-16], reg30=[CFA-8]

00006640 0000002c 00006644 FDE cie=00000000 pc=1000c4e80...1000c4fa4
  Format:       DWARF32
  DW_CFA_advance_loc: 16
  DW_CFA_def_cfa_offset: +64
  DW_CFA_offset: reg30 -8
  DW_CFA_offset: reg29 -16
  DW_CFA_offset: reg19 -24
  DW_CFA_offset: reg20 -32
  DW_CFA_offset: reg21 -40
  DW_CFA_offset: reg22 -48
  DW_CFA_offset: reg23 -56
  DW_CFA_offset: reg24 -64
  DW_CFA_nop:
  DW_CFA_nop:
  DW_CFA_nop:
  DW_CFA_nop:

  0x1000c4e80: CFA=reg31
  0x1000c4e90: CFA=reg31+64: reg19=[CFA-24], reg20=[CFA-32], reg21=[CFA-40], reg22=[CFA-48], reg23=[CFA-56], reg24=[CFA-64], reg29=[CFA-16], reg30=[CFA-8]

00006670 0000002c 00006674 FDE cie=00000000 pc=1000c5178...1000c5294
  Format:       DWARF32
  DW_CFA_advance_loc: 16
  DW_CFA_def_cfa_offset: +64
  DW_CFA_offset: reg30 -8
  DW_CFA_offset: reg29 -16
  DW_CFA_offset: reg19 -24
  DW_CFA_offset: reg20 -32
  DW_CFA_offset: reg21 -40
  DW_CFA_offset: reg22 -48
  DW_CFA_offset: reg23 -56
  DW_CFA_offset: reg24 -64
  DW_CFA_nop:
  DW_CFA_nop:
  DW_CFA_nop:
  DW_CFA_nop:

  0x1000c5178: CFA=reg31
  0x1000c5188: CFA=reg31+64: reg19=[CFA-24], reg20=[CFA-32], reg21=[CFA-40], reg22=[CFA-48], reg23=[CFA-56], reg24=[CFA-64], reg29=[CFA-16], reg30=[CFA-8]

000066a0 0000002c 000066a4 FDE cie=00000000 pc=1000c535c...1000c5480
  Format:       DWARF32
  DW_CFA_advance_loc: 16
  DW_CFA_def_cfa_offset: +64
  DW_CFA_offset: reg30 -8
  DW_CFA_offset: reg29 -16
  DW_CFA_offset: reg19 -24
  DW_CFA_offset: reg20 -32
  DW_CFA_offset: reg21 -40
  DW_CFA_offset: reg22 -48
  DW_CFA_offset: reg23 -56
  DW_CFA_offset: reg24 -64
  DW_CFA_nop:
  DW_CFA_nop:
  DW_CFA_nop:
  DW_CFA_nop:

  0x1000c535c: CFA=reg31
  0x1000c536c: CFA=reg31+64: reg19=[CFA-24], reg20=[CFA-32], reg21=[CFA-40], reg22=[CFA-48], reg23=[CFA-56], reg24=[CFA-64], reg29=[CFA-16], reg30=[CFA-8]

000066d0 0000002c 000066d4 FDE cie=00000000 pc=1000c5518...1000c5644
  Format:       DWARF32
  DW_CFA_advance_loc: 16
  DW_CFA_def_cfa_offset: +144
  DW_CFA_offset: reg30 -8
  DW_CFA_offset: reg29 -16
  DW_CFA_offset: reg19 -24
  DW_CFA_offset: reg20 -32
  DW_CFA_offset: reg21 -40
  DW_CFA_offset: reg22 -48
  DW_CFA_nop:
  DW_CFA_nop:
  DW_CFA_nop:
  DW_CFA_nop:
  DW_CFA_nop:
  DW_CFA_nop:
  DW_CFA_nop:

  0x1000c5518: CFA=reg31
  0x1000c5528: CFA=reg31+144: reg19=[CFA-24], reg20=[CFA-32], reg21=[CFA-40], reg22=[CFA-48], reg29=[CFA-16], reg30=[CFA-8]

00006700 0000001c 00006704 FDE cie=00000000 pc=1000c6028...1000c6048
  Format:       DWARF32
  DW_CFA_advance_loc: 8
  DW_CFA_def_cfa_offset: +48
  DW_CFA_offset: reg30 -8
  DW_CFA_offset: reg29 -16

  0x1000c6028: CFA=reg31
  0x1000c6030: CFA=reg31+48: reg29=[CFA-16], reg30=[CFA-8]

00006720 0000001c 00006724 FDE cie=00000000 pc=1000c6048...1000c6070
  Format:       DWARF32
  DW_CFA_advance_loc: 8
  DW_CFA_def_cfa_offset: +32
  DW_CFA_offset: reg30 -8
  DW_CFA_offset: reg29 -16

  0x1000c6048: CFA=reg31
  0x1000c6050: CFA=reg31+32: reg29=[CFA-16], reg30=[CFA-8]

00006740 00000024 00006744 FDE cie=00000000 pc=1000c6070...1000c60b8
  Format:       DWARF32
  DW_CFA_advance_loc: 8
  DW_CFA_def_cfa_offset: +32
  DW_CFA_offset: reg30 -8
  DW_CFA_offset: reg29 -16
  DW_CFA_offset: reg19 -24
  DW_CFA_offset: reg20 -32
  DW_CFA_nop:
  DW_CFA_nop:
  DW_CFA_nop:
  DW_CFA_nop:

  0x1000c6070: CFA=reg31
  0x1000c6078: CFA=reg31+32: reg19=[CFA-24], reg20=[CFA-32], reg29=[CFA-16], reg30=[CFA-8]

00006768 0000001c 0000676c FDE cie=00000000 pc=1000c60b8...1000c60d8
  Format:       DWARF32
  DW_CFA_advance_loc: 4
  DW_CFA_def_cfa_offset: +16
  DW_CFA_offset: reg30 -8
  DW_CFA_offset: reg29 -16

  0x1000c60b8: CFA=reg31
  0x1000c60bc: CFA=reg31+16: reg29=[CFA-16], reg30=[CFA-8]

00006788 0000002c 0000678c FDE cie=00000000 pc=1000c756c...1000c7684
  Format:       DWARF32
  DW_CFA_advance_loc: 16
  DW_CFA_def_cfa_offset: +64
  DW_CFA_offset: reg30 -8
  DW_CFA_offset: reg29 -16
  DW_CFA_offset: reg19 -24
  DW_CFA_offset: reg20 -32
  DW_CFA_offset: reg21 -40
  DW_CFA_offset: reg22 -48
  DW_CFA_offset: reg23 -56
  DW_CFA_offset: reg24 -64
  DW_CFA_nop:
  DW_CFA_nop:
  DW_CFA_nop:
  DW_CFA_nop:

  0x1000c756c: CFA=reg31
  0x1000c757c: CFA=reg31+64: reg19=[CFA-24], reg20=[CFA-32], reg21=[CFA-40], reg22=[CFA-48], reg23=[CFA-56], reg24=[CFA-64], reg29=[CFA-16], reg30=[CFA-8]

000067b8 0000002c 000067bc FDE cie=00000000 pc=1000c7684...1000c77cc
  Format:       DWARF32
  DW_CFA_advance_loc: 20
  DW_CFA_def_cfa_offset: +80
  DW_CFA_offset: reg30 -8
  DW_CFA_offset: reg29 -16
  DW_CFA_offset: reg19 -24
  DW_CFA_offset: reg20 -32
  DW_CFA_offset: reg21 -40
  DW_CFA_offset: reg22 -48
  DW_CFA_offset: reg23 -56
  DW_CFA_offset: reg24 -64
  DW_CFA_nop:
  DW_CFA_nop:
  DW_CFA_nop:
  DW_CFA_nop:

  0x1000c7684: CFA=reg31
  0x1000c7698: CFA=reg31+80: reg19=[CFA-24], reg20=[CFA-32], reg21=[CFA-40], reg22=[CFA-48], reg23=[CFA-56], reg24=[CFA-64], reg29=[CFA-16], reg30=[CFA-8]

000067e8 0000002c 000067ec FDE cie=00000000 pc=1000c77cc...1000c78e8
  Format:       DWARF32
  DW_CFA_advance_loc: 16
  DW_CFA_def_cfa_offset: +64
  DW_CFA_offset: reg30 -8
  DW_CFA_offset: reg29 -16
  DW_CFA_offset: reg19 -24
  DW_CFA_offset: reg20 -32
  DW_CFA_offset: reg21 -40
  DW_CFA_offset: reg22 -48
  DW_CFA_offset: reg23 -56
  DW_CFA_offset: reg24 -64
  DW_CFA_nop:
  DW_CFA_nop:
  DW_CFA_nop:
  DW_CFA_nop:

  0x1000c77cc: CFA=reg31
  0x1000c77dc: CFA=reg31+64: reg19=[CFA-24], reg20=[CFA-32], reg21=[CFA-40], reg22=[CFA-48], reg23=[CFA-56], reg24=[CFA-64], reg29=[CFA-16], reg30=[CFA-8]

00006818 00000034 0000681c FDE cie=00000000 pc=1000c7d68...1000c8178
  Format:       DWARF32
  DW_CFA_advance_loc: 28
  DW_CFA_def_cfa_offset: +128
  DW_CFA_offset: reg30 -8
  DW_CFA_offset: reg29 -16
  DW_CFA_offset: reg19 -24
  DW_CFA_offset: reg20 -32
  DW_CFA_offset: reg21 -40
  DW_CFA_offset: reg22 -48
  DW_CFA_offset: reg23 -56
  DW_CFA_offset: reg24 -64
  DW_CFA_offset: reg25 -72
  DW_CFA_offset: reg26 -80
  DW_CFA_offset: reg27 -88
  DW_CFA_offset: reg28 -96
  DW_CFA_nop:
  DW_CFA_nop:
  DW_CFA_nop:

  0x1000c7d68: CFA=reg31
  0x1000c7d84: CFA=reg31+128: reg19=[CFA-24], reg20=[CFA-32], reg21=[CFA-40], reg22=[CFA-48], reg23=[CFA-56], reg24=[CFA-64], reg25=[CFA-72], reg26=[CFA-80], reg27=[CFA-88], reg28=[CFA-96], reg29=[CFA-16], reg30=[CFA-8]

00006850 00000024 00006854 FDE cie=00000000 pc=1000c8320...1000c8368
  Format:       DWARF32
  DW_CFA_advance_loc: 8
  DW_CFA_def_cfa_offset: +32
  DW_CFA_offset: reg30 -8
  DW_CFA_offset: reg29 -16
  DW_CFA_offset: reg19 -24
  DW_CFA_offset: reg20 -32
  DW_CFA_nop:
  DW_CFA_nop:
  DW_CFA_nop:
  DW_CFA_nop:

  0x1000c8320: CFA=reg31
  0x1000c8328: CFA=reg31+32: reg19=[CFA-24], reg20=[CFA-32], reg29=[CFA-16], reg30=[CFA-8]

00006878 0000002c 0000687c FDE cie=00000000 pc=1000c8368...1000c84b4
  Format:       DWARF32
  DW_CFA_advance_loc: 20
  DW_CFA_def_cfa_offset: +80
  DW_CFA_offset: reg30 -8
  DW_CFA_offset: reg29 -16
  DW_CFA_offset: reg19 -24
  DW_CFA_offset: reg20 -32
  DW_CFA_offset: reg21 -40
  DW_CFA_offset: reg22 -48
  DW_CFA_offset: reg23 -56
  DW_CFA_offset: reg24 -64
  DW_CFA_nop:
  DW_CFA_nop:
  DW_CFA_nop:
  DW_CFA_nop:

  0x1000c8368: CFA=reg31
  0x1000c837c: CFA=reg31+80: reg19=[CFA-24], reg20=[CFA-32], reg21=[CFA-40], reg22=[CFA-48], reg23=[CFA-56], reg24=[CFA-64], reg29=[CFA-16], reg30=[CFA-8]

000068a8 00000024 000068ac FDE cie=00000000 pc=1000c860c...1000c898c
  Format:       DWARF32
  DW_CFA_advance_loc: 16
  DW_CFA_def_cfa_offset: +96
  DW_CFA_offset: reg30 -8
  DW_CFA_offset: reg29 -16
  DW_CFA_offset: reg19 -24
  DW_CFA_offset: reg20 -32
  DW_CFA_offset: reg21 -40
  DW_CFA_offset: reg22 -48

  0x1000c860c: CFA=reg31
  0x1000c861c: CFA=reg31+96: reg19=[CFA-24], reg20=[CFA-32], reg21=[CFA-40], reg22=[CFA-48], reg29=[CFA-16], reg30=[CFA-8]

000068d0 00000024 000068d4 FDE cie=00000000 pc=1000cbfdc...1000cc06c
  Format:       DWARF32
  DW_CFA_advance_loc: 12
  DW_CFA_def_cfa_offset: +48
  DW_CFA_offset: reg30 -8
  DW_CFA_offset: reg29 -16
  DW_CFA_offset: reg19 -24
  DW_CFA_offset: reg20 -32
  DW_CFA_offset: reg21 -40
  DW_CFA_offset: reg22 -48

  0x1000cbfdc: CFA=reg31
  0x1000cbfe8: CFA=reg31+48: reg19=[CFA-24], reg20=[CFA-32], reg21=[CFA-40], reg22=[CFA-48], reg29=[CFA-16], reg30=[CFA-8]

000068f8 00000024 000068fc FDE cie=00000000 pc=1000cc2a0...1000cc798
  Format:       DWARF32
  DW_CFA_advance_loc: 12
  DW_CFA_def_cfa_offset: +64
  DW_CFA_offset: reg30 -8
  DW_CFA_offset: reg29 -16
  DW_CFA_offset: reg19 -24
  DW_CFA_offset: reg20 -32
  DW_CFA_nop:
  DW_CFA_nop:
  DW_CFA_nop:
  DW_CFA_nop:

  0x1000cc2a0: CFA=reg31
  0x1000cc2ac: CFA=reg31+64: reg19=[CFA-24], reg20=[CFA-32], reg29=[CFA-16], reg30=[CFA-8]

00006920 00000024 00006924 FDE cie=00000000 pc=1000ccd20...1000cce18
  Format:       DWARF32
  DW_CFA_advance_loc: 16
  DW_CFA_def_cfa_offset: +80
  DW_CFA_offset: reg30 -8
  DW_CFA_offset: reg29 -16
  DW_CFA_offset: reg19 -24
  DW_CFA_offset: reg20 -32
  DW_CFA_offset: reg21 -40
  DW_CFA_offset: reg22 -48

  0x1000ccd20: CFA=reg31
  0x1000ccd30: CFA=reg31+80: reg19=[CFA-24], reg20=[CFA-32], reg21=[CFA-40], reg22=[CFA-48], reg29=[CFA-16], reg30=[CFA-8]

00006948 00000024 0000694c FDE cie=00000000 pc=1000cd0a8...1000cd170
  Format:       DWARF32
  DW_CFA_advance_loc: 12
  DW_CFA_def_cfa_offset: +64
  DW_CFA_offset: reg30 -8
  DW_CFA_offset: reg29 -16
  DW_CFA_offset: reg19 -24
  DW_CFA_offset: reg20 -32
  DW_CFA_nop:
  DW_CFA_nop:
  DW_CFA_nop:
  DW_CFA_nop:

  0x1000cd0a8: CFA=reg31
  0x1000cd0b4: CFA=reg31+64: reg19=[CFA-24], reg20=[CFA-32], reg29=[CFA-16], reg30=[CFA-8]

00006970 0000002c 00006974 FDE cie=00000000 pc=1000cd170...1000cd2e8
  Format:       DWARF32
  DW_CFA_advance_loc: 20
  DW_CFA_def_cfa_offset: +96
  DW_CFA_offset: reg30 -8
  DW_CFA_offset: reg29 -16
  DW_CFA_offset: reg19 -24
  DW_CFA_offset: reg20 -32
  DW_CFA_offset: reg21 -40
  DW_CFA_offset: reg22 -48
  DW_CFA_offset: reg23 -56
  DW_CFA_offset: reg24 -64
  DW_CFA_nop:
  DW_CFA_nop:
  DW_CFA_nop:
  DW_CFA_nop:

  0x1000cd170: CFA=reg31
  0x1000cd184: CFA=reg31+96: reg19=[CFA-24], reg20=[CFA-32], reg21=[CFA-40], reg22=[CFA-48], reg23=[CFA-56], reg24=[CFA-64], reg29=[CFA-16], reg30=[CFA-8]

000069a0 00000024 000069a4 FDE cie=00000000 pc=1000cd2e8...1000cd3e4
  Format:       DWARF32
  DW_CFA_advance_loc: 12
  DW_CFA_def_cfa_offset: +64
  DW_CFA_offset: reg30 -8
  DW_CFA_offset: reg29 -16
  DW_CFA_offset: reg19 -24
  DW_CFA_offset: reg20 -32
  DW_CFA_nop:
  DW_CFA_nop:
  DW_CFA_nop:
  DW_CFA_nop:

  0x1000cd2e8: CFA=reg31
  0x1000cd2f4: CFA=reg31+64: reg19=[CFA-24], reg20=[CFA-32], reg29=[CFA-16], reg30=[CFA-8]

000069c8 00000034 000069cc FDE cie=00000000 pc=1000cd3e4...1000cd608
  Format:       DWARF32
  DW_CFA_advance_loc: 28
  DW_CFA_def_cfa_offset: +208
  DW_CFA_offset: reg30 -8
  DW_CFA_offset: reg29 -16
  DW_CFA_offset: reg19 -24
  DW_CFA_offset: reg20 -32
  DW_CFA_offset: reg21 -40
  DW_CFA_offset: reg22 -48
  DW_CFA_offset: reg23 -56
  DW_CFA_offset: reg24 -64
  DW_CFA_offset: reg25 -72
  DW_CFA_offset: reg26 -80
  DW_CFA_offset: reg27 -88
  DW_CFA_offset: reg28 -96
  DW_CFA_nop:
  DW_CFA_nop:
  DW_CFA_nop:

  0x1000cd3e4: CFA=reg31
  0x1000cd400: CFA=reg31+208: reg19=[CFA-24], reg20=[CFA-32], reg21=[CFA-40], reg22=[CFA-48], reg23=[CFA-56], reg24=[CFA-64], reg25=[CFA-72], reg26=[CFA-80], reg27=[CFA-88], reg28=[CFA-96], reg29=[CFA-16], reg30=[CFA-8]

00006a00 0000002c 00006a04 FDE cie=00000000 pc=1000cd608...1000cd758
  Format:       DWARF32
  DW_CFA_advance_loc: 20
  DW_CFA_def_cfa_offset: +96
  DW_CFA_offset: reg30 -8
  DW_CFA_offset: reg29 -16
  DW_CFA_offset: reg19 -24
  DW_CFA_offset: reg20 -32
  DW_CFA_offset: reg21 -40
  DW_CFA_offset: reg22 -48
  DW_CFA_offset: reg23 -56
  DW_CFA_offset: reg24 -64
  DW_CFA_nop:
  DW_CFA_nop:
  DW_CFA_nop:
  DW_CFA_nop:

  0x1000cd608: CFA=reg31
  0x1000cd61c: CFA=reg31+96: reg19=[CFA-24], reg20=[CFA-32], reg21=[CFA-40], reg22=[CFA-48], reg23=[CFA-56], reg24=[CFA-64], reg29=[CFA-16], reg30=[CFA-8]

00006a30 00000024 00006a34 FDE cie=00000000 pc=1000cd758...1000cd85c
  Format:       DWARF32
  DW_CFA_advance_loc: 12
  DW_CFA_def_cfa_offset: +64
  DW_CFA_offset: reg30 -8
  DW_CFA_offset: reg29 -16
  DW_CFA_offset: reg19 -24
  DW_CFA_offset: reg20 -32
  DW_CFA_nop:
  DW_CFA_nop:
  DW_CFA_nop:
  DW_CFA_nop:

  0x1000cd758: CFA=reg31
  0x1000cd764: CFA=reg31+64: reg19=[CFA-24], reg20=[CFA-32], reg29=[CFA-16], reg30=[CFA-8]

00006a58 00000034 00006a5c FDE cie=00000000 pc=1000cdf60...1000ce1ac
  Format:       DWARF32
  DW_CFA_advance_loc: 28
  DW_CFA_def_cfa_offset: +272
  DW_CFA_offset: reg30 -8
  DW_CFA_offset: reg29 -16
  DW_CFA_offset: reg19 -24
  DW_CFA_offset: reg20 -32
  DW_CFA_offset: reg21 -40
  DW_CFA_offset: reg22 -48
  DW_CFA_offset: reg23 -56
  DW_CFA_offset: reg24 -64
  DW_CFA_offset: reg25 -72
  DW_CFA_offset: reg26 -80
  DW_CFA_offset: reg27 -88
  DW_CFA_offset: reg28 -96
  DW_CFA_nop:
  DW_CFA_nop:
  DW_CFA_nop:

  0x1000cdf60: CFA=reg31
  0x1000cdf7c: CFA=reg31+272: reg19=[CFA-24], reg20=[CFA-32], reg21=[CFA-40], reg22=[CFA-48], reg23=[CFA-56], reg24=[CFA-64], reg25=[CFA-72], reg26=[CFA-80], reg27=[CFA-88], reg28=[CFA-96], reg29=[CFA-16], reg30=[CFA-8]

00006a90 00000024 00006a94 FDE cie=00000000 pc=1000ce1ac...1000ce350
  Format:       DWARF32
  DW_CFA_advance_loc: 12
  DW_CFA_def_cfa_offset: +48
  DW_CFA_offset: reg30 -8
  DW_CFA_offset: reg29 -16
  DW_CFA_offset: reg19 -24
  DW_CFA_offset: reg20 -32
  DW_CFA_nop:
  DW_CFA_nop:
  DW_CFA_nop:
  DW_CFA_nop:

  0x1000ce1ac: CFA=reg31
  0x1000ce1b8: CFA=reg31+48: reg19=[CFA-24], reg20=[CFA-32], reg29=[CFA-16], reg30=[CFA-8]

00006ab8 00000034 00006abc FDE cie=00000000 pc=1000ce350...1000ce578
  Format:       DWARF32
  DW_CFA_advance_loc: 28
  DW_CFA_def_cfa_offset: +208
  DW_CFA_offset: reg30 -8
  DW_CFA_offset: reg29 -16
  DW_CFA_offset: reg19 -24
  DW_CFA_offset: reg20 -32
  DW_CFA_offset: reg21 -40
  DW_CFA_offset: reg22 -48
  DW_CFA_offset: reg23 -56
  DW_CFA_offset: reg24 -64
  DW_CFA_offset: reg25 -72
  DW_CFA_offset: reg26 -80
  DW_CFA_offset: reg27 -88
  DW_CFA_offset: reg28 -96
  DW_CFA_nop:
  DW_CFA_nop:
  DW_CFA_nop:

  0x1000ce350: CFA=reg31
  0x1000ce36c: CFA=reg31+208: reg19=[CFA-24], reg20=[CFA-32], reg21=[CFA-40], reg22=[CFA-48], reg23=[CFA-56], reg24=[CFA-64], reg25=[CFA-72], reg26=[CFA-80], reg27=[CFA-88], reg28=[CFA-96], reg29=[CFA-16], reg30=[CFA-8]

00006af0 00000024 00006af4 FDE cie=00000000 pc=1000ce578...1000cecac
  Format:       DWARF32
  DW_CFA_advance_loc: 16
  DW_CFA_def_cfa_offset: +80
  DW_CFA_offset: reg30 -8
  DW_CFA_offset: reg29 -16
  DW_CFA_offset: reg19 -24
  DW_CFA_offset: reg20 -32
  DW_CFA_offset: reg21 -40
  DW_CFA_offset: reg22 -48

  0x1000ce578: CFA=reg31
  0x1000ce588: CFA=reg31+80: reg19=[CFA-24], reg20=[CFA-32], reg21=[CFA-40], reg22=[CFA-48], reg29=[CFA-16], reg30=[CFA-8]

00006b18 00000034 00006b1c FDE cie=00000000 pc=1000ceed0...1000cf108
  Format:       DWARF32
  DW_CFA_advance_loc: 28
  DW_CFA_def_cfa_offset: +208
  DW_CFA_offset: reg30 -8
  DW_CFA_offset: reg29 -16
  DW_CFA_offset: reg19 -24
  DW_CFA_offset: reg20 -32
  DW_CFA_offset: reg21 -40
  DW_CFA_offset: reg22 -48
  DW_CFA_offset: reg23 -56
  DW_CFA_offset: reg24 -64
  DW_CFA_offset: reg25 -72
  DW_CFA_offset: reg26 -80
  DW_CFA_offset: reg27 -88
  DW_CFA_offset: reg28 -96
  DW_CFA_nop:
  DW_CFA_nop:
  DW_CFA_nop:

  0x1000ceed0: CFA=reg31
  0x1000ceeec: CFA=reg31+208: reg19=[CFA-24], reg20=[CFA-32], reg21=[CFA-40], reg22=[CFA-48], reg23=[CFA-56], reg24=[CFA-64], reg25=[CFA-72], reg26=[CFA-80], reg27=[CFA-88], reg28=[CFA-96], reg29=[CFA-16], reg30=[CFA-8]

00006b50 00000034 00006b54 FDE cie=00000000 pc=1000cf108...1000cf31c
  Format:       DWARF32
  DW_CFA_advance_loc: 28
  DW_CFA_def_cfa_offset: +240
  DW_CFA_offset: reg30 -8
  DW_CFA_offset: reg29 -16
  DW_CFA_offset: reg19 -24
  DW_CFA_offset: reg20 -32
  DW_CFA_offset: reg21 -40
  DW_CFA_offset: reg22 -48
  DW_CFA_offset: reg23 -56
  DW_CFA_offset: reg24 -64
  DW_CFA_offset: reg25 -72
  DW_CFA_offset: reg26 -80
  DW_CFA_offset: reg27 -88
  DW_CFA_offset: reg28 -96
  DW_CFA_nop:
  DW_CFA_nop:
  DW_CFA_nop:

  0x1000cf108: CFA=reg31
  0x1000cf124: CFA=reg31+240: reg19=[CFA-24], reg20=[CFA-32], reg21=[CFA-40], reg22=[CFA-48], reg23=[CFA-56], reg24=[CFA-64], reg25=[CFA-72], reg26=[CFA-80], reg27=[CFA-88], reg28=[CFA-96], reg29=[CFA-16], reg30=[CFA-8]

00006b88 00000034 00006b8c FDE cie=00000000 pc=1000cf37c...1000cf5b4
  Format:       DWARF32
  DW_CFA_advance_loc: 28
  DW_CFA_def_cfa_offset: +208
  DW_CFA_offset: reg30 -8
  DW_CFA_offset: reg29 -16
  DW_CFA_offset: reg19 -24
  DW_CFA_offset: reg20 -32
  DW_CFA_offset: reg21 -40
  DW_CFA_offset: reg22 -48
  DW_CFA_offset: reg23 -56
  DW_CFA_offset: reg24 -64
  DW_CFA_offset: reg25 -72
  DW_CFA_offset: reg26 -80
  DW_CFA_offset: reg27 -88
  DW_CFA_offset: reg28 -96
  DW_CFA_nop:
  DW_CFA_nop:
  DW_CFA_nop:

  0x1000cf37c: CFA=reg31
  0x1000cf398: CFA=reg31+208: reg19=[CFA-24], reg20=[CFA-32], reg21=[CFA-40], reg22=[CFA-48], reg23=[CFA-56], reg24=[CFA-64], reg25=[CFA-72], reg26=[CFA-80], reg27=[CFA-88], reg28=[CFA-96], reg29=[CFA-16], reg30=[CFA-8]

00006bc0 00000024 00006bc4 FDE cie=00000000 pc=1000cf63c...1000cf75c
  Format:       DWARF32
  DW_CFA_advance_loc: 16
  DW_CFA_def_cfa_offset: +80
  DW_CFA_offset: reg30 -8
  DW_CFA_offset: reg29 -16
  DW_CFA_offset: reg19 -24
  DW_CFA_offset: reg20 -32
  DW_CFA_offset: reg21 -40
  DW_CFA_offset: reg22 -48

  0x1000cf63c: CFA=reg31
  0x1000cf64c: CFA=reg31+80: reg19=[CFA-24], reg20=[CFA-32], reg21=[CFA-40], reg22=[CFA-48], reg29=[CFA-16], reg30=[CFA-8]

00006be8 00000024 00006bec FDE cie=00000000 pc=1000cf79c...1000cf8bc
  Format:       DWARF32
  DW_CFA_advance_loc: 16
  DW_CFA_def_cfa_offset: +80
  DW_CFA_offset: reg30 -8
  DW_CFA_offset: reg29 -16
  DW_CFA_offset: reg19 -24
  DW_CFA_offset: reg20 -32
  DW_CFA_offset: reg21 -40
  DW_CFA_offset: reg22 -48

  0x1000cf79c: CFA=reg31
  0x1000cf7ac: CFA=reg31+80: reg19=[CFA-24], reg20=[CFA-32], reg21=[CFA-40], reg22=[CFA-48], reg29=[CFA-16], reg30=[CFA-8]

00006c10 00000034 00006c14 FDE cie=00000000 pc=1000cf964...1000cfb9c
  Format:       DWARF32
  DW_CFA_advance_loc: 28
  DW_CFA_def_cfa_offset: +208
  DW_CFA_offset: reg30 -8
  DW_CFA_offset: reg29 -16
  DW_CFA_offset: reg19 -24
  DW_CFA_offset: reg20 -32
  DW_CFA_offset: reg21 -40
  DW_CFA_offset: reg22 -48
  DW_CFA_offset: reg23 -56
  DW_CFA_offset: reg24 -64
  DW_CFA_offset: reg25 -72
  DW_CFA_offset: reg26 -80
  DW_CFA_offset: reg27 -88
  DW_CFA_offset: reg28 -96
  DW_CFA_nop:
  DW_CFA_nop:
  DW_CFA_nop:

  0x1000cf964: CFA=reg31
  0x1000cf980: CFA=reg31+208: reg19=[CFA-24], reg20=[CFA-32], reg21=[CFA-40], reg22=[CFA-48], reg23=[CFA-56], reg24=[CFA-64], reg25=[CFA-72], reg26=[CFA-80], reg27=[CFA-88], reg28=[CFA-96], reg29=[CFA-16], reg30=[CFA-8]

00006c48 00000034 00006c4c FDE cie=00000000 pc=1000cfb9c...1000cfdd4
  Format:       DWARF32
  DW_CFA_advance_loc: 28
  DW_CFA_def_cfa_offset: +208
  DW_CFA_offset: reg30 -8
  DW_CFA_offset: reg29 -16
  DW_CFA_offset: reg19 -24
  DW_CFA_offset: reg20 -32
  DW_CFA_offset: reg21 -40
  DW_CFA_offset: reg22 -48
  DW_CFA_offset: reg23 -56
  DW_CFA_offset: reg24 -64
  DW_CFA_offset: reg25 -72
  DW_CFA_offset: reg26 -80
  DW_CFA_offset: reg27 -88
  DW_CFA_offset: reg28 -96
  DW_CFA_nop:
  DW_CFA_nop:
  DW_CFA_nop:

  0x1000cfb9c: CFA=reg31
  0x1000cfbb8: CFA=reg31+208: reg19=[CFA-24], reg20=[CFA-32], reg21=[CFA-40], reg22=[CFA-48], reg23=[CFA-56], reg24=[CFA-64], reg25=[CFA-72], reg26=[CFA-80], reg27=[CFA-88], reg28=[CFA-96], reg29=[CFA-16], reg30=[CFA-8]

00006c80 00000034 00006c84 FDE cie=00000000 pc=1000cfdd4...1000cffe8
  Format:       DWARF32
  DW_CFA_advance_loc: 28
  DW_CFA_def_cfa_offset: +240
  DW_CFA_offset: reg30 -8
  DW_CFA_offset: reg29 -16
  DW_CFA_offset: reg19 -24
  DW_CFA_offset: reg20 -32
  DW_CFA_offset: reg21 -40
  DW_CFA_offset: reg22 -48
  DW_CFA_offset: reg23 -56
  DW_CFA_offset: reg24 -64
  DW_CFA_offset: reg25 -72
  DW_CFA_offset: reg26 -80
  DW_CFA_offset: reg27 -88
  DW_CFA_offset: reg28 -96
  DW_CFA_nop:
  DW_CFA_nop:
  DW_CFA_nop:

  0x1000cfdd4: CFA=reg31
  0x1000cfdf0: CFA=reg31+240: reg19=[CFA-24], reg20=[CFA-32], reg21=[CFA-40], reg22=[CFA-48], reg23=[CFA-56], reg24=[CFA-64], reg25=[CFA-72], reg26=[CFA-80], reg27=[CFA-88], reg28=[CFA-96], reg29=[CFA-16], reg30=[CFA-8]

00006cb8 00000034 00006cbc FDE cie=00000000 pc=1000d0090...1000d02c8
  Format:       DWARF32
  DW_CFA_advance_loc: 28
  DW_CFA_def_cfa_offset: +208
  DW_CFA_offset: reg30 -8
  DW_CFA_offset: reg29 -16
  DW_CFA_offset: reg19 -24
  DW_CFA_offset: reg20 -32
  DW_CFA_offset: reg21 -40
  DW_CFA_offset: reg22 -48
  DW_CFA_offset: reg23 -56
  DW_CFA_offset: reg24 -64
  DW_CFA_offset: reg25 -72
  DW_CFA_offset: reg26 -80
  DW_CFA_offset: reg27 -88
  DW_CFA_offset: reg28 -96
  DW_CFA_nop:
  DW_CFA_nop:
  DW_CFA_nop:

  0x1000d0090: CFA=reg31
  0x1000d00ac: CFA=reg31+208: reg19=[CFA-24], reg20=[CFA-32], reg21=[CFA-40], reg22=[CFA-48], reg23=[CFA-56], reg24=[CFA-64], reg25=[CFA-72], reg26=[CFA-80], reg27=[CFA-88], reg28=[CFA-96], reg29=[CFA-16], reg30=[CFA-8]

00006cf0 00000034 00006cf4 FDE cie=00000000 pc=1000d02c8...1000d0500
  Format:       DWARF32
  DW_CFA_advance_loc: 28
  DW_CFA_def_cfa_offset: +208
  DW_CFA_offset: reg30 -8
  DW_CFA_offset: reg29 -16
  DW_CFA_offset: reg19 -24
  DW_CFA_offset: reg20 -32
  DW_CFA_offset: reg21 -40
  DW_CFA_offset: reg22 -48
  DW_CFA_offset: reg23 -56
  DW_CFA_offset: reg24 -64
  DW_CFA_offset: reg25 -72
  DW_CFA_offset: reg26 -80
  DW_CFA_offset: reg27 -88
  DW_CFA_offset: reg28 -96
  DW_CFA_nop:
  DW_CFA_nop:
  DW_CFA_nop:

  0x1000d02c8: CFA=reg31
  0x1000d02e4: CFA=reg31+208: reg19=[CFA-24], reg20=[CFA-32], reg21=[CFA-40], reg22=[CFA-48], reg23=[CFA-56], reg24=[CFA-64], reg25=[CFA-72], reg26=[CFA-80], reg27=[CFA-88], reg28=[CFA-96], reg29=[CFA-16], reg30=[CFA-8]

00006d28 0000002c 00006d2c FDE cie=00000000 pc=1000d05a4...1000d06b8
  Format:       DWARF32
  DW_CFA_advance_loc: 16
  DW_CFA_def_cfa_offset: +144
  DW_CFA_offset: reg30 -8
  DW_CFA_offset: reg29 -16
  DW_CFA_offset: reg19 -24
  DW_CFA_offset: reg20 -32
  DW_CFA_offset: reg21 -40
  DW_CFA_offset: reg22 -48
  DW_CFA_nop:
  DW_CFA_nop:
  DW_CFA_nop:
  DW_CFA_nop:
  DW_CFA_nop:
  DW_CFA_nop:
  DW_CFA_nop:

  0x1000d05a4: CFA=reg31
  0x1000d05b4: CFA=reg31+144: reg19=[CFA-24], reg20=[CFA-32], reg21=[CFA-40], reg22=[CFA-48], reg29=[CFA-16], reg30=[CFA-8]

00006d58 00000024 00006d5c FDE cie=00000000 pc=1000d06b8...1000d07b8
  Format:       DWARF32
  DW_CFA_advance_loc: 12
  DW_CFA_def_cfa_offset: +64
  DW_CFA_offset: reg30 -8
  DW_CFA_offset: reg29 -16
  DW_CFA_offset: reg19 -24
  DW_CFA_offset: reg20 -32
  DW_CFA_nop:
  DW_CFA_nop:
  DW_CFA_nop:
  DW_CFA_nop:

  0x1000d06b8: CFA=reg31
  0x1000d06c4: CFA=reg31+64: reg19=[CFA-24], reg20=[CFA-32], reg29=[CFA-16], reg30=[CFA-8]

00006d80 00000024 00006d84 FDE cie=00000000 pc=1000d07b8...1000d08b8
  Format:       DWARF32
  DW_CFA_advance_loc: 12
  DW_CFA_def_cfa_offset: +64
  DW_CFA_offset: reg30 -8
  DW_CFA_offset: reg29 -16
  DW_CFA_offset: reg19 -24
  DW_CFA_offset: reg20 -32
  DW_CFA_nop:
  DW_CFA_nop:
  DW_CFA_nop:
  DW_CFA_nop:

  0x1000d07b8: CFA=reg31
  0x1000d07c4: CFA=reg31+64: reg19=[CFA-24], reg20=[CFA-32], reg29=[CFA-16], reg30=[CFA-8]

00006da8 0000002c 00006dac FDE cie=00000000 pc=1000d0a40...1000d0bb8
  Format:       DWARF32
  DW_CFA_advance_loc: 20
  DW_CFA_def_cfa_offset: +96
  DW_CFA_offset: reg30 -8
  DW_CFA_offset: reg29 -16
  DW_CFA_offset: reg19 -24
  DW_CFA_offset: reg20 -32
  DW_CFA_offset: reg21 -40
  DW_CFA_offset: reg22 -48
  DW_CFA_offset: reg23 -56
  DW_CFA_offset: reg24 -64
  DW_CFA_nop:
  DW_CFA_nop:
  DW_CFA_nop:
  DW_CFA_nop:

  0x1000d0a40: CFA=reg31
  0x1000d0a54: CFA=reg31+96: reg19=[CFA-24], reg20=[CFA-32], reg21=[CFA-40], reg22=[CFA-48], reg23=[CFA-56], reg24=[CFA-64], reg29=[CFA-16], reg30=[CFA-8]

00006dd8 00000034 00006ddc FDE cie=00000000 pc=1000d0bb8...1000d0e08
  Format:       DWARF32
  DW_CFA_advance_loc: 28
  DW_CFA_def_cfa_offset: +272
  DW_CFA_offset: reg30 -8
  DW_CFA_offset: reg29 -16
  DW_CFA_offset: reg19 -24
  DW_CFA_offset: reg20 -32
  DW_CFA_offset: reg21 -40
  DW_CFA_offset: reg22 -48
  DW_CFA_offset: reg23 -56
  DW_CFA_offset: reg24 -64
  DW_CFA_offset: reg25 -72
  DW_CFA_offset: reg26 -80
  DW_CFA_offset: reg27 -88
  DW_CFA_offset: reg28 -96
  DW_CFA_nop:
  DW_CFA_nop:
  DW_CFA_nop:

  0x1000d0bb8: CFA=reg31
  0x1000d0bd4: CFA=reg31+272: reg19=[CFA-24], reg20=[CFA-32], reg21=[CFA-40], reg22=[CFA-48], reg23=[CFA-56], reg24=[CFA-64], reg25=[CFA-72], reg26=[CFA-80], reg27=[CFA-88], reg28=[CFA-96], reg29=[CFA-16], reg30=[CFA-8]

00006e10 0000002c 00006e14 FDE cie=00000000 pc=1000d0e08...1000d0fd8
  Format:       DWARF32
  DW_CFA_advance_loc: 24
  DW_CFA_def_cfa_offset: +112
  DW_CFA_offset: reg30 -8
  DW_CFA_offset: reg29 -16
  DW_CFA_offset: reg19 -24
  DW_CFA_offset: reg20 -32
  DW_CFA_offset: reg21 -40
  DW_CFA_offset: reg22 -48
  DW_CFA_offset: reg23 -56
  DW_CFA_offset: reg24 -64
  DW_CFA_offset: reg25 -72
  DW_CFA_offset: reg26 -80

  0x1000d0e08: CFA=reg31
  0x1000d0e20: CFA=reg31+112: reg19=[CFA-24], reg20=[CFA-32], reg21=[CFA-40], reg22=[CFA-48], reg23=[CFA-56], reg24=[CFA-64], reg25=[CFA-72], reg26=[CFA-80], reg29=[CFA-16], reg30=[CFA-8]

00006e40 00000024 00006e44 FDE cie=00000000 pc=1000d0fe0...1000d10d8
  Format:       DWARF32
  DW_CFA_advance_loc: 16
  DW_CFA_def_cfa_offset: +80
  DW_CFA_offset: reg30 -8
  DW_CFA_offset: reg29 -16
  DW_CFA_offset: reg19 -24
  DW_CFA_offset: reg20 -32
  DW_CFA_offset: reg21 -40
  DW_CFA_offset: reg22 -48

  0x1000d0fe0: CFA=reg31
  0x1000d0ff0: CFA=reg31+80: reg19=[CFA-24], reg20=[CFA-32], reg21=[CFA-40], reg22=[CFA-48], reg29=[CFA-16], reg30=[CFA-8]

00006e68 0000002c 00006e6c FDE cie=00000000 pc=1000d10d8...1000d1ed8
  Format:       DWARF32
  DW_CFA_advance_loc: 20
  DW_CFA_def_cfa_offset: +176
  DW_CFA_offset: reg30 -8
  DW_CFA_offset: reg29 -16
  DW_CFA_offset: reg19 -24
  DW_CFA_offset: reg20 -32
  DW_CFA_offset: reg21 -40
  DW_CFA_offset: reg22 -48
  DW_CFA_offset: reg23 -56
  DW_CFA_offset: reg24 -64
  DW_CFA_nop:
  DW_CFA_nop:
  DW_CFA_nop:

  0x1000d10d8: CFA=reg31
  0x1000d10ec: CFA=reg31+176: reg19=[CFA-24], reg20=[CFA-32], reg21=[CFA-40], reg22=[CFA-48], reg23=[CFA-56], reg24=[CFA-64], reg29=[CFA-16], reg30=[CFA-8]

00006e98 00000024 00006e9c FDE cie=00000000 pc=1000d1ed8...1000d1fa0
  Format:       DWARF32
  DW_CFA_advance_loc: 12
  DW_CFA_def_cfa_offset: +64
  DW_CFA_offset: reg30 -8
  DW_CFA_offset: reg29 -16
  DW_CFA_offset: reg19 -24
  DW_CFA_offset: reg20 -32
  DW_CFA_nop:
  DW_CFA_nop:
  DW_CFA_nop:
  DW_CFA_nop:

  0x1000d1ed8: CFA=reg31
  0x1000d1ee4: CFA=reg31+64: reg19=[CFA-24], reg20=[CFA-32], reg29=[CFA-16], reg30=[CFA-8]

00006ec0 00000024 00006ec4 FDE cie=00000000 pc=1000d21b0...1000d22a8
  Format:       DWARF32
  DW_CFA_advance_loc: 16
  DW_CFA_def_cfa_offset: +80
  DW_CFA_offset: reg30 -8
  DW_CFA_offset: reg29 -16
  DW_CFA_offset: reg19 -24
  DW_CFA_offset: reg20 -32
  DW_CFA_offset: reg21 -40
  DW_CFA_offset: reg22 -48

  0x1000d21b0: CFA=reg31
  0x1000d21c0: CFA=reg31+80: reg19=[CFA-24], reg20=[CFA-32], reg21=[CFA-40], reg22=[CFA-48], reg29=[CFA-16], reg30=[CFA-8]

00006ee8 00000024 00006eec FDE cie=00000000 pc=1000d22a8...1000d2444
  Format:       DWARF32
  DW_CFA_advance_loc: 12
  DW_CFA_def_cfa_offset: +64
  DW_CFA_offset: reg30 -8
  DW_CFA_offset: reg29 -16
  DW_CFA_offset: reg19 -24
  DW_CFA_offset: reg20 -32
  DW_CFA_nop:
  DW_CFA_nop:
  DW_CFA_nop:
  DW_CFA_nop:

  0x1000d22a8: CFA=reg31
  0x1000d22b4: CFA=reg31+64: reg19=[CFA-24], reg20=[CFA-32], reg29=[CFA-16], reg30=[CFA-8]

00006f10 00000024 00006f14 FDE cie=00000000 pc=1000d2700...1000d288c
  Format:       DWARF32
  DW_CFA_advance_loc: 8
  DW_CFA_def_cfa_offset: +144
  DW_CFA_offset: reg30 -8
  DW_CFA_offset: reg29 -16
  DW_CFA_nop:
  DW_CFA_nop:
  DW_CFA_nop:
  DW_CFA_nop:
  DW_CFA_nop:
  DW_CFA_nop:
  DW_CFA_nop:

  0x1000d2700: CFA=reg31
  0x1000d2708: CFA=reg31+144: reg29=[CFA-16], reg30=[CFA-8]

00006f38 0000002c 00006f3c FDE cie=00000000 pc=1000d288c...1000d29dc
  Format:       DWARF32
  DW_CFA_advance_loc: 20
  DW_CFA_def_cfa_offset: +96
  DW_CFA_offset: reg30 -8
  DW_CFA_offset: reg29 -16
  DW_CFA_offset: reg19 -24
  DW_CFA_offset: reg20 -32
  DW_CFA_offset: reg21 -40
  DW_CFA_offset: reg22 -48
  DW_CFA_offset: reg23 -56
  DW_CFA_offset: reg24 -64
  DW_CFA_nop:
  DW_CFA_nop:
  DW_CFA_nop:
  DW_CFA_nop:

  0x1000d288c: CFA=reg31
  0x1000d28a0: CFA=reg31+96: reg19=[CFA-24], reg20=[CFA-32], reg21=[CFA-40], reg22=[CFA-48], reg23=[CFA-56], reg24=[CFA-64], reg29=[CFA-16], reg30=[CFA-8]

00006f68 00000024 00006f6c FDE cie=00000000 pc=1000d29dc...1000d2ad8
  Format:       DWARF32
  DW_CFA_advance_loc: 12
  DW_CFA_def_cfa_offset: +64
  DW_CFA_offset: reg30 -8
  DW_CFA_offset: reg29 -16
  DW_CFA_offset: reg19 -24
  DW_CFA_offset: reg20 -32
  DW_CFA_nop:
  DW_CFA_nop:
  DW_CFA_nop:
  DW_CFA_nop:

  0x1000d29dc: CFA=reg31
  0x1000d29e8: CFA=reg31+64: reg19=[CFA-24], reg20=[CFA-32], reg29=[CFA-16], reg30=[CFA-8]

00006f90 0000001c 00006f94 FDE cie=00000000 pc=1000d2ad8...1000d2b88
  Format:       DWARF32
  DW_CFA_advance_loc: 8
  DW_CFA_def_cfa_offset: +64
  DW_CFA_offset: reg30 -8
  DW_CFA_offset: reg29 -16

  0x1000d2ad8: CFA=reg31
  0x1000d2ae0: CFA=reg31+64: reg29=[CFA-16], reg30=[CFA-8]

00006fb0 00000024 00006fb4 FDE cie=00000000 pc=1000d2b88...1000d2c80
  Format:       DWARF32
  DW_CFA_advance_loc: 16
  DW_CFA_def_cfa_offset: +80
  DW_CFA_offset: reg30 -8
  DW_CFA_offset: reg29 -16
  DW_CFA_offset: reg19 -24
  DW_CFA_offset: reg20 -32
  DW_CFA_offset: reg21 -40
  DW_CFA_offset: reg22 -48

  0x1000d2b88: CFA=reg31
  0x1000d2b98: CFA=reg31+80: reg19=[CFA-24], reg20=[CFA-32], reg21=[CFA-40], reg22=[CFA-48], reg29=[CFA-16], reg30=[CFA-8]

00006fd8 0000002c 00006fdc FDE cie=00000000 pc=1000d2c88...1000d2e30
  Format:       DWARF32
  DW_CFA_advance_loc: 24
  DW_CFA_def_cfa_offset: +112
  DW_CFA_offset: reg30 -8
  DW_CFA_offset: reg29 -16
  DW_CFA_offset: reg19 -24
  DW_CFA_offset: reg20 -32
  DW_CFA_offset: reg21 -40
  DW_CFA_offset: reg22 -48
  DW_CFA_offset: reg23 -56
  DW_CFA_offset: reg24 -64
  DW_CFA_offset: reg25 -72
  DW_CFA_offset: reg26 -80

  0x1000d2c88: CFA=reg31
  0x1000d2ca0: CFA=reg31+112: reg19=[CFA-24], reg20=[CFA-32], reg21=[CFA-40], reg22=[CFA-48], reg23=[CFA-56], reg24=[CFA-64], reg25=[CFA-72], reg26=[CFA-80], reg29=[CFA-16], reg30=[CFA-8]

00007008 00000024 0000700c FDE cie=00000000 pc=1000d2e30...1000d2f34
  Format:       DWARF32
  DW_CFA_advance_loc: 12
  DW_CFA_def_cfa_offset: +64
  DW_CFA_offset: reg30 -8
  DW_CFA_offset: reg29 -16
  DW_CFA_offset: reg19 -24
  DW_CFA_offset: reg20 -32
  DW_CFA_nop:
  DW_CFA_nop:
  DW_CFA_nop:
  DW_CFA_nop:

  0x1000d2e30: CFA=reg31
  0x1000d2e3c: CFA=reg31+64: reg19=[CFA-24], reg20=[CFA-32], reg29=[CFA-16], reg30=[CFA-8]

00007030 0000002c 00007034 FDE cie=00000000 pc=1000d2f34...1000d30dc
  Format:       DWARF32
  DW_CFA_advance_loc: 24
  DW_CFA_def_cfa_offset: +112
  DW_CFA_offset: reg30 -8
  DW_CFA_offset: reg29 -16
  DW_CFA_offset: reg19 -24
  DW_CFA_offset: reg20 -32
  DW_CFA_offset: reg21 -40
  DW_CFA_offset: reg22 -48
  DW_CFA_offset: reg23 -56
  DW_CFA_offset: reg24 -64
  DW_CFA_offset: reg25 -72
  DW_CFA_offset: reg26 -80

  0x1000d2f34: CFA=reg31
  0x1000d2f4c: CFA=reg31+112: reg19=[CFA-24], reg20=[CFA-32], reg21=[CFA-40], reg22=[CFA-48], reg23=[CFA-56], reg24=[CFA-64], reg25=[CFA-72], reg26=[CFA-80], reg29=[CFA-16], reg30=[CFA-8]

00007060 0000002c 00007064 FDE cie=00000000 pc=1000d54ac...1000d568c
  Format:       DWARF32
  DW_CFA_advance_loc: 20
  DW_CFA_def_cfa_offset: +304
  DW_CFA_offset: reg30 -8
  DW_CFA_offset: reg29 -16
  DW_CFA_offset: reg19 -24
  DW_CFA_offset: reg20 -32
  DW_CFA_offset: reg21 -40
  DW_CFA_offset: reg22 -48
  DW_CFA_offset: reg27 -56
  DW_CFA_offset: reg28 -64
  DW_CFA_nop:
  DW_CFA_nop:
  DW_CFA_nop:

  0x1000d54ac: CFA=reg31
  0x1000d54c0: CFA=reg31+304: reg19=[CFA-24], reg20=[CFA-32], reg21=[CFA-40], reg22=[CFA-48], reg27=[CFA-56], reg28=[CFA-64], reg29=[CFA-16], reg30=[CFA-8]

00007090 00000034 00007094 FDE cie=00000000 pc=1000d5c90...1000d60e0
  Format:       DWARF32
  DW_CFA_advance_loc: 28
  DW_CFA_def_cfa_offset: +512
  DW_CFA_offset: reg30 -8
  DW_CFA_offset: reg29 -16
  DW_CFA_offset: reg19 -24
  DW_CFA_offset: reg20 -32
  DW_CFA_offset: reg21 -40
  DW_CFA_offset: reg22 -48
  DW_CFA_offset: reg23 -56
  DW_CFA_offset: reg24 -64
  DW_CFA_offset: reg25 -72
  DW_CFA_offset: reg26 -80
  DW_CFA_offset: reg27 -88
  DW_CFA_offset: reg28 -96
  DW_CFA_nop:
  DW_CFA_nop:
  DW_CFA_nop:

  0x1000d5c90: CFA=reg31
  0x1000d5cac: CFA=reg31+512: reg19=[CFA-24], reg20=[CFA-32], reg21=[CFA-40], reg22=[CFA-48], reg23=[CFA-56], reg24=[CFA-64], reg25=[CFA-72], reg26=[CFA-80], reg27=[CFA-88], reg28=[CFA-96], reg29=[CFA-16], reg30=[CFA-8]

000070c8 00000034 000070cc FDE cie=00000000 pc=1000d60e0...1000d6418
  Format:       DWARF32
  DW_CFA_advance_loc: 28
  DW_CFA_def_cfa_offset: +464
  DW_CFA_offset: reg30 -8
  DW_CFA_offset: reg29 -16
  DW_CFA_offset: reg19 -24
  DW_CFA_offset: reg20 -32
  DW_CFA_offset: reg21 -40
  DW_CFA_offset: reg22 -48
  DW_CFA_offset: reg23 -56
  DW_CFA_offset: reg24 -64
  DW_CFA_offset: reg25 -72
  DW_CFA_offset: reg26 -80
  DW_CFA_offset: reg27 -88
  DW_CFA_offset: reg28 -96
  DW_CFA_nop:
  DW_CFA_nop:
  DW_CFA_nop:

  0x1000d60e0: CFA=reg31
  0x1000d60fc: CFA=reg31+464: reg19=[CFA-24], reg20=[CFA-32], reg21=[CFA-40], reg22=[CFA-48], reg23=[CFA-56], reg24=[CFA-64], reg25=[CFA-72], reg26=[CFA-80], reg27=[CFA-88], reg28=[CFA-96], reg29=[CFA-16], reg30=[CFA-8]

00007100 00000034 00007104 FDE cie=00000000 pc=1000d6454...1000d71a4
  Format:       DWARF32
  DW_CFA_advance_loc: 28
  DW_CFA_def_cfa_offset: +128
  DW_CFA_offset: reg30 -8
  DW_CFA_offset: reg29 -16
  DW_CFA_offset: reg19 -24
  DW_CFA_offset: reg20 -32
  DW_CFA_offset: reg21 -40
  DW_CFA_offset: reg22 -48
  DW_CFA_offset: reg23 -56
  DW_CFA_offset: reg24 -64
  DW_CFA_offset: reg25 -72
  DW_CFA_offset: reg26 -80
  DW_CFA_offset: reg27 -88
  DW_CFA_offset: reg28 -96
  DW_CFA_nop:
  DW_CFA_nop:
  DW_CFA_nop:

  0x1000d6454: CFA=reg31
  0x1000d6470: CFA=reg31+128: reg19=[CFA-24], reg20=[CFA-32], reg21=[CFA-40], reg22=[CFA-48], reg23=[CFA-56], reg24=[CFA-64], reg25=[CFA-72], reg26=[CFA-80], reg27=[CFA-88], reg28=[CFA-96], reg29=[CFA-16], reg30=[CFA-8]

00007138 00000024 0000713c FDE cie=00000000 pc=1000d71a4...1000d7544
  Format:       DWARF32
  DW_CFA_advance_loc: 16
  DW_CFA_def_cfa_offset: +80
  DW_CFA_offset: reg30 -8
  DW_CFA_offset: reg29 -16
  DW_CFA_offset: reg19 -24
  DW_CFA_offset: reg20 -32
  DW_CFA_offset: reg21 -40
  DW_CFA_offset: reg22 -48

  0x1000d71a4: CFA=reg31
  0x1000d71b4: CFA=reg31+80: reg19=[CFA-24], reg20=[CFA-32], reg21=[CFA-40], reg22=[CFA-48], reg29=[CFA-16], reg30=[CFA-8]

00007160 0000002c 00007164 FDE cie=00000000 pc=1000d8b78...1000d8d8c
  Format:       DWARF32
  DW_CFA_advance_loc: 16
  DW_CFA_def_cfa_offset: +64
  DW_CFA_offset: reg30 -8
  DW_CFA_offset: reg29 -16
  DW_CFA_offset: reg19 -24
  DW_CFA_offset: reg20 -32
  DW_CFA_offset: reg21 -40
  DW_CFA_offset: reg22 -48
  DW_CFA_offset: reg23 -56
  DW_CFA_offset: reg24 -64
  DW_CFA_nop:
  DW_CFA_nop:
  DW_CFA_nop:
  DW_CFA_nop:

  0x1000d8b78: CFA=reg31
  0x1000d8b88: CFA=reg31+64: reg19=[CFA-24], reg20=[CFA-32], reg21=[CFA-40], reg22=[CFA-48], reg23=[CFA-56], reg24=[CFA-64], reg29=[CFA-16], reg30=[CFA-8]

00007190 00000034 00007194 FDE cie=00000000 pc=1000d8de8...1000d9220
  Format:       DWARF32
  DW_CFA_advance_loc: 28
  DW_CFA_def_cfa_offset: +240
  DW_CFA_offset: reg30 -8
  DW_CFA_offset: reg29 -16
  DW_CFA_offset: reg19 -24
  DW_CFA_offset: reg20 -32
  DW_CFA_offset: reg21 -40
  DW_CFA_offset: reg22 -48
  DW_CFA_offset: reg23 -56
  DW_CFA_offset: reg24 -64
  DW_CFA_offset: reg25 -72
  DW_CFA_offset: reg26 -80
  DW_CFA_offset: reg27 -88
  DW_CFA_offset: reg28 -96
  DW_CFA_nop:
  DW_CFA_nop:
  DW_CFA_nop:

  0x1000d8de8: CFA=reg31
  0x1000d8e04: CFA=reg31+240: reg19=[CFA-24], reg20=[CFA-32], reg21=[CFA-40], reg22=[CFA-48], reg23=[CFA-56], reg24=[CFA-64], reg25=[CFA-72], reg26=[CFA-80], reg27=[CFA-88], reg28=[CFA-96], reg29=[CFA-16], reg30=[CFA-8]

000071c8 0000002c 000071cc FDE cie=00000000 pc=1000dbb78...1000dbcf8
  Format:       DWARF32
  DW_CFA_advance_loc: 16
  DW_CFA_def_cfa_offset: +64
  DW_CFA_offset: reg30 -8
  DW_CFA_offset: reg29 -16
  DW_CFA_offset: reg19 -24
  DW_CFA_offset: reg20 -32
  DW_CFA_offset: reg21 -40
  DW_CFA_offset: reg22 -48
  DW_CFA_offset: reg23 -56
  DW_CFA_offset: reg24 -64
  DW_CFA_nop:
  DW_CFA_nop:
  DW_CFA_nop:
  DW_CFA_nop:

  0x1000dbb78: CFA=reg31
  0x1000dbb88: CFA=reg31+64: reg19=[CFA-24], reg20=[CFA-32], reg21=[CFA-40], reg22=[CFA-48], reg23=[CFA-56], reg24=[CFA-64], reg29=[CFA-16], reg30=[CFA-8]

000071f8 0000002c 000071fc FDE cie=00000000 pc=1000dbdf4...1000dbf74
  Format:       DWARF32
  DW_CFA_advance_loc: 16
  DW_CFA_def_cfa_offset: +64
  DW_CFA_offset: reg30 -8
  DW_CFA_offset: reg29 -16
  DW_CFA_offset: reg19 -24
  DW_CFA_offset: reg20 -32
  DW_CFA_offset: reg21 -40
  DW_CFA_offset: reg22 -48
  DW_CFA_offset: reg23 -56
  DW_CFA_offset: reg24 -64
  DW_CFA_nop:
  DW_CFA_nop:
  DW_CFA_nop:
  DW_CFA_nop:

  0x1000dbdf4: CFA=reg31
  0x1000dbe04: CFA=reg31+64: reg19=[CFA-24], reg20=[CFA-32], reg21=[CFA-40], reg22=[CFA-48], reg23=[CFA-56], reg24=[CFA-64], reg29=[CFA-16], reg30=[CFA-8]

00007228 00000024 0000722c FDE cie=00000000 pc=1000ddb64...1000ddbc8
  Format:       DWARF32
  DW_CFA_advance_loc: 12
  DW_CFA_def_cfa_offset: +48
  DW_CFA_offset: reg30 -8
  DW_CFA_offset: reg29 -16
  DW_CFA_offset: reg19 -24
  DW_CFA_offset: reg20 -32
  DW_CFA_offset: reg21 -40
  DW_CFA_offset: reg22 -48

  0x1000ddb64: CFA=reg31
  0x1000ddb70: CFA=reg31+48: reg19=[CFA-24], reg20=[CFA-32], reg21=[CFA-40], reg22=[CFA-48], reg29=[CFA-16], reg30=[CFA-8]

00007250 00000024 00007254 FDE cie=00000000 pc=1000dde9c...1000ddf00
  Format:       DWARF32
  DW_CFA_advance_loc: 8
  DW_CFA_def_cfa_offset: +32
  DW_CFA_offset: reg30 -8
  DW_CFA_offset: reg29 -16
  DW_CFA_offset: reg19 -24
  DW_CFA_offset: reg20 -32
  DW_CFA_nop:
  DW_CFA_nop:
  DW_CFA_nop:
  DW_CFA_nop:

  0x1000dde9c: CFA=reg31
  0x1000ddea4: CFA=reg31+32: reg19=[CFA-24], reg20=[CFA-32], reg29=[CFA-16], reg30=[CFA-8]

00007278 00000024 0000727c FDE cie=00000000 pc=1000ddf00...1000ddf34
  Format:       DWARF32
  DW_CFA_advance_loc: 8
  DW_CFA_def_cfa_offset: +32
  DW_CFA_offset: reg30 -8
  DW_CFA_offset: reg29 -16
  DW_CFA_offset: reg19 -24
  DW_CFA_offset: reg20 -32
  DW_CFA_nop:
  DW_CFA_nop:
  DW_CFA_nop:
  DW_CFA_nop:

  0x1000ddf00: CFA=reg31
  0x1000ddf08: CFA=reg31+32: reg19=[CFA-24], reg20=[CFA-32], reg29=[CFA-16], reg30=[CFA-8]

000072a0 00000024 000072a4 FDE cie=00000000 pc=1000ddf34...1000ddf54
  Format:       DWARF32
  DW_CFA_advance_loc: 8
  DW_CFA_def_cfa_offset: +32
  DW_CFA_offset: reg30 -8
  DW_CFA_offset: reg29 -16
  DW_CFA_offset: reg19 -24
  DW_CFA_offset: reg20 -32
  DW_CFA_nop:
  DW_CFA_nop:
  DW_CFA_nop:
  DW_CFA_nop:

  0x1000ddf34: CFA=reg31
  0x1000ddf3c: CFA=reg31+32: reg19=[CFA-24], reg20=[CFA-32], reg29=[CFA-16], reg30=[CFA-8]

000072c8 00000024 000072cc FDE cie=00000000 pc=1000de45c...1000de4c0
  Format:       DWARF32
  DW_CFA_advance_loc: 12
  DW_CFA_def_cfa_offset: +48
  DW_CFA_offset: reg30 -8
  DW_CFA_offset: reg29 -16
  DW_CFA_offset: reg19 -24
  DW_CFA_offset: reg20 -32
  DW_CFA_offset: reg21 -40
  DW_CFA_offset: reg22 -48

  0x1000de45c: CFA=reg31
  0x1000de468: CFA=reg31+48: reg19=[CFA-24], reg20=[CFA-32], reg21=[CFA-40], reg22=[CFA-48], reg29=[CFA-16], reg30=[CFA-8]

000072f0 00000024 000072f4 FDE cie=00000000 pc=1000debe4...1000dec48
  Format:       DWARF32
  DW_CFA_advance_loc: 12
  DW_CFA_def_cfa_offset: +48
  DW_CFA_offset: reg30 -8
  DW_CFA_offset: reg29 -16
  DW_CFA_offset: reg19 -24
  DW_CFA_offset: reg20 -32
  DW_CFA_offset: reg21 -40
  DW_CFA_offset: reg22 -48

  0x1000debe4: CFA=reg31
  0x1000debf0: CFA=reg31+48: reg19=[CFA-24], reg20=[CFA-32], reg21=[CFA-40], reg22=[CFA-48], reg29=[CFA-16], reg30=[CFA-8]

00007318 00000024 0000731c FDE cie=00000000 pc=1000dec48...1000decb0
  Format:       DWARF32
  DW_CFA_advance_loc: 12
  DW_CFA_def_cfa_offset: +48
  DW_CFA_offset: reg30 -8
  DW_CFA_offset: reg29 -16
  DW_CFA_offset: reg19 -24
  DW_CFA_offset: reg20 -32
  DW_CFA_offset: reg21 -40
  DW_CFA_offset: reg22 -48

  0x1000dec48: CFA=reg31
  0x1000dec54: CFA=reg31+48: reg19=[CFA-24], reg20=[CFA-32], reg21=[CFA-40], reg22=[CFA-48], reg29=[CFA-16], reg30=[CFA-8]

00007340 0000001c 00007344 FDE cie=00000000 pc=1000df484...1000df7dc
  Format:       DWARF32
  DW_CFA_advance_loc: 8
  DW_CFA_def_cfa_offset: +96
  DW_CFA_offset: reg30 -8
  DW_CFA_offset: reg29 -16

  0x1000df484: CFA=reg31
  0x1000df48c: CFA=reg31+96: reg29=[CFA-16], reg30=[CFA-8]

00007360 00000024 00007364 FDE cie=00000000 pc=1000df7dc...1000dfadc
  Format:       DWARF32
  DW_CFA_advance_loc: 16
  DW_CFA_def_cfa_offset: +80
  DW_CFA_offset: reg30 -8
  DW_CFA_offset: reg29 -16
  DW_CFA_offset: reg19 -24
  DW_CFA_offset: reg20 -32
  DW_CFA_offset: reg21 -40
  DW_CFA_offset: reg22 -48

  0x1000df7dc: CFA=reg31
  0x1000df7ec: CFA=reg31+80: reg19=[CFA-24], reg20=[CFA-32], reg21=[CFA-40], reg22=[CFA-48], reg29=[CFA-16], reg30=[CFA-8]

00007388 00000034 0000738c FDE cie=00000000 pc=1000e1118...1000e197c
  Format:       DWARF32
  DW_CFA_advance_loc: 28
  DW_CFA_def_cfa_offset: +176
  DW_CFA_offset: reg30 -8
  DW_CFA_offset: reg29 -16
  DW_CFA_offset: reg19 -24
  DW_CFA_offset: reg20 -32
  DW_CFA_offset: reg21 -40
  DW_CFA_offset: reg22 -48
  DW_CFA_offset: reg23 -56
  DW_CFA_offset: reg24 -64
  DW_CFA_offset: reg25 -72
  DW_CFA_offset: reg26 -80
  DW_CFA_offset: reg27 -88
  DW_CFA_offset: reg28 -96
  DW_CFA_nop:
  DW_CFA_nop:
  DW_CFA_nop:

  0x1000e1118: CFA=reg31
  0x1000e1134: CFA=reg31+176: reg19=[CFA-24], reg20=[CFA-32], reg21=[CFA-40], reg22=[CFA-48], reg23=[CFA-56], reg24=[CFA-64], reg25=[CFA-72], reg26=[CFA-80], reg27=[CFA-88], reg28=[CFA-96], reg29=[CFA-16], reg30=[CFA-8]

000073c0 0000002c 000073c4 FDE cie=00000000 pc=1000e197c...1000e1c34
  Format:       DWARF32
  DW_CFA_advance_loc: 20
  DW_CFA_def_cfa_offset: +80
  DW_CFA_offset: reg30 -8
  DW_CFA_offset: reg29 -16
  DW_CFA_offset: reg19 -24
  DW_CFA_offset: reg20 -32
  DW_CFA_offset: reg21 -40
  DW_CFA_offset: reg22 -48
  DW_CFA_offset: reg23 -56
  DW_CFA_offset: reg24 -64
  DW_CFA_offset: reg25 -72
  DW_CFA_offset: reg26 -80

  0x1000e197c: CFA=reg31
  0x1000e1990: CFA=reg31+80: reg19=[CFA-24], reg20=[CFA-32], reg21=[CFA-40], reg22=[CFA-48], reg23=[CFA-56], reg24=[CFA-64], reg25=[CFA-72], reg26=[CFA-80], reg29=[CFA-16], reg30=[CFA-8]

000073f0 00000024 000073f4 FDE cie=00000000 pc=1000e24d8...1000e2538
  Format:       DWARF32
  DW_CFA_advance_loc: 8
  DW_CFA_def_cfa_offset: +32
  DW_CFA_offset: reg30 -8
  DW_CFA_offset: reg29 -16
  DW_CFA_offset: reg19 -24
  DW_CFA_offset: reg20 -32
  DW_CFA_nop:
  DW_CFA_nop:
  DW_CFA_nop:
  DW_CFA_nop:

  0x1000e24d8: CFA=reg31
  0x1000e24e0: CFA=reg31+32: reg19=[CFA-24], reg20=[CFA-32], reg29=[CFA-16], reg30=[CFA-8]

00007418 00000034 0000741c FDE cie=00000000 pc=1000e2538...1000e2858
  Format:       DWARF32
  DW_CFA_advance_loc: 28
  DW_CFA_def_cfa_offset: +112
  DW_CFA_offset: reg30 -8
  DW_CFA_offset: reg29 -16
  DW_CFA_offset: reg19 -24
  DW_CFA_offset: reg20 -32
  DW_CFA_offset: reg21 -40
  DW_CFA_offset: reg22 -48
  DW_CFA_offset: reg23 -56
  DW_CFA_offset: reg24 -64
  DW_CFA_offset: reg25 -72
  DW_CFA_offset: reg26 -80
  DW_CFA_offset: reg27 -88
  DW_CFA_offset: reg28 -96
  DW_CFA_nop:
  DW_CFA_nop:
  DW_CFA_nop:
  DW_CFA_nop:

  0x1000e2538: CFA=reg31
  0x1000e2554: CFA=reg31+112: reg19=[CFA-24], reg20=[CFA-32], reg21=[CFA-40], reg22=[CFA-48], reg23=[CFA-56], reg24=[CFA-64], reg25=[CFA-72], reg26=[CFA-80], reg27=[CFA-88], reg28=[CFA-96], reg29=[CFA-16], reg30=[CFA-8]

00007450 0000001c 00007454 FDE cie=00000000 pc=1000e78ec...1000e7ab4
  Format:       DWARF32
  DW_CFA_advance_loc: 4
  DW_CFA_def_cfa_offset: +16
  DW_CFA_offset: reg30 -8
  DW_CFA_offset: reg29 -16

  0x1000e78ec: CFA=reg31
  0x1000e78f0: CFA=reg31+16: reg29=[CFA-16], reg30=[CFA-8]

00007470 00000024 00007474 FDE cie=00000000 pc=1000e7ab4...1000e7d78
  Format:       DWARF32
  DW_CFA_advance_loc: 12
  DW_CFA_def_cfa_offset: +48
  DW_CFA_offset: reg30 -8
  DW_CFA_offset: reg29 -16
  DW_CFA_offset: reg19 -24
  DW_CFA_offset: reg20 -32
  DW_CFA_offset: reg21 -40
  DW_CFA_offset: reg22 -48

  0x1000e7ab4: CFA=reg31
  0x1000e7ac0: CFA=reg31+48: reg19=[CFA-24], reg20=[CFA-32], reg21=[CFA-40], reg22=[CFA-48], reg29=[CFA-16], reg30=[CFA-8]

00007498 0000001c 0000749c FDE cie=00000000 pc=1000e8204...1000e8374
  Format:       DWARF32
  DW_CFA_advance_loc: 4
  DW_CFA_def_cfa_offset: +16
  DW_CFA_offset: reg30 -8
  DW_CFA_offset: reg29 -16

  0x1000e8204: CFA=reg31
  0x1000e8208: CFA=reg31+16: reg29=[CFA-16], reg30=[CFA-8]

000074b8 0000001c 000074bc FDE cie=00000000 pc=1000e889c...1000e8b88
  Format:       DWARF32
  DW_CFA_advance_loc: 4
  DW_CFA_def_cfa_offset: +16
  DW_CFA_offset: reg30 -8
  DW_CFA_offset: reg29 -16

  0x1000e889c: CFA=reg31
  0x1000e88a0: CFA=reg31+16: reg29=[CFA-16], reg30=[CFA-8]

000074d8 00000034 000074dc FDE cie=00000000 pc=1000e98d0...1000e9bdc
  Format:       DWARF32
  DW_CFA_advance_loc: 28
  DW_CFA_def_cfa_offset: +176
  DW_CFA_offset: reg30 -8
  DW_CFA_offset: reg29 -16
  DW_CFA_offset: reg19 -24
  DW_CFA_offset: reg20 -32
  DW_CFA_offset: reg21 -40
  DW_CFA_offset: reg22 -48
  DW_CFA_offset: reg23 -56
  DW_CFA_offset: reg24 -64
  DW_CFA_offset: reg25 -72
  DW_CFA_offset: reg26 -80
  DW_CFA_offset: reg27 -88
  DW_CFA_offset: reg28 -96
  DW_CFA_nop:
  DW_CFA_nop:
  DW_CFA_nop:

  0x1000e98d0: CFA=reg31
  0x1000e98ec: CFA=reg31+176: reg19=[CFA-24], reg20=[CFA-32], reg21=[CFA-40], reg22=[CFA-48], reg23=[CFA-56], reg24=[CFA-64], reg25=[CFA-72], reg26=[CFA-80], reg27=[CFA-88], reg28=[CFA-96], reg29=[CFA-16], reg30=[CFA-8]

00007510 00000034 00007514 FDE cie=00000000 pc=1000e9bdc...1000e9e6c
  Format:       DWARF32
  DW_CFA_advance_loc: 24
  DW_CFA_def_cfa_offset: +320
  DW_CFA_offset: reg30 -8
  DW_CFA_offset: reg29 -16
  DW_CFA_offset: reg19 -24
  DW_CFA_offset: reg20 -32
  DW_CFA_offset: reg21 -40
  DW_CFA_offset: reg22 -48
  DW_CFA_offset: reg23 -56
  DW_CFA_offset: reg24 -64
  DW_CFA_offset: reg25 -72
  DW_CFA_offset: reg26 -80
  DW_CFA_nop:
  DW_CFA_nop:
  DW_CFA_nop:
  DW_CFA_nop:
  DW_CFA_nop:
  DW_CFA_nop:
  DW_CFA_nop:

  0x1000e9bdc: CFA=reg31
  0x1000e9bf4: CFA=reg31+320: reg19=[CFA-24], reg20=[CFA-32], reg21=[CFA-40], reg22=[CFA-48], reg23=[CFA-56], reg24=[CFA-64], reg25=[CFA-72], reg26=[CFA-80], reg29=[CFA-16], reg30=[CFA-8]

00007548 00000024 0000754c FDE cie=00000000 pc=1000e9e6c...1000e9ebc
  Format:       DWARF32
  DW_CFA_advance_loc: 8
  DW_CFA_def_cfa_offset: +32
  DW_CFA_offset: reg30 -8
  DW_CFA_offset: reg29 -16
  DW_CFA_offset: reg19 -24
  DW_CFA_offset: reg20 -32
  DW_CFA_nop:
  DW_CFA_nop:
  DW_CFA_nop:
  DW_CFA_nop:

  0x1000e9e6c: CFA=reg31
  0x1000e9e74: CFA=reg31+32: reg19=[CFA-24], reg20=[CFA-32], reg29=[CFA-16], reg30=[CFA-8]

00007570 00000034 00007574 FDE cie=00000000 pc=1000e9ebc...1000ea05c
  Format:       DWARF32
  DW_CFA_advance_loc: 28
  DW_CFA_def_cfa_offset: +144
  DW_CFA_offset: reg30 -8
  DW_CFA_offset: reg29 -16
  DW_CFA_offset: reg19 -24
  DW_CFA_offset: reg20 -32
  DW_CFA_offset: reg21 -40
  DW_CFA_offset: reg22 -48
  DW_CFA_offset: reg23 -56
  DW_CFA_offset: reg24 -64
  DW_CFA_offset: reg25 -72
  DW_CFA_offset: reg26 -80
  DW_CFA_offset: reg27 -88
  DW_CFA_offset: reg28 -96
  DW_CFA_nop:
  DW_CFA_nop:
  DW_CFA_nop:

  0x1000e9ebc: CFA=reg31
  0x1000e9ed8: CFA=reg31+144: reg19=[CFA-24], reg20=[CFA-32], reg21=[CFA-40], reg22=[CFA-48], reg23=[CFA-56], reg24=[CFA-64], reg25=[CFA-72], reg26=[CFA-80], reg27=[CFA-88], reg28=[CFA-96], reg29=[CFA-16], reg30=[CFA-8]

000075a8 0000001c 000075ac FDE cie=00000000 pc=1000ea05c...1000ea2b4
  Format:       DWARF32
  DW_CFA_advance_loc: 4
  DW_CFA_def_cfa_offset: +16
  DW_CFA_offset: reg30 -8
  DW_CFA_offset: reg29 -16

  0x1000ea05c: CFA=reg31
  0x1000ea060: CFA=reg31+16: reg29=[CFA-16], reg30=[CFA-8]

000075c8 00000024 000075cc FDE cie=00000000 pc=1000ea7e4...1000ea834
  Format:       DWARF32
  DW_CFA_advance_loc: 8
  DW_CFA_def_cfa_offset: +32
  DW_CFA_offset: reg30 -8
  DW_CFA_offset: reg29 -16
  DW_CFA_offset: reg19 -24
  DW_CFA_offset: reg20 -32
  DW_CFA_nop:
  DW_CFA_nop:
  DW_CFA_nop:
  DW_CFA_nop:

  0x1000ea7e4: CFA=reg31
  0x1000ea7ec: CFA=reg31+32: reg19=[CFA-24], reg20=[CFA-32], reg29=[CFA-16], reg30=[CFA-8]

000075f0 00000034 000075f4 FDE cie=00000000 pc=1000ea990...1000eace0
  Format:       DWARF32
  DW_CFA_advance_loc: 24
  DW_CFA_def_cfa_offset: +128
  DW_CFA_offset: reg30 -8
  DW_CFA_offset: reg29 -16
  DW_CFA_offset: reg19 -24
  DW_CFA_offset: reg20 -32
  DW_CFA_offset: reg21 -40
  DW_CFA_offset: reg22 -48
  DW_CFA_offset: reg23 -56
  DW_CFA_offset: reg24 -64
  DW_CFA_offset: reg25 -72
  DW_CFA_offset: reg26 -80
  DW_CFA_nop:
  DW_CFA_nop:
  DW_CFA_nop:
  DW_CFA_nop:
  DW_CFA_nop:
  DW_CFA_nop:
  DW_CFA_nop:

  0x1000ea990: CFA=reg31
  0x1000ea9a8: CFA=reg31+128: reg19=[CFA-24], reg20=[CFA-32], reg21=[CFA-40], reg22=[CFA-48], reg23=[CFA-56], reg24=[CFA-64], reg25=[CFA-72], reg26=[CFA-80], reg29=[CFA-16], reg30=[CFA-8]

00007628 00000034 0000762c FDE cie=00000000 pc=1000eace0...1000ebb64
  Format:       DWARF32
  DW_CFA_advance_loc: 28
  DW_CFA_def_cfa_offset: +160
  DW_CFA_offset: reg30 -8
  DW_CFA_offset: reg29 -16
  DW_CFA_offset: reg19 -24
  DW_CFA_offset: reg20 -32
  DW_CFA_offset: reg21 -40
  DW_CFA_offset: reg22 -48
  DW_CFA_offset: reg23 -56
  DW_CFA_offset: reg24 -64
  DW_CFA_offset: reg25 -72
  DW_CFA_offset: reg26 -80
  DW_CFA_offset: reg27 -88
  DW_CFA_offset: reg28 -96
  DW_CFA_nop:
  DW_CFA_nop:
  DW_CFA_nop:

  0x1000eace0: CFA=reg31
  0x1000eacfc: CFA=reg31+160: reg19=[CFA-24], reg20=[CFA-32], reg21=[CFA-40], reg22=[CFA-48], reg23=[CFA-56], reg24=[CFA-64], reg25=[CFA-72], reg26=[CFA-80], reg27=[CFA-88], reg28=[CFA-96], reg29=[CFA-16], reg30=[CFA-8]

00007660 0000001c 00007664 FDE cie=00000000 pc=1000ebb64...1000ebd98
  Format:       DWARF32
  DW_CFA_advance_loc: 4
  DW_CFA_def_cfa_offset: +16
  DW_CFA_offset: reg30 -8
  DW_CFA_offset: reg29 -16

  0x1000ebb64: CFA=reg31
  0x1000ebb68: CFA=reg31+16: reg29=[CFA-16], reg30=[CFA-8]

00007680 00000034 00007684 FDE cie=00000000 pc=1000ebd98...1000ec37c
  Format:       DWARF32
  DW_CFA_advance_loc: 28
  DW_CFA_def_cfa_offset: +160
  DW_CFA_offset: reg30 -8
  DW_CFA_offset: reg29 -16
  DW_CFA_offset: reg19 -24
  DW_CFA_offset: reg20 -32
  DW_CFA_offset: reg21 -40
  DW_CFA_offset: reg22 -48
  DW_CFA_offset: reg23 -56
  DW_CFA_offset: reg24 -64
  DW_CFA_offset: reg25 -72
  DW_CFA_offset: reg26 -80
  DW_CFA_offset: reg27 -88
  DW_CFA_offset: reg28 -96
  DW_CFA_nop:
  DW_CFA_nop:
  DW_CFA_nop:

  0x1000ebd98: CFA=reg31
  0x1000ebdb4: CFA=reg31+160: reg19=[CFA-24], reg20=[CFA-32], reg21=[CFA-40], reg22=[CFA-48], reg23=[CFA-56], reg24=[CFA-64], reg25=[CFA-72], reg26=[CFA-80], reg27=[CFA-88], reg28=[CFA-96], reg29=[CFA-16], reg30=[CFA-8]

000076b8 00000024 000076bc FDE cie=00000000 pc=1000ec37c...1000ec67c
  Format:       DWARF32
  DW_CFA_advance_loc: 16
  DW_CFA_def_cfa_offset: +80
  DW_CFA_offset: reg30 -8
  DW_CFA_offset: reg29 -16
  DW_CFA_offset: reg19 -24
  DW_CFA_offset: reg20 -32
  DW_CFA_offset: reg21 -40
  DW_CFA_offset: reg22 -48

  0x1000ec37c: CFA=reg31
  0x1000ec38c: CFA=reg31+80: reg19=[CFA-24], reg20=[CFA-32], reg21=[CFA-40], reg22=[CFA-48], reg29=[CFA-16], reg30=[CFA-8]

000076e0 0000001c 000076e4 FDE cie=00000000 pc=1000ec67c...1000eca48
  Format:       DWARF32
  DW_CFA_advance_loc: 4
  DW_CFA_def_cfa_offset: +16
  DW_CFA_offset: reg30 -8
  DW_CFA_offset: reg29 -16

  0x1000ec67c: CFA=reg31
  0x1000ec680: CFA=reg31+16: reg29=[CFA-16], reg30=[CFA-8]

00007700 0000002c 00007704 FDE cie=00000000 pc=1000eca80...1000ecbac
  Format:       DWARF32
  DW_CFA_advance_loc: 20
  DW_CFA_def_cfa_offset: +80
  DW_CFA_offset: reg30 -8
  DW_CFA_offset: reg29 -16
  DW_CFA_offset: reg19 -24
  DW_CFA_offset: reg20 -32
  DW_CFA_offset: reg21 -40
  DW_CFA_offset: reg22 -48
  DW_CFA_offset: reg23 -56
  DW_CFA_offset: reg24 -64
  DW_CFA_offset: reg25 -72
  DW_CFA_offset: reg26 -80

  0x1000eca80: CFA=reg31
  0x1000eca94: CFA=reg31+80: reg19=[CFA-24], reg20=[CFA-32], reg21=[CFA-40], reg22=[CFA-48], reg23=[CFA-56], reg24=[CFA-64], reg25=[CFA-72], reg26=[CFA-80], reg29=[CFA-16], reg30=[CFA-8]

00007730 0000002c 00007734 FDE cie=00000000 pc=1000ecbac...1000ecf5c
  Format:       DWARF32
  DW_CFA_advance_loc: 20
  DW_CFA_def_cfa_offset: +80
  DW_CFA_offset: reg30 -8
  DW_CFA_offset: reg29 -16
  DW_CFA_offset: reg19 -24
  DW_CFA_offset: reg20 -32
  DW_CFA_offset: reg21 -40
  DW_CFA_offset: reg22 -48
  DW_CFA_offset: reg23 -56
  DW_CFA_offset: reg24 -64
  DW_CFA_offset: reg25 -72
  DW_CFA_offset: reg26 -80

  0x1000ecbac: CFA=reg31
  0x1000ecbc0: CFA=reg31+80: reg19=[CFA-24], reg20=[CFA-32], reg21=[CFA-40], reg22=[CFA-48], reg23=[CFA-56], reg24=[CFA-64], reg25=[CFA-72], reg26=[CFA-80], reg29=[CFA-16], reg30=[CFA-8]

00007760 00000034 00007764 FDE cie=00000000 pc=1000ef714...1000efc7c
  Format:       DWARF32
  DW_CFA_advance_loc: 24
  DW_CFA_def_cfa_offset: +96
  DW_CFA_offset: reg30 -8
  DW_CFA_offset: reg29 -16
  DW_CFA_offset: reg19 -24
  DW_CFA_offset: reg20 -32
  DW_CFA_offset: reg21 -40
  DW_CFA_offset: reg22 -48
  DW_CFA_offset: reg23 -56
  DW_CFA_offset: reg24 -64
  DW_CFA_offset: reg25 -72
  DW_CFA_offset: reg26 -80
  DW_CFA_offset: reg27 -88
  DW_CFA_offset: reg28 -96
  DW_CFA_nop:
  DW_CFA_nop:
  DW_CFA_nop:
  DW_CFA_nop:

  0x1000ef714: CFA=reg31
  0x1000ef72c: CFA=reg31+96: reg19=[CFA-24], reg20=[CFA-32], reg21=[CFA-40], reg22=[CFA-48], reg23=[CFA-56], reg24=[CFA-64], reg25=[CFA-72], reg26=[CFA-80], reg27=[CFA-88], reg28=[CFA-96], reg29=[CFA-16], reg30=[CFA-8]

00007798 00000024 0000779c FDE cie=00000000 pc=1000efc7c...1000f0194
  Format:       DWARF32
  DW_CFA_advance_loc: 12
  DW_CFA_def_cfa_offset: +48
  DW_CFA_offset: reg30 -8
  DW_CFA_offset: reg29 -16
  DW_CFA_offset: reg19 -24
  DW_CFA_offset: reg20 -32
  DW_CFA_offset: reg21 -40
  DW_CFA_offset: reg22 -48

  0x1000efc7c: CFA=reg31
  0x1000efc88: CFA=reg31+48: reg19=[CFA-24], reg20=[CFA-32], reg21=[CFA-40], reg22=[CFA-48], reg29=[CFA-16], reg30=[CFA-8]

000077c0 00000024 000077c4 FDE cie=00000000 pc=10040abec...10040ac88
  Format:       DWARF32
  DW_CFA_advance_loc: 12
  DW_CFA_def_cfa_offset: +80
  DW_CFA_offset: reg30 -8
  DW_CFA_offset: reg29 -16
  DW_CFA_offset: reg19 -24
  DW_CFA_offset: reg20 -32
  DW_CFA_nop:
  DW_CFA_nop:
  DW_CFA_nop:
  DW_CFA_nop:

  0x10040abec: CFA=reg31
  0x10040abf8: CFA=reg31+80: reg19=[CFA-24], reg20=[CFA-32], reg29=[CFA-16], reg30=[CFA-8]

000077e8 00000034 000077ec FDE cie=00000000 pc=1000f0194...1000f038c
  Format:       DWARF32
  DW_CFA_advance_loc: 28
  DW_CFA_def_cfa_offset: +112
  DW_CFA_offset: reg30 -8
  DW_CFA_offset: reg29 -16
  DW_CFA_offset: reg19 -24
  DW_CFA_offset: reg20 -32
  DW_CFA_offset: reg21 -40
  DW_CFA_offset: reg22 -48
  DW_CFA_offset: reg23 -56
  DW_CFA_offset: reg24 -64
  DW_CFA_offset: reg25 -72
  DW_CFA_offset: reg26 -80
  DW_CFA_offset: reg27 -88
  DW_CFA_offset: reg28 -96
  DW_CFA_nop:
  DW_CFA_nop:
  DW_CFA_nop:
  DW_CFA_nop:

  0x1000f0194: CFA=reg31
  0x1000f01b0: CFA=reg31+112: reg19=[CFA-24], reg20=[CFA-32], reg21=[CFA-40], reg22=[CFA-48], reg23=[CFA-56], reg24=[CFA-64], reg25=[CFA-72], reg26=[CFA-80], reg27=[CFA-88], reg28=[CFA-96], reg29=[CFA-16], reg30=[CFA-8]

00007820 00000024 00007824 FDE cie=00000000 pc=1000f038c...1000f0434
  Format:       DWARF32
  DW_CFA_advance_loc: 16
  DW_CFA_def_cfa_offset: +96
  DW_CFA_offset: reg30 -8
  DW_CFA_offset: reg29 -16
  DW_CFA_offset: reg19 -24
  DW_CFA_offset: reg20 -32
  DW_CFA_offset: reg21 -40
  DW_CFA_offset: reg22 -48

  0x1000f038c: CFA=reg31
  0x1000f039c: CFA=reg31+96: reg19=[CFA-24], reg20=[CFA-32], reg21=[CFA-40], reg22=[CFA-48], reg29=[CFA-16], reg30=[CFA-8]

00007848 00000024 0000784c FDE cie=00000000 pc=1000f0434...1000f04dc
  Format:       DWARF32
  DW_CFA_advance_loc: 16
  DW_CFA_def_cfa_offset: +96
  DW_CFA_offset: reg30 -8
  DW_CFA_offset: reg29 -16
  DW_CFA_offset: reg19 -24
  DW_CFA_offset: reg20 -32
  DW_CFA_offset: reg21 -40
  DW_CFA_offset: reg22 -48

  0x1000f0434: CFA=reg31
  0x1000f0444: CFA=reg31+96: reg19=[CFA-24], reg20=[CFA-32], reg21=[CFA-40], reg22=[CFA-48], reg29=[CFA-16], reg30=[CFA-8]

00007870 00000024 00007874 FDE cie=00000000 pc=1000f056c...1000f0614
  Format:       DWARF32
  DW_CFA_advance_loc: 8
  DW_CFA_def_cfa_offset: +32
  DW_CFA_offset: reg30 -8
  DW_CFA_offset: reg29 -16
  DW_CFA_offset: reg19 -24
  DW_CFA_offset: reg20 -32
  DW_CFA_nop:
  DW_CFA_nop:
  DW_CFA_nop:
  DW_CFA_nop:

  0x1000f056c: CFA=reg31
  0x1000f0574: CFA=reg31+32: reg19=[CFA-24], reg20=[CFA-32], reg29=[CFA-16], reg30=[CFA-8]

00007898 00000024 0000789c FDE cie=00000000 pc=1000f0614...1000f0cfc
  Format:       DWARF32
  DW_CFA_advance_loc: 16
  DW_CFA_def_cfa_offset: +80
  DW_CFA_offset: reg30 -8
  DW_CFA_offset: reg29 -16
  DW_CFA_offset: reg19 -24
  DW_CFA_offset: reg20 -32
  DW_CFA_offset: reg21 -40
  DW_CFA_offset: reg22 -48

  0x1000f0614: CFA=reg31
  0x1000f0624: CFA=reg31+80: reg19=[CFA-24], reg20=[CFA-32], reg21=[CFA-40], reg22=[CFA-48], reg29=[CFA-16], reg30=[CFA-8]

000078c0 00000024 000078c4 FDE cie=00000000 pc=1000f0cfc...1000f0dd8
  Format:       DWARF32
  DW_CFA_advance_loc: 12
  DW_CFA_def_cfa_offset: +64
  DW_CFA_offset: reg30 -8
  DW_CFA_offset: reg29 -16
  DW_CFA_offset: reg19 -24
  DW_CFA_offset: reg20 -32
  DW_CFA_nop:
  DW_CFA_nop:
  DW_CFA_nop:
  DW_CFA_nop:

  0x1000f0cfc: CFA=reg31
  0x1000f0d08: CFA=reg31+64: reg19=[CFA-24], reg20=[CFA-32], reg29=[CFA-16], reg30=[CFA-8]

000078e8 00000024 000078ec FDE cie=00000000 pc=1000f0de0...1000f0ebc
  Format:       DWARF32
  DW_CFA_advance_loc: 12
  DW_CFA_def_cfa_offset: +64
  DW_CFA_offset: reg30 -8
  DW_CFA_offset: reg29 -16
  DW_CFA_offset: reg19 -24
  DW_CFA_offset: reg20 -32
  DW_CFA_nop:
  DW_CFA_nop:
  DW_CFA_nop:
  DW_CFA_nop:

  0x1000f0de0: CFA=reg31
  0x1000f0dec: CFA=reg31+64: reg19=[CFA-24], reg20=[CFA-32], reg29=[CFA-16], reg30=[CFA-8]

00007910 00000024 00007914 FDE cie=00000000 pc=1000f0ebc...1000f0f98
  Format:       DWARF32
  DW_CFA_advance_loc: 12
  DW_CFA_def_cfa_offset: +64
  DW_CFA_offset: reg30 -8
  DW_CFA_offset: reg29 -16
  DW_CFA_offset: reg19 -24
  DW_CFA_offset: reg20 -32
  DW_CFA_nop:
  DW_CFA_nop:
  DW_CFA_nop:
  DW_CFA_nop:

  0x1000f0ebc: CFA=reg31
  0x1000f0ec8: CFA=reg31+64: reg19=[CFA-24], reg20=[CFA-32], reg29=[CFA-16], reg30=[CFA-8]

00007938 00000024 0000793c FDE cie=00000000 pc=1000f4f3c...1000f4fe8
  Format:       DWARF32
  DW_CFA_advance_loc: 12
  DW_CFA_def_cfa_offset: +48
  DW_CFA_offset: reg30 -8
  DW_CFA_offset: reg29 -16
  DW_CFA_offset: reg19 -24
  DW_CFA_offset: reg20 -32
  DW_CFA_offset: reg21 -40
  DW_CFA_offset: reg22 -48

  0x1000f4f3c: CFA=reg31
  0x1000f4f48: CFA=reg31+48: reg19=[CFA-24], reg20=[CFA-32], reg21=[CFA-40], reg22=[CFA-48], reg29=[CFA-16], reg30=[CFA-8]

00007960 00000024 00007964 FDE cie=00000000 pc=1000f4fe8...1000f5038
  Format:       DWARF32
  DW_CFA_advance_loc: 8
  DW_CFA_def_cfa_offset: +32
  DW_CFA_offset: reg30 -8
  DW_CFA_offset: reg29 -16
  DW_CFA_offset: reg19 -24
  DW_CFA_offset: reg20 -32
  DW_CFA_nop:
  DW_CFA_nop:
  DW_CFA_nop:
  DW_CFA_nop:

  0x1000f4fe8: CFA=reg31
  0x1000f4ff0: CFA=reg31+32: reg19=[CFA-24], reg20=[CFA-32], reg29=[CFA-16], reg30=[CFA-8]

00007988 00000024 0000798c FDE cie=00000000 pc=1000f5154...1000f52b8
  Format:       DWARF32
  DW_CFA_advance_loc: 12
  DW_CFA_def_cfa_offset: +112
  DW_CFA_offset: reg30 -8
  DW_CFA_offset: reg29 -16
  DW_CFA_offset: reg19 -24
  DW_CFA_offset: reg20 -32
  DW_CFA_nop:
  DW_CFA_nop:
  DW_CFA_nop:
  DW_CFA_nop:

  0x1000f5154: CFA=reg31
  0x1000f5160: CFA=reg31+112: reg19=[CFA-24], reg20=[CFA-32], reg29=[CFA-16], reg30=[CFA-8]

000079b0 00000024 000079b4 FDE cie=00000000 pc=1000f52b8...1000f5318
  Format:       DWARF32
  DW_CFA_advance_loc: 8
  DW_CFA_def_cfa_offset: +32
  DW_CFA_offset: reg30 -8
  DW_CFA_offset: reg29 -16
  DW_CFA_offset: reg19 -24
  DW_CFA_offset: reg20 -32
  DW_CFA_nop:
  DW_CFA_nop:
  DW_CFA_nop:
  DW_CFA_nop:

  0x1000f52b8: CFA=reg31
  0x1000f52c0: CFA=reg31+32: reg19=[CFA-24], reg20=[CFA-32], reg29=[CFA-16], reg30=[CFA-8]

000079d8 00000024 000079dc FDE cie=00000000 pc=1000f5318...1000f5368
  Format:       DWARF32
  DW_CFA_advance_loc: 8
  DW_CFA_def_cfa_offset: +32
  DW_CFA_offset: reg30 -8
  DW_CFA_offset: reg29 -16
  DW_CFA_offset: reg19 -24
  DW_CFA_offset: reg20 -32
  DW_CFA_nop:
  DW_CFA_nop:
  DW_CFA_nop:
  DW_CFA_nop:

  0x1000f5318: CFA=reg31
  0x1000f5320: CFA=reg31+32: reg19=[CFA-24], reg20=[CFA-32], reg29=[CFA-16], reg30=[CFA-8]

00007a00 00000034 00007a04 FDE cie=00000000 pc=10040ac88...10040b448
  Format:       DWARF32
  DW_CFA_advance_loc: 28
  DW_CFA_def_cfa_offset: +288
  DW_CFA_offset: reg30 -8
  DW_CFA_offset: reg29 -16
  DW_CFA_offset: reg19 -24
  DW_CFA_offset: reg20 -32
  DW_CFA_offset: reg21 -40
  DW_CFA_offset: reg22 -48
  DW_CFA_offset: reg23 -56
  DW_CFA_offset: reg24 -64
  DW_CFA_offset: reg25 -72
  DW_CFA_offset: reg26 -80
  DW_CFA_offset: reg27 -88
  DW_CFA_offset: reg28 -96
  DW_CFA_nop:
  DW_CFA_nop:
  DW_CFA_nop:

  0x10040ac88: CFA=reg31
  0x10040aca4: CFA=reg31+288: reg19=[CFA-24], reg20=[CFA-32], reg21=[CFA-40], reg22=[CFA-48], reg23=[CFA-56], reg24=[CFA-64], reg25=[CFA-72], reg26=[CFA-80], reg27=[CFA-88], reg28=[CFA-96], reg29=[CFA-16], reg30=[CFA-8]

00007a38 00000024 00007a3c FDE cie=00000000 pc=1000f5e0c...1000f5f34
  Format:       DWARF32
  DW_CFA_advance_loc: 16
  DW_CFA_def_cfa_offset: +96
  DW_CFA_offset: reg30 -8
  DW_CFA_offset: reg29 -16
  DW_CFA_offset: reg19 -24
  DW_CFA_offset: reg20 -32
  DW_CFA_offset: reg21 -40
  DW_CFA_offset: reg22 -48

  0x1000f5e0c: CFA=reg31
  0x1000f5e1c: CFA=reg31+96: reg19=[CFA-24], reg20=[CFA-32], reg21=[CFA-40], reg22=[CFA-48], reg29=[CFA-16], reg30=[CFA-8]

00007a60 00000024 00007a64 FDE cie=00000000 pc=1000f5f34...1000f5f80
  Format:       DWARF32
  DW_CFA_advance_loc: 8
  DW_CFA_def_cfa_offset: +32
  DW_CFA_offset: reg30 -8
  DW_CFA_offset: reg29 -16
  DW_CFA_offset: reg19 -24
  DW_CFA_offset: reg20 -32
  DW_CFA_nop:
  DW_CFA_nop:
  DW_CFA_nop:
  DW_CFA_nop:

  0x1000f5f34: CFA=reg31
  0x1000f5f3c: CFA=reg31+32: reg19=[CFA-24], reg20=[CFA-32], reg29=[CFA-16], reg30=[CFA-8]

00007a88 0000001c 00007a8c FDE cie=00000000 pc=1000f5f80...1000f5fbc
  Format:       DWARF32
  DW_CFA_advance_loc: 8
  DW_CFA_def_cfa_offset: +64
  DW_CFA_offset: reg30 -8
  DW_CFA_offset: reg29 -16

  0x1000f5f80: CFA=reg31
  0x1000f5f88: CFA=reg31+64: reg29=[CFA-16], reg30=[CFA-8]

00007aa8 0000001c 00007aac FDE cie=00000000 pc=1000f5fbc...1000f5ff8
  Format:       DWARF32
  DW_CFA_advance_loc: 8
  DW_CFA_def_cfa_offset: +64
  DW_CFA_offset: reg30 -8
  DW_CFA_offset: reg29 -16

  0x1000f5fbc: CFA=reg31
  0x1000f5fc4: CFA=reg31+64: reg29=[CFA-16], reg30=[CFA-8]

00007ac8 0000001c 00007acc FDE cie=00000000 pc=1000f5ff8...1000f6030
  Format:       DWARF32
  DW_CFA_advance_loc: 8
  DW_CFA_def_cfa_offset: +64
  DW_CFA_offset: reg30 -8
  DW_CFA_offset: reg29 -16

  0x1000f5ff8: CFA=reg31
  0x1000f6000: CFA=reg31+64: reg29=[CFA-16], reg30=[CFA-8]

00007ae8 0000001c 00007aec FDE cie=00000000 pc=1000f6030...1000f6068
  Format:       DWARF32
  DW_CFA_advance_loc: 8
  DW_CFA_def_cfa_offset: +64
  DW_CFA_offset: reg30 -8
  DW_CFA_offset: reg29 -16

  0x1000f6030: CFA=reg31
  0x1000f6038: CFA=reg31+64: reg29=[CFA-16], reg30=[CFA-8]

00007b08 0000001c 00007b0c FDE cie=00000000 pc=1000f6068...1000f60ac
  Format:       DWARF32
  DW_CFA_advance_loc: 4
  DW_CFA_def_cfa_offset: +16
  DW_CFA_offset: reg30 -8
  DW_CFA_offset: reg29 -16

  0x1000f6068: CFA=reg31
  0x1000f606c: CFA=reg31+16: reg29=[CFA-16], reg30=[CFA-8]

00007b28 0000001c 00007b2c FDE cie=00000000 pc=1000f60ac...1000f60f0
  Format:       DWARF32
  DW_CFA_advance_loc: 4
  DW_CFA_def_cfa_offset: +16
  DW_CFA_offset: reg30 -8
  DW_CFA_offset: reg29 -16

  0x1000f60ac: CFA=reg31
  0x1000f60b0: CFA=reg31+16: reg29=[CFA-16], reg30=[CFA-8]

00007b48 0000002c 00007b4c FDE cie=00000000 pc=1000f6104...1000f6388
  Format:       DWARF32
  DW_CFA_advance_loc: 20
  DW_CFA_def_cfa_offset: +112
  DW_CFA_offset: reg30 -8
  DW_CFA_offset: reg29 -16
  DW_CFA_offset: reg19 -24
  DW_CFA_offset: reg20 -32
  DW_CFA_offset: reg21 -40
  DW_CFA_offset: reg22 -48
  DW_CFA_offset: reg23 -56
  DW_CFA_offset: reg24 -64
  DW_CFA_nop:
  DW_CFA_nop:
  DW_CFA_nop:
  DW_CFA_nop:

  0x1000f6104: CFA=reg31
  0x1000f6118: CFA=reg31+112: reg19=[CFA-24], reg20=[CFA-32], reg21=[CFA-40], reg22=[CFA-48], reg23=[CFA-56], reg24=[CFA-64], reg29=[CFA-16], reg30=[CFA-8]

00007b78 0000001c 00007b7c FDE cie=00000000 pc=1000f642c...1000f6470
  Format:       DWARF32
  DW_CFA_advance_loc: 4
  DW_CFA_def_cfa_offset: +16
  DW_CFA_offset: reg30 -8
  DW_CFA_offset: reg29 -16

  0x1000f642c: CFA=reg31
  0x1000f6430: CFA=reg31+16: reg29=[CFA-16], reg30=[CFA-8]

00007b98 0000001c 00007b9c FDE cie=00000000 pc=1000f6470...1000f64b4
  Format:       DWARF32
  DW_CFA_advance_loc: 4
  DW_CFA_def_cfa_offset: +16
  DW_CFA_offset: reg30 -8
  DW_CFA_offset: reg29 -16

  0x1000f6470: CFA=reg31
  0x1000f6474: CFA=reg31+16: reg29=[CFA-16], reg30=[CFA-8]

00007bb8 00000024 00007bbc FDE cie=00000000 pc=1000f64c8...1000f65ac
  Format:       DWARF32
  DW_CFA_advance_loc: 16
  DW_CFA_def_cfa_offset: +96
  DW_CFA_offset: reg30 -8
  DW_CFA_offset: reg29 -16
  DW_CFA_offset: reg19 -24
  DW_CFA_offset: reg20 -32
  DW_CFA_offset: reg21 -40
  DW_CFA_offset: reg22 -48

  0x1000f64c8: CFA=reg31
  0x1000f64d8: CFA=reg31+96: reg19=[CFA-24], reg20=[CFA-32], reg21=[CFA-40], reg22=[CFA-48], reg29=[CFA-16], reg30=[CFA-8]

00007be0 0000001c 00007be4 FDE cie=00000000 pc=1000f6610...1000f6658
  Format:       DWARF32
  DW_CFA_advance_loc: 8
  DW_CFA_def_cfa_offset: +80
  DW_CFA_offset: reg30 -8
  DW_CFA_offset: reg29 -16

  0x1000f6610: CFA=reg31
  0x1000f6618: CFA=reg31+80: reg29=[CFA-16], reg30=[CFA-8]

00007c00 0000002c 00007c04 FDE cie=00000000 pc=1000f666c...1000f681c
  Format:       DWARF32
  DW_CFA_advance_loc: 16
  DW_CFA_def_cfa_offset: +64
  DW_CFA_offset: reg30 -8
  DW_CFA_offset: reg29 -16
  DW_CFA_offset: reg19 -24
  DW_CFA_offset: reg20 -32
  DW_CFA_offset: reg21 -40
  DW_CFA_offset: reg22 -48
  DW_CFA_offset: reg23 -56
  DW_CFA_offset: reg24 -64
  DW_CFA_nop:
  DW_CFA_nop:
  DW_CFA_nop:
  DW_CFA_nop:

  0x1000f666c: CFA=reg31
  0x1000f667c: CFA=reg31+64: reg19=[CFA-24], reg20=[CFA-32], reg21=[CFA-40], reg22=[CFA-48], reg23=[CFA-56], reg24=[CFA-64], reg29=[CFA-16], reg30=[CFA-8]

00007c30 0000001c 00007c34 FDE cie=00000000 pc=1000f681c...1000f6864
  Format:       DWARF32
  DW_CFA_advance_loc: 8
  DW_CFA_def_cfa_offset: +80
  DW_CFA_offset: reg30 -8
  DW_CFA_offset: reg29 -16

  0x1000f681c: CFA=reg31
  0x1000f6824: CFA=reg31+80: reg29=[CFA-16], reg30=[CFA-8]

00007c50 0000002c 00007c54 FDE cie=00000000 pc=1000f6884...1000f6a34
  Format:       DWARF32
  DW_CFA_advance_loc: 16
  DW_CFA_def_cfa_offset: +64
  DW_CFA_offset: reg30 -8
  DW_CFA_offset: reg29 -16
  DW_CFA_offset: reg19 -24
  DW_CFA_offset: reg20 -32
  DW_CFA_offset: reg21 -40
  DW_CFA_offset: reg22 -48
  DW_CFA_offset: reg23 -56
  DW_CFA_offset: reg24 -64
  DW_CFA_nop:
  DW_CFA_nop:
  DW_CFA_nop:
  DW_CFA_nop:

  0x1000f6884: CFA=reg31
  0x1000f6894: CFA=reg31+64: reg19=[CFA-24], reg20=[CFA-32], reg21=[CFA-40], reg22=[CFA-48], reg23=[CFA-56], reg24=[CFA-64], reg29=[CFA-16], reg30=[CFA-8]

00007c80 00000024 00007c84 FDE cie=00000000 pc=1000f6e00...1000f6edc
  Format:       DWARF32
  DW_CFA_advance_loc: 12
  DW_CFA_def_cfa_offset: +48
  DW_CFA_offset: reg30 -8
  DW_CFA_offset: reg29 -16
  DW_CFA_offset: reg19 -24
  DW_CFA_offset: reg20 -32
  DW_CFA_offset: reg21 -40
  DW_CFA_offset: reg22 -48

  0x1000f6e00: CFA=reg31
  0x1000f6e0c: CFA=reg31+48: reg19=[CFA-24], reg20=[CFA-32], reg21=[CFA-40], reg22=[CFA-48], reg29=[CFA-16], reg30=[CFA-8]

00007ca8 00000024 00007cac FDE cie=00000000 pc=1000f6edc...1000f7060
  Format:       DWARF32
  DW_CFA_advance_loc: 12
  DW_CFA_def_cfa_offset: +48
  DW_CFA_offset: reg30 -8
  DW_CFA_offset: reg29 -16
  DW_CFA_offset: reg19 -24
  DW_CFA_offset: reg20 -32
  DW_CFA_offset: reg21 -40
  DW_CFA_offset: reg22 -48

  0x1000f6edc: CFA=reg31
  0x1000f6ee8: CFA=reg31+48: reg19=[CFA-24], reg20=[CFA-32], reg21=[CFA-40], reg22=[CFA-48], reg29=[CFA-16], reg30=[CFA-8]

00007cd0 00000024 00007cd4 FDE cie=00000000 pc=1000f7060...1000f70b4
  Format:       DWARF32
  DW_CFA_advance_loc: 8
  DW_CFA_def_cfa_offset: +32
  DW_CFA_offset: reg30 -8
  DW_CFA_offset: reg29 -16
  DW_CFA_offset: reg19 -24
  DW_CFA_offset: reg20 -32
  DW_CFA_nop:
  DW_CFA_nop:
  DW_CFA_nop:
  DW_CFA_nop:

  0x1000f7060: CFA=reg31
  0x1000f7068: CFA=reg31+32: reg19=[CFA-24], reg20=[CFA-32], reg29=[CFA-16], reg30=[CFA-8]

00007cf8 0000002c 00007cfc FDE cie=00000000 pc=1000f70b4...1000f71a0
  Format:       DWARF32
  DW_CFA_advance_loc: 20
  DW_CFA_def_cfa_offset: +80
  DW_CFA_offset: reg30 -8
  DW_CFA_offset: reg29 -16
  DW_CFA_offset: reg19 -24
  DW_CFA_offset: reg20 -32
  DW_CFA_offset: reg21 -40
  DW_CFA_offset: reg22 -48
  DW_CFA_offset: reg23 -56
  DW_CFA_offset: reg24 -64
  DW_CFA_offset: reg25 -72
  DW_CFA_offset: reg26 -80

  0x1000f70b4: CFA=reg31
  0x1000f70c8: CFA=reg31+80: reg19=[CFA-24], reg20=[CFA-32], reg21=[CFA-40], reg22=[CFA-48], reg23=[CFA-56], reg24=[CFA-64], reg25=[CFA-72], reg26=[CFA-80], reg29=[CFA-16], reg30=[CFA-8]

00007d28 00000024 00007d2c FDE cie=00000000 pc=1000f73bc...1000f74e0
  Format:       DWARF32
  DW_CFA_advance_loc: 12
  DW_CFA_def_cfa_offset: +48
  DW_CFA_offset: reg30 -8
  DW_CFA_offset: reg29 -16
  DW_CFA_offset: reg19 -24
  DW_CFA_offset: reg20 -32
  DW_CFA_offset: reg21 -40
  DW_CFA_offset: reg22 -48

  0x1000f73bc: CFA=reg31
  0x1000f73c8: CFA=reg31+48: reg19=[CFA-24], reg20=[CFA-32], reg21=[CFA-40], reg22=[CFA-48], reg29=[CFA-16], reg30=[CFA-8]

00007d50 00000024 00007d54 FDE cie=00000000 pc=1000f74e0...1000f75b0
  Format:       DWARF32
  DW_CFA_advance_loc: 12
  DW_CFA_def_cfa_offset: +48
  DW_CFA_offset: reg30 -8
  DW_CFA_offset: reg29 -16
  DW_CFA_offset: reg19 -24
  DW_CFA_offset: reg20 -32
  DW_CFA_offset: reg21 -40
  DW_CFA_offset: reg22 -48

  0x1000f74e0: CFA=reg31
  0x1000f74ec: CFA=reg31+48: reg19=[CFA-24], reg20=[CFA-32], reg21=[CFA-40], reg22=[CFA-48], reg29=[CFA-16], reg30=[CFA-8]

00007d78 00000024 00007d7c FDE cie=00000000 pc=1000f76ec...1000f777c
  Format:       DWARF32
  DW_CFA_advance_loc: 12
  DW_CFA_def_cfa_offset: +48
  DW_CFA_offset: reg30 -8
  DW_CFA_offset: reg29 -16
  DW_CFA_offset: reg19 -24
  DW_CFA_offset: reg20 -32
  DW_CFA_offset: reg21 -40
  DW_CFA_offset: reg22 -48

  0x1000f76ec: CFA=reg31
  0x1000f76f8: CFA=reg31+48: reg19=[CFA-24], reg20=[CFA-32], reg21=[CFA-40], reg22=[CFA-48], reg29=[CFA-16], reg30=[CFA-8]

00007da0 00000024 00007da4 FDE cie=00000000 pc=1000f777c...1000f7820
  Format:       DWARF32
  DW_CFA_advance_loc: 12
  DW_CFA_def_cfa_offset: +48
  DW_CFA_offset: reg30 -8
  DW_CFA_offset: reg29 -16
  DW_CFA_offset: reg19 -24
  DW_CFA_offset: reg20 -32
  DW_CFA_offset: reg21 -40
  DW_CFA_offset: reg22 -48

  0x1000f777c: CFA=reg31
  0x1000f7788: CFA=reg31+48: reg19=[CFA-24], reg20=[CFA-32], reg21=[CFA-40], reg22=[CFA-48], reg29=[CFA-16], reg30=[CFA-8]

00007dc8 00000024 00007dcc FDE cie=00000000 pc=1000f7bfc...1000f7c84
  Format:       DWARF32
  DW_CFA_advance_loc: 12
  DW_CFA_def_cfa_offset: +48
  DW_CFA_offset: reg30 -8
  DW_CFA_offset: reg29 -16
  DW_CFA_offset: reg19 -24
  DW_CFA_offset: reg20 -32
  DW_CFA_offset: reg21 -40
  DW_CFA_offset: reg22 -48

  0x1000f7bfc: CFA=reg31
  0x1000f7c08: CFA=reg31+48: reg19=[CFA-24], reg20=[CFA-32], reg21=[CFA-40], reg22=[CFA-48], reg29=[CFA-16], reg30=[CFA-8]

00007df0 00000024 00007df4 FDE cie=00000000 pc=10040b448...10040b4fc
  Format:       DWARF32
  DW_CFA_advance_loc: 12
  DW_CFA_def_cfa_offset: +80
  DW_CFA_offset: reg30 -8
  DW_CFA_offset: reg29 -16
  DW_CFA_offset: reg19 -24
  DW_CFA_offset: reg20 -32
  DW_CFA_nop:
  DW_CFA_nop:
  DW_CFA_nop:
  DW_CFA_nop:

  0x10040b448: CFA=reg31
  0x10040b454: CFA=reg31+80: reg19=[CFA-24], reg20=[CFA-32], reg29=[CFA-16], reg30=[CFA-8]

00007e18 00000024 00007e1c FDE cie=00000000 pc=1000f9d10...1000f9d78
  Format:       DWARF32
  DW_CFA_advance_loc: 8
  DW_CFA_def_cfa_offset: +32
  DW_CFA_offset: reg30 -8
  DW_CFA_offset: reg29 -16
  DW_CFA_offset: reg19 -24
  DW_CFA_offset: reg20 -32
  DW_CFA_nop:
  DW_CFA_nop:
  DW_CFA_nop:
  DW_CFA_nop:

  0x1000f9d10: CFA=reg31
  0x1000f9d18: CFA=reg31+32: reg19=[CFA-24], reg20=[CFA-32], reg29=[CFA-16], reg30=[CFA-8]

00007e40 00000024 00007e44 FDE cie=00000000 pc=1000f9d98...1000f9e68
  Format:       DWARF32
  DW_CFA_advance_loc: 12
  DW_CFA_def_cfa_offset: +48
  DW_CFA_offset: reg30 -8
  DW_CFA_offset: reg29 -16
  DW_CFA_offset: reg19 -24
  DW_CFA_offset: reg20 -32
  DW_CFA_offset: reg21 -40
  DW_CFA_offset: reg22 -48

  0x1000f9d98: CFA=reg31
  0x1000f9da4: CFA=reg31+48: reg19=[CFA-24], reg20=[CFA-32], reg21=[CFA-40], reg22=[CFA-48], reg29=[CFA-16], reg30=[CFA-8]

00007e68 00000024 00007e6c FDE cie=00000000 pc=10040b4fc...10040b5c4
  Format:       DWARF32
  DW_CFA_advance_loc: 12
  DW_CFA_def_cfa_offset: +80
  DW_CFA_offset: reg30 -8
  DW_CFA_offset: reg29 -16
  DW_CFA_offset: reg19 -24
  DW_CFA_offset: reg20 -32
  DW_CFA_nop:
  DW_CFA_nop:
  DW_CFA_nop:
  DW_CFA_nop:

  0x10040b4fc: CFA=reg31
  0x10040b508: CFA=reg31+80: reg19=[CFA-24], reg20=[CFA-32], reg29=[CFA-16], reg30=[CFA-8]

00007e90 00000024 00007e94 FDE cie=00000000 pc=1000f9e68...1000fa080
  Format:       DWARF32
  DW_CFA_advance_loc: 12
  DW_CFA_def_cfa_offset: +64
  DW_CFA_offset: reg30 -8
  DW_CFA_offset: reg29 -16
  DW_CFA_offset: reg19 -24
  DW_CFA_offset: reg20 -32
  DW_CFA_nop:
  DW_CFA_nop:
  DW_CFA_nop:
  DW_CFA_nop:

  0x1000f9e68: CFA=reg31
  0x1000f9e74: CFA=reg31+64: reg19=[CFA-24], reg20=[CFA-32], reg29=[CFA-16], reg30=[CFA-8]

00007eb8 00000024 00007ebc FDE cie=00000000 pc=1000fa084...1000fa2f0
  Format:       DWARF32
  DW_CFA_advance_loc: 16
  DW_CFA_def_cfa_offset: +80
  DW_CFA_offset: reg30 -8
  DW_CFA_offset: reg29 -16
  DW_CFA_offset: reg19 -24
  DW_CFA_offset: reg20 -32
  DW_CFA_offset: reg21 -40
  DW_CFA_offset: reg22 -48

  0x1000fa084: CFA=reg31
  0x1000fa094: CFA=reg31+80: reg19=[CFA-24], reg20=[CFA-32], reg21=[CFA-40], reg22=[CFA-48], reg29=[CFA-16], reg30=[CFA-8]

00007ee0 00000034 00007ee4 FDE cie=00000000 pc=1000fa2f0...1000fa51c
  Format:       DWARF32
  DW_CFA_advance_loc: 28
  DW_CFA_def_cfa_offset: +208
  DW_CFA_offset: reg30 -8
  DW_CFA_offset: reg29 -16
  DW_CFA_offset: reg19 -24
  DW_CFA_offset: reg20 -32
  DW_CFA_offset: reg21 -40
  DW_CFA_offset: reg22 -48
  DW_CFA_offset: reg23 -56
  DW_CFA_offset: reg24 -64
  DW_CFA_offset: reg25 -72
  DW_CFA_offset: reg26 -80
  DW_CFA_offset: reg27 -88
  DW_CFA_offset: reg28 -96
  DW_CFA_nop:
  DW_CFA_nop:
  DW_CFA_nop:

  0x1000fa2f0: CFA=reg31
  0x1000fa30c: CFA=reg31+208: reg19=[CFA-24], reg20=[CFA-32], reg21=[CFA-40], reg22=[CFA-48], reg23=[CFA-56], reg24=[CFA-64], reg25=[CFA-72], reg26=[CFA-80], reg27=[CFA-88], reg28=[CFA-96], reg29=[CFA-16], reg30=[CFA-8]

00007f18 00000024 00007f1c FDE cie=00000000 pc=1000fa51c...1000fa614
  Format:       DWARF32
  DW_CFA_advance_loc: 12
  DW_CFA_def_cfa_offset: +80
  DW_CFA_offset: reg30 -8
  DW_CFA_offset: reg29 -16
  DW_CFA_offset: reg19 -24
  DW_CFA_offset: reg20 -32
  DW_CFA_nop:
  DW_CFA_nop:
  DW_CFA_nop:
  DW_CFA_nop:

  0x1000fa51c: CFA=reg31
  0x1000fa528: CFA=reg31+80: reg19=[CFA-24], reg20=[CFA-32], reg29=[CFA-16], reg30=[CFA-8]

00007f40 00000024 00007f44 FDE cie=00000000 pc=1000fa6f4...1000fa9c0
  Format:       DWARF32
  DW_CFA_advance_loc: 12
  DW_CFA_def_cfa_offset: +64
  DW_CFA_offset: reg30 -8
  DW_CFA_offset: reg29 -16
  DW_CFA_offset: reg19 -24
  DW_CFA_offset: reg20 -32
  DW_CFA_nop:
  DW_CFA_nop:
  DW_CFA_nop:
  DW_CFA_nop:

  0x1000fa6f4: CFA=reg31
  0x1000fa700: CFA=reg31+64: reg19=[CFA-24], reg20=[CFA-32], reg29=[CFA-16], reg30=[CFA-8]

00007f68 00000024 00007f6c FDE cie=00000000 pc=1000fa9c0...1000faae0
  Format:       DWARF32
  DW_CFA_advance_loc: 16
  DW_CFA_def_cfa_offset: +80
  DW_CFA_offset: reg30 -8
  DW_CFA_offset: reg29 -16
  DW_CFA_offset: reg19 -24
  DW_CFA_offset: reg20 -32
  DW_CFA_offset: reg21 -40
  DW_CFA_offset: reg22 -48

  0x1000fa9c0: CFA=reg31
  0x1000fa9d0: CFA=reg31+80: reg19=[CFA-24], reg20=[CFA-32], reg21=[CFA-40], reg22=[CFA-48], reg29=[CFA-16], reg30=[CFA-8]

00007f90 00000024 00007f94 FDE cie=00000000 pc=1000faae0...1000fabd8
  Format:       DWARF32
  DW_CFA_advance_loc: 16
  DW_CFA_def_cfa_offset: +80
  DW_CFA_offset: reg30 -8
  DW_CFA_offset: reg29 -16
  DW_CFA_offset: reg19 -24
  DW_CFA_offset: reg20 -32
  DW_CFA_offset: reg21 -40
  DW_CFA_offset: reg22 -48

  0x1000faae0: CFA=reg31
  0x1000faaf0: CFA=reg31+80: reg19=[CFA-24], reg20=[CFA-32], reg21=[CFA-40], reg22=[CFA-48], reg29=[CFA-16], reg30=[CFA-8]

00007fb8 00000024 00007fbc FDE cie=00000000 pc=1000fabd8...1000facd0
  Format:       DWARF32
  DW_CFA_advance_loc: 16
  DW_CFA_def_cfa_offset: +80
  DW_CFA_offset: reg30 -8
  DW_CFA_offset: reg29 -16
  DW_CFA_offset: reg19 -24
  DW_CFA_offset: reg20 -32
  DW_CFA_offset: reg21 -40
  DW_CFA_offset: reg22 -48

  0x1000fabd8: CFA=reg31
  0x1000fabe8: CFA=reg31+80: reg19=[CFA-24], reg20=[CFA-32], reg21=[CFA-40], reg22=[CFA-48], reg29=[CFA-16], reg30=[CFA-8]

00007fe0 00000024 00007fe4 FDE cie=00000000 pc=1000facd0...1000fadc8
  Format:       DWARF32
  DW_CFA_advance_loc: 16
  DW_CFA_def_cfa_offset: +80
  DW_CFA_offset: reg30 -8
  DW_CFA_offset: reg29 -16
  DW_CFA_offset: reg19 -24
  DW_CFA_offset: reg20 -32
  DW_CFA_offset: reg21 -40
  DW_CFA_offset: reg22 -48

  0x1000facd0: CFA=reg31
  0x1000face0: CFA=reg31+80: reg19=[CFA-24], reg20=[CFA-32], reg21=[CFA-40], reg22=[CFA-48], reg29=[CFA-16], reg30=[CFA-8]

00008008 00000024 0000800c FDE cie=00000000 pc=1000fadc8...1000faec0
  Format:       DWARF32
  DW_CFA_advance_loc: 16
  DW_CFA_def_cfa_offset: +80
  DW_CFA_offset: reg30 -8
  DW_CFA_offset: reg29 -16
  DW_CFA_offset: reg19 -24
  DW_CFA_offset: reg20 -32
  DW_CFA_offset: reg21 -40
  DW_CFA_offset: reg22 -48

  0x1000fadc8: CFA=reg31
  0x1000fadd8: CFA=reg31+80: reg19=[CFA-24], reg20=[CFA-32], reg21=[CFA-40], reg22=[CFA-48], reg29=[CFA-16], reg30=[CFA-8]

00008030 00000024 00008034 FDE cie=00000000 pc=1000faec0...1000fafb8
  Format:       DWARF32
  DW_CFA_advance_loc: 16
  DW_CFA_def_cfa_offset: +80
  DW_CFA_offset: reg30 -8
  DW_CFA_offset: reg29 -16
  DW_CFA_offset: reg19 -24
  DW_CFA_offset: reg20 -32
  DW_CFA_offset: reg21 -40
  DW_CFA_offset: reg22 -48

  0x1000faec0: CFA=reg31
  0x1000faed0: CFA=reg31+80: reg19=[CFA-24], reg20=[CFA-32], reg21=[CFA-40], reg22=[CFA-48], reg29=[CFA-16], reg30=[CFA-8]

00008058 00000034 0000805c FDE cie=00000000 pc=10040b5c4...10040bd40
  Format:       DWARF32
  DW_CFA_advance_loc: 28
  DW_CFA_def_cfa_offset: +288
  DW_CFA_offset: reg30 -8
  DW_CFA_offset: reg29 -16
  DW_CFA_offset: reg19 -24
  DW_CFA_offset: reg20 -32
  DW_CFA_offset: reg21 -40
  DW_CFA_offset: reg22 -48
  DW_CFA_offset: reg23 -56
  DW_CFA_offset: reg24 -64
  DW_CFA_offset: reg25 -72
  DW_CFA_offset: reg26 -80
  DW_CFA_offset: reg27 -88
  DW_CFA_offset: reg28 -96
  DW_CFA_nop:
  DW_CFA_nop:
  DW_CFA_nop:

  0x10040b5c4: CFA=reg31
  0x10040b5e0: CFA=reg31+288: reg19=[CFA-24], reg20=[CFA-32], reg21=[CFA-40], reg22=[CFA-48], reg23=[CFA-56], reg24=[CFA-64], reg25=[CFA-72], reg26=[CFA-80], reg27=[CFA-88], reg28=[CFA-96], reg29=[CFA-16], reg30=[CFA-8]

00008090 0000002c 00008094 FDE cie=00000000 pc=1000fe460...1000fe5b0
  Format:       DWARF32
  DW_CFA_advance_loc: 16
  DW_CFA_def_cfa_offset: +64
  DW_CFA_offset: reg30 -8
  DW_CFA_offset: reg29 -16
  DW_CFA_offset: reg19 -24
  DW_CFA_offset: reg20 -32
  DW_CFA_offset: reg21 -40
  DW_CFA_offset: reg22 -48
  DW_CFA_offset: reg23 -56
  DW_CFA_offset: reg24 -64
  DW_CFA_nop:
  DW_CFA_nop:
  DW_CFA_nop:
  DW_CFA_nop:

  0x1000fe460: CFA=reg31
  0x1000fe470: CFA=reg31+64: reg19=[CFA-24], reg20=[CFA-32], reg21=[CFA-40], reg22=[CFA-48], reg23=[CFA-56], reg24=[CFA-64], reg29=[CFA-16], reg30=[CFA-8]

000080c0 00000024 000080c4 FDE cie=00000000 pc=10040bd40...10040be10
  Format:       DWARF32
  DW_CFA_advance_loc: 12
  DW_CFA_def_cfa_offset: +80
  DW_CFA_offset: reg30 -8
  DW_CFA_offset: reg29 -16
  DW_CFA_offset: reg19 -24
  DW_CFA_offset: reg20 -32
  DW_CFA_nop:
  DW_CFA_nop:
  DW_CFA_nop:
  DW_CFA_nop:

  0x10040bd40: CFA=reg31
  0x10040bd4c: CFA=reg31+80: reg19=[CFA-24], reg20=[CFA-32], reg29=[CFA-16], reg30=[CFA-8]

000080e8 00000034 000080ec FDE cie=00000000 pc=1000fe9e8...1000fed54
  Format:       DWARF32
  DW_CFA_advance_loc: 28
  DW_CFA_def_cfa_offset: +128
  DW_CFA_offset: reg30 -8
  DW_CFA_offset: reg29 -16
  DW_CFA_offset: reg19 -24
  DW_CFA_offset: reg20 -32
  DW_CFA_offset: reg21 -40
  DW_CFA_offset: reg22 -48
  DW_CFA_offset: reg23 -56
  DW_CFA_offset: reg24 -64
  DW_CFA_offset: reg25 -72
  DW_CFA_offset: reg26 -80
  DW_CFA_offset: reg27 -88
  DW_CFA_offset: reg28 -96
  DW_CFA_nop:
  DW_CFA_nop:
  DW_CFA_nop:

  0x1000fe9e8: CFA=reg31
  0x1000fea04: CFA=reg31+128: reg19=[CFA-24], reg20=[CFA-32], reg21=[CFA-40], reg22=[CFA-48], reg23=[CFA-56], reg24=[CFA-64], reg25=[CFA-72], reg26=[CFA-80], reg27=[CFA-88], reg28=[CFA-96], reg29=[CFA-16], reg30=[CFA-8]

00008120 0000001c 00008124 FDE cie=00000000 pc=1000ff480...1000ff48c
  Format:       DWARF32
  DW_CFA_advance_loc: 4
  DW_CFA_def_cfa_offset: +16
  DW_CFA_offset: reg30 -8
  DW_CFA_offset: reg29 -16

  0x1000ff480: CFA=reg31
  0x1000ff484: CFA=reg31+16: reg29=[CFA-16], reg30=[CFA-8]

00008140 00000034 00008144 FDE cie=00000000 pc=1000ff48c...1000ff5d4
  Format:       DWARF32
  DW_CFA_advance_loc: 24
  DW_CFA_def_cfa_offset: +96
  DW_CFA_offset: reg30 -8
  DW_CFA_offset: reg29 -16
  DW_CFA_offset: reg19 -24
  DW_CFA_offset: reg20 -32
  DW_CFA_offset: reg21 -40
  DW_CFA_offset: reg22 -48
  DW_CFA_offset: reg23 -56
  DW_CFA_offset: reg24 -64
  DW_CFA_offset: reg25 -72
  DW_CFA_offset: reg26 -80
  DW_CFA_offset: reg27 -88
  DW_CFA_offset: reg28 -96
  DW_CFA_nop:
  DW_CFA_nop:
  DW_CFA_nop:
  DW_CFA_nop:

  0x1000ff48c: CFA=reg31
  0x1000ff4a4: CFA=reg31+96: reg19=[CFA-24], reg20=[CFA-32], reg21=[CFA-40], reg22=[CFA-48], reg23=[CFA-56], reg24=[CFA-64], reg25=[CFA-72], reg26=[CFA-80], reg27=[CFA-88], reg28=[CFA-96], reg29=[CFA-16], reg30=[CFA-8]

00008178 00000034 0000817c FDE cie=00000000 pc=10040be10...10040c334
  Format:       DWARF32
  DW_CFA_advance_loc: 28
  DW_CFA_def_cfa_offset: +192
  DW_CFA_offset: reg30 -8
  DW_CFA_offset: reg29 -16
  DW_CFA_offset: reg19 -24
  DW_CFA_offset: reg20 -32
  DW_CFA_offset: reg21 -40
  DW_CFA_offset: reg22 -48
  DW_CFA_offset: reg23 -56
  DW_CFA_offset: reg24 -64
  DW_CFA_offset: reg25 -72
  DW_CFA_offset: reg26 -80
  DW_CFA_offset: reg27 -88
  DW_CFA_offset: reg28 -96
  DW_CFA_nop:
  DW_CFA_nop:
  DW_CFA_nop:

  0x10040be10: CFA=reg31
  0x10040be2c: CFA=reg31+192: reg19=[CFA-24], reg20=[CFA-32], reg21=[CFA-40], reg22=[CFA-48], reg23=[CFA-56], reg24=[CFA-64], reg25=[CFA-72], reg26=[CFA-80], reg27=[CFA-88], reg28=[CFA-96], reg29=[CFA-16], reg30=[CFA-8]

000081b0 00000024 000081b4 FDE cie=00000000 pc=100100080...1001001e0
  Format:       DWARF32
  DW_CFA_advance_loc: 12
  DW_CFA_def_cfa_offset: +112
  DW_CFA_offset: reg30 -8
  DW_CFA_offset: reg29 -16
  DW_CFA_offset: reg19 -24
  DW_CFA_offset: reg20 -32
  DW_CFA_nop:
  DW_CFA_nop:
  DW_CFA_nop:
  DW_CFA_nop:

  0x100100080: CFA=reg31
  0x10010008c: CFA=reg31+112: reg19=[CFA-24], reg20=[CFA-32], reg29=[CFA-16], reg30=[CFA-8]

000081d8 00000034 000081dc FDE cie=00000000 pc=1001001e0...100100a60
  Format:       DWARF32
  DW_CFA_advance_loc: 28
  DW_CFA_def_cfa_offset: +192
  DW_CFA_offset: reg30 -8
  DW_CFA_offset: reg29 -16
  DW_CFA_offset: reg19 -24
  DW_CFA_offset: reg20 -32
  DW_CFA_offset: reg21 -40
  DW_CFA_offset: reg22 -48
  DW_CFA_offset: reg23 -56
  DW_CFA_offset: reg24 -64
  DW_CFA_offset: reg25 -72
  DW_CFA_offset: reg26 -80
  DW_CFA_offset: reg27 -88
  DW_CFA_offset: reg28 -96
  DW_CFA_nop:
  DW_CFA_nop:
  DW_CFA_nop:

  0x1001001e0: CFA=reg31
  0x1001001fc: CFA=reg31+192: reg19=[CFA-24], reg20=[CFA-32], reg21=[CFA-40], reg22=[CFA-48], reg23=[CFA-56], reg24=[CFA-64], reg25=[CFA-72], reg26=[CFA-80], reg27=[CFA-88], reg28=[CFA-96], reg29=[CFA-16], reg30=[CFA-8]

00008210 00000034 00008214 FDE cie=00000000 pc=100100a60...10010180c
  Format:       DWARF32
  DW_CFA_advance_loc: 28
  DW_CFA_def_cfa_offset: +272
  DW_CFA_offset: reg30 -8
  DW_CFA_offset: reg29 -16
  DW_CFA_offset: reg19 -24
  DW_CFA_offset: reg20 -32
  DW_CFA_offset: reg21 -40
  DW_CFA_offset: reg22 -48
  DW_CFA_offset: reg23 -56
  DW_CFA_offset: reg24 -64
  DW_CFA_offset: reg25 -72
  DW_CFA_offset: reg26 -80
  DW_CFA_offset: reg27 -88
  DW_CFA_offset: reg28 -96
  DW_CFA_nop:
  DW_CFA_nop:
  DW_CFA_nop:

  0x100100a60: CFA=reg31
  0x100100a7c: CFA=reg31+272: reg19=[CFA-24], reg20=[CFA-32], reg21=[CFA-40], reg22=[CFA-48], reg23=[CFA-56], reg24=[CFA-64], reg25=[CFA-72], reg26=[CFA-80], reg27=[CFA-88], reg28=[CFA-96], reg29=[CFA-16], reg30=[CFA-8]

00008248 00000034 0000824c FDE cie=00000000 pc=10010180c...1001025c4
  Format:       DWARF32
  DW_CFA_advance_loc: 28
  DW_CFA_def_cfa_offset: +208
  DW_CFA_offset: reg30 -8
  DW_CFA_offset: reg29 -16
  DW_CFA_offset: reg19 -24
  DW_CFA_offset: reg20 -32
  DW_CFA_offset: reg21 -40
  DW_CFA_offset: reg22 -48
  DW_CFA_offset: reg23 -56
  DW_CFA_offset: reg24 -64
  DW_CFA_offset: reg25 -72
  DW_CFA_offset: reg26 -80
  DW_CFA_offset: reg27 -88
  DW_CFA_offset: reg28 -96
  DW_CFA_nop:
  DW_CFA_nop:
  DW_CFA_nop:

  0x10010180c: CFA=reg31
  0x100101828: CFA=reg31+208: reg19=[CFA-24], reg20=[CFA-32], reg21=[CFA-40], reg22=[CFA-48], reg23=[CFA-56], reg24=[CFA-64], reg25=[CFA-72], reg26=[CFA-80], reg27=[CFA-88], reg28=[CFA-96], reg29=[CFA-16], reg30=[CFA-8]

00008280 00000034 00008284 FDE cie=00000000 pc=1001025c4...100102aa0
  Format:       DWARF32
  DW_CFA_advance_loc: 28
  DW_CFA_def_cfa_offset: +192
  DW_CFA_offset: reg30 -8
  DW_CFA_offset: reg29 -16
  DW_CFA_offset: reg19 -24
  DW_CFA_offset: reg20 -32
  DW_CFA_offset: reg21 -40
  DW_CFA_offset: reg22 -48
  DW_CFA_offset: reg23 -56
  DW_CFA_offset: reg24 -64
  DW_CFA_offset: reg25 -72
  DW_CFA_offset: reg26 -80
  DW_CFA_offset: reg27 -88
  DW_CFA_offset: reg28 -96
  DW_CFA_nop:
  DW_CFA_nop:
  DW_CFA_nop:

  0x1001025c4: CFA=reg31
  0x1001025e0: CFA=reg31+192: reg19=[CFA-24], reg20=[CFA-32], reg21=[CFA-40], reg22=[CFA-48], reg23=[CFA-56], reg24=[CFA-64], reg25=[CFA-72], reg26=[CFA-80], reg27=[CFA-88], reg28=[CFA-96], reg29=[CFA-16], reg30=[CFA-8]

000082b8 00000034 000082bc FDE cie=00000000 pc=100102aa0...100102e7c
  Format:       DWARF32
  DW_CFA_advance_loc: 28
  DW_CFA_def_cfa_offset: +192
  DW_CFA_offset: reg30 -8
  DW_CFA_offset: reg29 -16
  DW_CFA_offset: reg19 -24
  DW_CFA_offset: reg20 -32
  DW_CFA_offset: reg21 -40
  DW_CFA_offset: reg22 -48
  DW_CFA_offset: reg23 -56
  DW_CFA_offset: reg24 -64
  DW_CFA_offset: reg25 -72
  DW_CFA_offset: reg26 -80
  DW_CFA_offset: reg27 -88
  DW_CFA_offset: reg28 -96
  DW_CFA_nop:
  DW_CFA_nop:
  DW_CFA_nop:

  0x100102aa0: CFA=reg31
  0x100102abc: CFA=reg31+192: reg19=[CFA-24], reg20=[CFA-32], reg21=[CFA-40], reg22=[CFA-48], reg23=[CFA-56], reg24=[CFA-64], reg25=[CFA-72], reg26=[CFA-80], reg27=[CFA-88], reg28=[CFA-96], reg29=[CFA-16], reg30=[CFA-8]

000082f0 00000034 000082f4 FDE cie=00000000 pc=100102e7c...10010326c
  Format:       DWARF32
  DW_CFA_advance_loc: 28
  DW_CFA_def_cfa_offset: +224
  DW_CFA_offset: reg30 -8
  DW_CFA_offset: reg29 -16
  DW_CFA_offset: reg19 -24
  DW_CFA_offset: reg20 -32
  DW_CFA_offset: reg21 -40
  DW_CFA_offset: reg22 -48
  DW_CFA_offset: reg23 -56
  DW_CFA_offset: reg24 -64
  DW_CFA_offset: reg25 -72
  DW_CFA_offset: reg26 -80
  DW_CFA_offset: reg27 -88
  DW_CFA_offset: reg28 -96
  DW_CFA_nop:
  DW_CFA_nop:
  DW_CFA_nop:

  0x100102e7c: CFA=reg31
  0x100102e98: CFA=reg31+224: reg19=[CFA-24], reg20=[CFA-32], reg21=[CFA-40], reg22=[CFA-48], reg23=[CFA-56], reg24=[CFA-64], reg25=[CFA-72], reg26=[CFA-80], reg27=[CFA-88], reg28=[CFA-96], reg29=[CFA-16], reg30=[CFA-8]

00008328 00000034 0000832c FDE cie=00000000 pc=10010326c...100103650
  Format:       DWARF32
  DW_CFA_advance_loc: 28
  DW_CFA_def_cfa_offset: +192
  DW_CFA_offset: reg30 -8
  DW_CFA_offset: reg29 -16
  DW_CFA_offset: reg19 -24
  DW_CFA_offset: reg20 -32
  DW_CFA_offset: reg21 -40
  DW_CFA_offset: reg22 -48
  DW_CFA_offset: reg23 -56
  DW_CFA_offset: reg24 -64
  DW_CFA_offset: reg25 -72
  DW_CFA_offset: reg26 -80
  DW_CFA_offset: reg27 -88
  DW_CFA_offset: reg28 -96
  DW_CFA_nop:
  DW_CFA_nop:
  DW_CFA_nop:

  0x10010326c: CFA=reg31
  0x100103288: CFA=reg31+192: reg19=[CFA-24], reg20=[CFA-32], reg21=[CFA-40], reg22=[CFA-48], reg23=[CFA-56], reg24=[CFA-64], reg25=[CFA-72], reg26=[CFA-80], reg27=[CFA-88], reg28=[CFA-96], reg29=[CFA-16], reg30=[CFA-8]

00008360 00000034 00008364 FDE cie=00000000 pc=100103650...100103a60
  Format:       DWARF32
  DW_CFA_advance_loc: 28
  DW_CFA_def_cfa_offset: +224
  DW_CFA_offset: reg30 -8
  DW_CFA_offset: reg29 -16
  DW_CFA_offset: reg19 -24
  DW_CFA_offset: reg20 -32
  DW_CFA_offset: reg21 -40
  DW_CFA_offset: reg22 -48
  DW_CFA_offset: reg23 -56
  DW_CFA_offset: reg24 -64
  DW_CFA_offset: reg25 -72
  DW_CFA_offset: reg26 -80
  DW_CFA_offset: reg27 -88
  DW_CFA_offset: reg28 -96
  DW_CFA_nop:
  DW_CFA_nop:
  DW_CFA_nop:

  0x100103650: CFA=reg31
  0x10010366c: CFA=reg31+224: reg19=[CFA-24], reg20=[CFA-32], reg21=[CFA-40], reg22=[CFA-48], reg23=[CFA-56], reg24=[CFA-64], reg25=[CFA-72], reg26=[CFA-80], reg27=[CFA-88], reg28=[CFA-96], reg29=[CFA-16], reg30=[CFA-8]

00008398 0000001c 0000839c FDE cie=00000000 pc=100103a60...100103a9c
  Format:       DWARF32
  DW_CFA_advance_loc: 8
  DW_CFA_def_cfa_offset: +80
  DW_CFA_offset: reg30 -8
  DW_CFA_offset: reg29 -16

  0x100103a60: CFA=reg31
  0x100103a68: CFA=reg31+80: reg29=[CFA-16], reg30=[CFA-8]

000083b8 0000001c 000083bc FDE cie=00000000 pc=100103a9c...100103adc
  Format:       DWARF32
  DW_CFA_advance_loc: 8
  DW_CFA_def_cfa_offset: +80
  DW_CFA_offset: reg30 -8
  DW_CFA_offset: reg29 -16

  0x100103a9c: CFA=reg31
  0x100103aa4: CFA=reg31+80: reg29=[CFA-16], reg30=[CFA-8]

000083d8 00000024 000083dc FDE cie=00000000 pc=100109f3c...100109fc4
  Format:       DWARF32
  DW_CFA_advance_loc: 12
  DW_CFA_def_cfa_offset: +48
  DW_CFA_offset: reg30 -8
  DW_CFA_offset: reg29 -16
  DW_CFA_offset: reg19 -24
  DW_CFA_offset: reg20 -32
  DW_CFA_offset: reg21 -40
  DW_CFA_offset: reg22 -48

  0x100109f3c: CFA=reg31
  0x100109f48: CFA=reg31+48: reg19=[CFA-24], reg20=[CFA-32], reg21=[CFA-40], reg22=[CFA-48], reg29=[CFA-16], reg30=[CFA-8]

00008400 00000024 00008404 FDE cie=00000000 pc=10040c334...10040c408
  Format:       DWARF32
  DW_CFA_advance_loc: 12
  DW_CFA_def_cfa_offset: +80
  DW_CFA_offset: reg30 -8
  DW_CFA_offset: reg29 -16
  DW_CFA_offset: reg19 -24
  DW_CFA_offset: reg20 -32
  DW_CFA_nop:
  DW_CFA_nop:
  DW_CFA_nop:
  DW_CFA_nop:

  0x10040c334: CFA=reg31
  0x10040c340: CFA=reg31+80: reg19=[CFA-24], reg20=[CFA-32], reg29=[CFA-16], reg30=[CFA-8]

00008428 00000024 0000842c FDE cie=00000000 pc=10010a248...10010a3a0
  Format:       DWARF32
  DW_CFA_advance_loc: 16
  DW_CFA_def_cfa_offset: +64
  DW_CFA_offset: reg30 -8
  DW_CFA_offset: reg29 -16
  DW_CFA_offset: reg19 -24
  DW_CFA_offset: reg20 -32
  DW_CFA_offset: reg21 -40
  DW_CFA_offset: reg22 -48

  0x10010a248: CFA=reg31
  0x10010a258: CFA=reg31+64: reg19=[CFA-24], reg20=[CFA-32], reg21=[CFA-40], reg22=[CFA-48], reg29=[CFA-16], reg30=[CFA-8]

00008450 00000024 00008454 FDE cie=00000000 pc=10010a3a0...10010a498
  Format:       DWARF32
  DW_CFA_advance_loc: 16
  DW_CFA_def_cfa_offset: +80
  DW_CFA_offset: reg30 -8
  DW_CFA_offset: reg29 -16
  DW_CFA_offset: reg19 -24
  DW_CFA_offset: reg20 -32
  DW_CFA_offset: reg21 -40
  DW_CFA_offset: reg22 -48

  0x10010a3a0: CFA=reg31
  0x10010a3b0: CFA=reg31+80: reg19=[CFA-24], reg20=[CFA-32], reg21=[CFA-40], reg22=[CFA-48], reg29=[CFA-16], reg30=[CFA-8]

00008478 00000034 0000847c FDE cie=00000000 pc=10010a498...10010a850
  Format:       DWARF32
  DW_CFA_advance_loc: 28
  DW_CFA_def_cfa_offset: +704
  DW_CFA_offset: reg30 -8
  DW_CFA_offset: reg29 -16
  DW_CFA_offset: reg19 -24
  DW_CFA_offset: reg20 -32
  DW_CFA_offset: reg21 -40
  DW_CFA_offset: reg22 -48
  DW_CFA_offset: reg23 -56
  DW_CFA_offset: reg24 -64
  DW_CFA_offset: reg25 -72
  DW_CFA_offset: reg26 -80
  DW_CFA_offset: reg27 -88
  DW_CFA_offset: reg28 -96
  DW_CFA_nop:
  DW_CFA_nop:
  DW_CFA_nop:

  0x10010a498: CFA=reg31
  0x10010a4b4: CFA=reg31+704: reg19=[CFA-24], reg20=[CFA-32], reg21=[CFA-40], reg22=[CFA-48], reg23=[CFA-56], reg24=[CFA-64], reg25=[CFA-72], reg26=[CFA-80], reg27=[CFA-88], reg28=[CFA-96], reg29=[CFA-16], reg30=[CFA-8]

000084b0 0000002c 000084b4 FDE cie=00000000 pc=10010aa00...10010ab24
  Format:       DWARF32
  DW_CFA_advance_loc: 16
  DW_CFA_def_cfa_offset: +64
  DW_CFA_offset: reg30 -8
  DW_CFA_offset: reg29 -16
  DW_CFA_offset: reg19 -24
  DW_CFA_offset: reg20 -32
  DW_CFA_offset: reg21 -40
  DW_CFA_offset: reg22 -48
  DW_CFA_offset: reg23 -56
  DW_CFA_offset: reg24 -64
  DW_CFA_nop:
  DW_CFA_nop:
  DW_CFA_nop:
  DW_CFA_nop:

  0x10010aa00: CFA=reg31
  0x10010aa10: CFA=reg31+64: reg19=[CFA-24], reg20=[CFA-32], reg21=[CFA-40], reg22=[CFA-48], reg23=[CFA-56], reg24=[CFA-64], reg29=[CFA-16], reg30=[CFA-8]

000084e0 0000002c 000084e4 FDE cie=00000000 pc=10010ab24...10010ac1c
  Format:       DWARF32
  DW_CFA_advance_loc: 16
  DW_CFA_def_cfa_offset: +64
  DW_CFA_offset: reg30 -8
  DW_CFA_offset: reg29 -16
  DW_CFA_offset: reg19 -24
  DW_CFA_offset: reg20 -32
  DW_CFA_offset: reg21 -40
  DW_CFA_offset: reg22 -48
  DW_CFA_offset: reg23 -56
  DW_CFA_offset: reg24 -64
  DW_CFA_nop:
  DW_CFA_nop:
  DW_CFA_nop:
  DW_CFA_nop:

  0x10010ab24: CFA=reg31
  0x10010ab34: CFA=reg31+64: reg19=[CFA-24], reg20=[CFA-32], reg21=[CFA-40], reg22=[CFA-48], reg23=[CFA-56], reg24=[CFA-64], reg29=[CFA-16], reg30=[CFA-8]

00008510 0000002c 00008514 FDE cie=00000000 pc=10010bee0...10010c048
  Format:       DWARF32
  DW_CFA_advance_loc: 16
  DW_CFA_def_cfa_offset: +64
  DW_CFA_offset: reg30 -8
  DW_CFA_offset: reg29 -16
  DW_CFA_offset: reg19 -24
  DW_CFA_offset: reg20 -32
  DW_CFA_offset: reg21 -40
  DW_CFA_offset: reg22 -48
  DW_CFA_offset: reg23 -56
  DW_CFA_offset: reg24 -64
  DW_CFA_nop:
  DW_CFA_nop:
  DW_CFA_nop:
  DW_CFA_nop:

  0x10010bee0: CFA=reg31
  0x10010bef0: CFA=reg31+64: reg19=[CFA-24], reg20=[CFA-32], reg21=[CFA-40], reg22=[CFA-48], reg23=[CFA-56], reg24=[CFA-64], reg29=[CFA-16], reg30=[CFA-8]

00008540 00000024 00008544 FDE cie=00000000 pc=10010c0e4...10010c1c0
  Format:       DWARF32
  DW_CFA_advance_loc: 12
  DW_CFA_def_cfa_offset: +48
  DW_CFA_offset: reg30 -8
  DW_CFA_offset: reg29 -16
  DW_CFA_offset: reg19 -24
  DW_CFA_offset: reg20 -32
  DW_CFA_offset: reg21 -40
  DW_CFA_offset: reg22 -48

  0x10010c0e4: CFA=reg31
  0x10010c0f0: CFA=reg31+48: reg19=[CFA-24], reg20=[CFA-32], reg21=[CFA-40], reg22=[CFA-48], reg29=[CFA-16], reg30=[CFA-8]

00008568 00000024 0000856c FDE cie=00000000 pc=10010e910...10010e9c8
  Format:       DWARF32
  DW_CFA_advance_loc: 12
  DW_CFA_def_cfa_offset: +48
  DW_CFA_offset: reg30 -8
  DW_CFA_offset: reg29 -16
  DW_CFA_offset: reg19 -24
  DW_CFA_offset: reg20 -32
  DW_CFA_offset: reg21 -40
  DW_CFA_offset: reg22 -48

  0x10010e910: CFA=reg31
  0x10010e91c: CFA=reg31+48: reg19=[CFA-24], reg20=[CFA-32], reg21=[CFA-40], reg22=[CFA-48], reg29=[CFA-16], reg30=[CFA-8]

00008590 0000001c 00008594 FDE cie=00000000 pc=10040c408...10040c420
  Format:       DWARF32
  DW_CFA_advance_loc: 8
  DW_CFA_def_cfa_offset: +48
  DW_CFA_offset: reg30 -8
  DW_CFA_offset: reg29 -16

  0x10040c408: CFA=reg31
  0x10040c410: CFA=reg31+48: reg29=[CFA-16], reg30=[CFA-8]

000085b0 0000001c 000085b4 FDE cie=00000000 pc=10010e9c8...10010eb3c
  Format:       DWARF32
  DW_CFA_advance_loc: 4
  DW_CFA_def_cfa_offset: +16
  DW_CFA_offset: reg30 -8
  DW_CFA_offset: reg29 -16

  0x10010e9c8: CFA=reg31
  0x10010e9cc: CFA=reg31+16: reg29=[CFA-16], reg30=[CFA-8]

000085d0 0000001c 000085d4 FDE cie=00000000 pc=10010eb3c...10010eb5c
  Format:       DWARF32
  DW_CFA_advance_loc: 8
  DW_CFA_def_cfa_offset: +48
  DW_CFA_offset: reg30 -8
  DW_CFA_offset: reg29 -16

  0x10010eb3c: CFA=reg31
  0x10010eb44: CFA=reg31+48: reg29=[CFA-16], reg30=[CFA-8]

000085f0 0000001c 000085f4 FDE cie=00000000 pc=10010eb5c...10010eb84
  Format:       DWARF32
  DW_CFA_advance_loc: 8
  DW_CFA_def_cfa_offset: +32
  DW_CFA_offset: reg30 -8
  DW_CFA_offset: reg29 -16

  0x10010eb5c: CFA=reg31
  0x10010eb64: CFA=reg31+32: reg29=[CFA-16], reg30=[CFA-8]

00008610 00000024 00008614 FDE cie=00000000 pc=10010eb84...10010ebcc
  Format:       DWARF32
  DW_CFA_advance_loc: 8
  DW_CFA_def_cfa_offset: +32
  DW_CFA_offset: reg30 -8
  DW_CFA_offset: reg29 -16
  DW_CFA_offset: reg19 -24
  DW_CFA_offset: reg20 -32
  DW_CFA_nop:
  DW_CFA_nop:
  DW_CFA_nop:
  DW_CFA_nop:

  0x10010eb84: CFA=reg31
  0x10010eb8c: CFA=reg31+32: reg19=[CFA-24], reg20=[CFA-32], reg29=[CFA-16], reg30=[CFA-8]

00008638 0000001c 0000863c FDE cie=00000000 pc=10010ebcc...10010ebec
  Format:       DWARF32
  DW_CFA_advance_loc: 4
  DW_CFA_def_cfa_offset: +16
  DW_CFA_offset: reg30 -8
  DW_CFA_offset: reg29 -16

  0x10010ebcc: CFA=reg31
  0x10010ebd0: CFA=reg31+16: reg29=[CFA-16], reg30=[CFA-8]

00008658 0000002c 0000865c FDE cie=00000000 pc=10010ebec...10010ee50
  Format:       DWARF32
  DW_CFA_advance_loc: 16
  DW_CFA_def_cfa_offset: +64
  DW_CFA_offset: reg30 -8
  DW_CFA_offset: reg29 -16
  DW_CFA_offset: reg19 -24
  DW_CFA_offset: reg20 -32
  DW_CFA_offset: reg21 -40
  DW_CFA_offset: reg22 -48
  DW_CFA_offset: reg23 -56
  DW_CFA_offset: reg24 -64
  DW_CFA_nop:
  DW_CFA_nop:
  DW_CFA_nop:
  DW_CFA_nop:

  0x10010ebec: CFA=reg31
  0x10010ebfc: CFA=reg31+64: reg19=[CFA-24], reg20=[CFA-32], reg21=[CFA-40], reg22=[CFA-48], reg23=[CFA-56], reg24=[CFA-64], reg29=[CFA-16], reg30=[CFA-8]

00008688 00000024 0000868c FDE cie=00000000 pc=10010ee50...10010efa4
  Format:       DWARF32
  DW_CFA_advance_loc: 16
  DW_CFA_def_cfa_offset: +96
  DW_CFA_offset: reg30 -8
  DW_CFA_offset: reg29 -16
  DW_CFA_offset: reg19 -24
  DW_CFA_offset: reg20 -32
  DW_CFA_offset: reg21 -40
  DW_CFA_offset: reg22 -48

  0x10010ee50: CFA=reg31
  0x10010ee60: CFA=reg31+96: reg19=[CFA-24], reg20=[CFA-32], reg21=[CFA-40], reg22=[CFA-48], reg29=[CFA-16], reg30=[CFA-8]

000086b0 0000001c 000086b4 FDE cie=00000000 pc=10040c420...10040c464
  Format:       DWARF32
  DW_CFA_advance_loc: 8
  DW_CFA_def_cfa_offset: +80
  DW_CFA_offset: reg30 -8
  DW_CFA_offset: reg29 -16

  0x10040c420: CFA=reg31
  0x10040c428: CFA=reg31+80: reg29=[CFA-16], reg30=[CFA-8]

000086d0 0000002c 000086d4 FDE cie=00000000 pc=10010f5d0...10010f728
  Format:       DWARF32
  DW_CFA_advance_loc: 20
  DW_CFA_def_cfa_offset: +160
  DW_CFA_offset: reg30 -8
  DW_CFA_offset: reg29 -16
  DW_CFA_offset: reg19 -24
  DW_CFA_offset: reg20 -32
  DW_CFA_offset: reg21 -40
  DW_CFA_offset: reg22 -48
  DW_CFA_offset: reg23 -56
  DW_CFA_offset: reg24 -64
  DW_CFA_nop:
  DW_CFA_nop:
  DW_CFA_nop:

  0x10010f5d0: CFA=reg31
  0x10010f5e4: CFA=reg31+160: reg19=[CFA-24], reg20=[CFA-32], reg21=[CFA-40], reg22=[CFA-48], reg23=[CFA-56], reg24=[CFA-64], reg29=[CFA-16], reg30=[CFA-8]

00008700 00000024 00008704 FDE cie=00000000 pc=10010f7c4...10010f8ec
  Format:       DWARF32
  DW_CFA_advance_loc: 16
  DW_CFA_def_cfa_offset: +96
  DW_CFA_offset: reg30 -8
  DW_CFA_offset: reg29 -16
  DW_CFA_offset: reg19 -24
  DW_CFA_offset: reg20 -32
  DW_CFA_offset: reg21 -40
  DW_CFA_offset: reg22 -48

  0x10010f7c4: CFA=reg31
  0x10010f7d4: CFA=reg31+96: reg19=[CFA-24], reg20=[CFA-32], reg21=[CFA-40], reg22=[CFA-48], reg29=[CFA-16], reg30=[CFA-8]

00008728 00000024 0000872c FDE cie=00000000 pc=10040c464...10040c514
  Format:       DWARF32
  DW_CFA_advance_loc: 12
  DW_CFA_def_cfa_offset: +80
  DW_CFA_offset: reg30 -8
  DW_CFA_offset: reg29 -16
  DW_CFA_offset: reg19 -24
  DW_CFA_offset: reg20 -32
  DW_CFA_nop:
  DW_CFA_nop:
  DW_CFA_nop:
  DW_CFA_nop:

  0x10040c464: CFA=reg31
  0x10040c470: CFA=reg31+80: reg19=[CFA-24], reg20=[CFA-32], reg29=[CFA-16], reg30=[CFA-8]

00008750 00000024 00008754 FDE cie=00000000 pc=10010f904...10010f978
  Format:       DWARF32
  DW_CFA_advance_loc: 8
  DW_CFA_def_cfa_offset: +32
  DW_CFA_offset: reg30 -8
  DW_CFA_offset: reg29 -16
  DW_CFA_offset: reg19 -24
  DW_CFA_offset: reg20 -32
  DW_CFA_nop:
  DW_CFA_nop:
  DW_CFA_nop:
  DW_CFA_nop:

  0x10010f904: CFA=reg31
  0x10010f90c: CFA=reg31+32: reg19=[CFA-24], reg20=[CFA-32], reg29=[CFA-16], reg30=[CFA-8]

00008778 00000024 0000877c FDE cie=00000000 pc=10040c514...10040c5ec
  Format:       DWARF32
  DW_CFA_advance_loc: 12
  DW_CFA_def_cfa_offset: +80
  DW_CFA_offset: reg30 -8
  DW_CFA_offset: reg29 -16
  DW_CFA_offset: reg19 -24
  DW_CFA_offset: reg20 -32
  DW_CFA_nop:
  DW_CFA_nop:
  DW_CFA_nop:
  DW_CFA_nop:

  0x10040c514: CFA=reg31
  0x10040c520: CFA=reg31+80: reg19=[CFA-24], reg20=[CFA-32], reg29=[CFA-16], reg30=[CFA-8]

000087a0 0000002c 000087a4 FDE cie=00000000 pc=10010fc44...10010fd28
  Format:       DWARF32
  DW_CFA_advance_loc: 16
  DW_CFA_def_cfa_offset: +64
  DW_CFA_offset: reg30 -8
  DW_CFA_offset: reg29 -16
  DW_CFA_offset: reg19 -24
  DW_CFA_offset: reg20 -32
  DW_CFA_offset: reg21 -40
  DW_CFA_offset: reg22 -48
  DW_CFA_offset: reg23 -56
  DW_CFA_offset: reg24 -64
  DW_CFA_nop:
  DW_CFA_nop:
  DW_CFA_nop:
  DW_CFA_nop:

  0x10010fc44: CFA=reg31
  0x10010fc54: CFA=reg31+64: reg19=[CFA-24], reg20=[CFA-32], reg21=[CFA-40], reg22=[CFA-48], reg23=[CFA-56], reg24=[CFA-64], reg29=[CFA-16], reg30=[CFA-8]

000087d0 00000024 000087d4 FDE cie=00000000 pc=10010fd28...10010fd90
  Format:       DWARF32
  DW_CFA_advance_loc: 8
  DW_CFA_def_cfa_offset: +32
  DW_CFA_offset: reg30 -8
  DW_CFA_offset: reg29 -16
  DW_CFA_offset: reg19 -24
  DW_CFA_offset: reg20 -32
  DW_CFA_nop:
  DW_CFA_nop:
  DW_CFA_nop:
  DW_CFA_nop:

  0x10010fd28: CFA=reg31
  0x10010fd30: CFA=reg31+32: reg19=[CFA-24], reg20=[CFA-32], reg29=[CFA-16], reg30=[CFA-8]

000087f8 00000024 000087fc FDE cie=00000000 pc=10010fd90...10010fe84
  Format:       DWARF32
  DW_CFA_advance_loc: 8
  DW_CFA_def_cfa_offset: +32
  DW_CFA_offset: reg30 -8
  DW_CFA_offset: reg29 -16
  DW_CFA_offset: reg19 -24
  DW_CFA_offset: reg20 -32
  DW_CFA_nop:
  DW_CFA_nop:
  DW_CFA_nop:
  DW_CFA_nop:

  0x10010fd90: CFA=reg31
  0x10010fd98: CFA=reg31+32: reg19=[CFA-24], reg20=[CFA-32], reg29=[CFA-16], reg30=[CFA-8]

00008820 00000024 00008824 FDE cie=00000000 pc=10010fe84...10010fee4
  Format:       DWARF32
  DW_CFA_advance_loc: 8
  DW_CFA_def_cfa_offset: +32
  DW_CFA_offset: reg30 -8
  DW_CFA_offset: reg29 -16
  DW_CFA_offset: reg19 -24
  DW_CFA_offset: reg20 -32
  DW_CFA_nop:
  DW_CFA_nop:
  DW_CFA_nop:
  DW_CFA_nop:

  0x10010fe84: CFA=reg31
  0x10010fe8c: CFA=reg31+32: reg19=[CFA-24], reg20=[CFA-32], reg29=[CFA-16], reg30=[CFA-8]

00008848 00000024 0000884c FDE cie=00000000 pc=10010fee4...10010ff78
  Format:       DWARF32
  DW_CFA_advance_loc: 8
  DW_CFA_def_cfa_offset: +32
  DW_CFA_offset: reg30 -8
  DW_CFA_offset: reg29 -16
  DW_CFA_offset: reg19 -24
  DW_CFA_offset: reg20 -32
  DW_CFA_nop:
  DW_CFA_nop:
  DW_CFA_nop:
  DW_CFA_nop:

  0x10010fee4: CFA=reg31
  0x10010feec: CFA=reg31+32: reg19=[CFA-24], reg20=[CFA-32], reg29=[CFA-16], reg30=[CFA-8]

00008870 0000002c 00008874 FDE cie=00000000 pc=10010ff78...100110158
  Format:       DWARF32
  DW_CFA_advance_loc: 20
  DW_CFA_def_cfa_offset: +80
  DW_CFA_offset: reg30 -8
  DW_CFA_offset: reg29 -16
  DW_CFA_offset: reg19 -24
  DW_CFA_offset: reg20 -32
  DW_CFA_offset: reg21 -40
  DW_CFA_offset: reg22 -48
  DW_CFA_offset: reg23 -56
  DW_CFA_offset: reg24 -64
  DW_CFA_offset: reg25 -72
  DW_CFA_offset: reg26 -80

  0x10010ff78: CFA=reg31
  0x10010ff8c: CFA=reg31+80: reg19=[CFA-24], reg20=[CFA-32], reg21=[CFA-40], reg22=[CFA-48], reg23=[CFA-56], reg24=[CFA-64], reg25=[CFA-72], reg26=[CFA-80], reg29=[CFA-16], reg30=[CFA-8]

000088a0 00000024 000088a4 FDE cie=00000000 pc=100110158...1001101b8
  Format:       DWARF32
  DW_CFA_advance_loc: 8
  DW_CFA_def_cfa_offset: +32
  DW_CFA_offset: reg30 -8
  DW_CFA_offset: reg29 -16
  DW_CFA_offset: reg19 -24
  DW_CFA_offset: reg20 -32
  DW_CFA_nop:
  DW_CFA_nop:
  DW_CFA_nop:
  DW_CFA_nop:

  0x100110158: CFA=reg31
  0x100110160: CFA=reg31+32: reg19=[CFA-24], reg20=[CFA-32], reg29=[CFA-16], reg30=[CFA-8]

000088c8 00000024 000088cc FDE cie=00000000 pc=1001101b8...10011022c
  Format:       DWARF32
  DW_CFA_advance_loc: 8
  DW_CFA_def_cfa_offset: +32
  DW_CFA_offset: reg30 -8
  DW_CFA_offset: reg29 -16
  DW_CFA_offset: reg19 -24
  DW_CFA_offset: reg20 -32
  DW_CFA_nop:
  DW_CFA_nop:
  DW_CFA_nop:
  DW_CFA_nop:

  0x1001101b8: CFA=reg31
  0x1001101c0: CFA=reg31+32: reg19=[CFA-24], reg20=[CFA-32], reg29=[CFA-16], reg30=[CFA-8]

000088f0 0000002c 000088f4 FDE cie=00000000 pc=100110444...100110558
  Format:       DWARF32
  DW_CFA_advance_loc: 24
  DW_CFA_def_cfa_offset: +96
  DW_CFA_offset: reg30 -8
  DW_CFA_offset: reg29 -16
  DW_CFA_offset: reg19 -24
  DW_CFA_offset: reg20 -32
  DW_CFA_offset: reg21 -40
  DW_CFA_offset: reg22 -48
  DW_CFA_offset: reg23 -56
  DW_CFA_offset: reg24 -64
  DW_CFA_offset: reg25 -72
  DW_CFA_offset: reg26 -80

  0x100110444: CFA=reg31
  0x10011045c: CFA=reg31+96: reg19=[CFA-24], reg20=[CFA-32], reg21=[CFA-40], reg22=[CFA-48], reg23=[CFA-56], reg24=[CFA-64], reg25=[CFA-72], reg26=[CFA-80], reg29=[CFA-16], reg30=[CFA-8]

00008920 00000024 00008924 FDE cie=00000000 pc=100110c6c...100110cfc
  Format:       DWARF32
  DW_CFA_advance_loc: 12
  DW_CFA_def_cfa_offset: +48
  DW_CFA_offset: reg30 -8
  DW_CFA_offset: reg29 -16
  DW_CFA_offset: reg19 -24
  DW_CFA_offset: reg20 -32
  DW_CFA_offset: reg21 -40
  DW_CFA_offset: reg22 -48

  0x100110c6c: CFA=reg31
  0x100110c78: CFA=reg31+48: reg19=[CFA-24], reg20=[CFA-32], reg21=[CFA-40], reg22=[CFA-48], reg29=[CFA-16], reg30=[CFA-8]

00008948 0000002c 0000894c FDE cie=00000000 pc=10011d408...10011d530
  Format:       DWARF32
  DW_CFA_advance_loc: 16
  DW_CFA_def_cfa_offset: +64
  DW_CFA_offset: reg30 -8
  DW_CFA_offset: reg29 -16
  DW_CFA_offset: reg19 -24
  DW_CFA_offset: reg20 -32
  DW_CFA_offset: reg21 -40
  DW_CFA_offset: reg22 -48
  DW_CFA_offset: reg23 -56
  DW_CFA_offset: reg24 -64
  DW_CFA_nop:
  DW_CFA_nop:
  DW_CFA_nop:
  DW_CFA_nop:

  0x10011d408: CFA=reg31
  0x10011d418: CFA=reg31+64: reg19=[CFA-24], reg20=[CFA-32], reg21=[CFA-40], reg22=[CFA-48], reg23=[CFA-56], reg24=[CFA-64], reg29=[CFA-16], reg30=[CFA-8]

00008978 00000034 0000897c FDE cie=00000000 pc=10011ee38...10011f41c
  Format:       DWARF32
  DW_CFA_advance_loc: 28
  DW_CFA_def_cfa_offset: +208
  DW_CFA_offset: reg30 -8
  DW_CFA_offset: reg29 -16
  DW_CFA_offset: reg19 -24
  DW_CFA_offset: reg20 -32
  DW_CFA_offset: reg21 -40
  DW_CFA_offset: reg22 -48
  DW_CFA_offset: reg23 -56
  DW_CFA_offset: reg24 -64
  DW_CFA_offset: reg25 -72
  DW_CFA_offset: reg26 -80
  DW_CFA_offset: reg27 -88
  DW_CFA_offset: reg28 -96
  DW_CFA_nop:
  DW_CFA_nop:
  DW_CFA_nop:

  0x10011ee38: CFA=reg31
  0x10011ee54: CFA=reg31+208: reg19=[CFA-24], reg20=[CFA-32], reg21=[CFA-40], reg22=[CFA-48], reg23=[CFA-56], reg24=[CFA-64], reg25=[CFA-72], reg26=[CFA-80], reg27=[CFA-88], reg28=[CFA-96], reg29=[CFA-16], reg30=[CFA-8]

000089b0 00000034 000089b4 FDE cie=00000000 pc=10011f41c...100120258
  Format:       DWARF32
  DW_CFA_advance_loc: 28
  DW_CFA_def_cfa_offset: +288
  DW_CFA_offset: reg30 -8
  DW_CFA_offset: reg29 -16
  DW_CFA_offset: reg19 -24
  DW_CFA_offset: reg20 -32
  DW_CFA_offset: reg21 -40
  DW_CFA_offset: reg22 -48
  DW_CFA_offset: reg23 -56
  DW_CFA_offset: reg24 -64
  DW_CFA_offset: reg25 -72
  DW_CFA_offset: reg26 -80
  DW_CFA_offset: reg27 -88
  DW_CFA_offset: reg28 -96
  DW_CFA_nop:
  DW_CFA_nop:
  DW_CFA_nop:

  0x10011f41c: CFA=reg31
  0x10011f438: CFA=reg31+288: reg19=[CFA-24], reg20=[CFA-32], reg21=[CFA-40], reg22=[CFA-48], reg23=[CFA-56], reg24=[CFA-64], reg25=[CFA-72], reg26=[CFA-80], reg27=[CFA-88], reg28=[CFA-96], reg29=[CFA-16], reg30=[CFA-8]

000089e8 00000034 000089ec FDE cie=00000000 pc=100120258...1001207a8
  Format:       DWARF32
  DW_CFA_advance_loc: 28
  DW_CFA_def_cfa_offset: +272
  DW_CFA_offset: reg30 -8
  DW_CFA_offset: reg29 -16
  DW_CFA_offset: reg19 -24
  DW_CFA_offset: reg20 -32
  DW_CFA_offset: reg21 -40
  DW_CFA_offset: reg22 -48
  DW_CFA_offset: reg23 -56
  DW_CFA_offset: reg24 -64
  DW_CFA_offset: reg25 -72
  DW_CFA_offset: reg26 -80
  DW_CFA_offset: reg27 -88
  DW_CFA_offset: reg28 -96
  DW_CFA_nop:
  DW_CFA_nop:
  DW_CFA_nop:

  0x100120258: CFA=reg31
  0x100120274: CFA=reg31+272: reg19=[CFA-24], reg20=[CFA-32], reg21=[CFA-40], reg22=[CFA-48], reg23=[CFA-56], reg24=[CFA-64], reg25=[CFA-72], reg26=[CFA-80], reg27=[CFA-88], reg28=[CFA-96], reg29=[CFA-16], reg30=[CFA-8]

00008a20 00000034 00008a24 FDE cie=00000000 pc=1001207a8...10012159c
  Format:       DWARF32
  DW_CFA_advance_loc: 28
  DW_CFA_def_cfa_offset: +288
  DW_CFA_offset: reg30 -8
  DW_CFA_offset: reg29 -16
  DW_CFA_offset: reg19 -24
  DW_CFA_offset: reg20 -32
  DW_CFA_offset: reg21 -40
  DW_CFA_offset: reg22 -48
  DW_CFA_offset: reg23 -56
  DW_CFA_offset: reg24 -64
  DW_CFA_offset: reg25 -72
  DW_CFA_offset: reg26 -80
  DW_CFA_offset: reg27 -88
  DW_CFA_offset: reg28 -96
  DW_CFA_nop:
  DW_CFA_nop:
  DW_CFA_nop:

  0x1001207a8: CFA=reg31
  0x1001207c4: CFA=reg31+288: reg19=[CFA-24], reg20=[CFA-32], reg21=[CFA-40], reg22=[CFA-48], reg23=[CFA-56], reg24=[CFA-64], reg25=[CFA-72], reg26=[CFA-80], reg27=[CFA-88], reg28=[CFA-96], reg29=[CFA-16], reg30=[CFA-8]

00008a58 00000034 00008a5c FDE cie=00000000 pc=1001216c4...100121b34
  Format:       DWARF32
  DW_CFA_advance_loc: 28
  DW_CFA_def_cfa_offset: +288
  DW_CFA_offset: reg30 -8
  DW_CFA_offset: reg29 -16
  DW_CFA_offset: reg19 -24
  DW_CFA_offset: reg20 -32
  DW_CFA_offset: reg21 -40
  DW_CFA_offset: reg22 -48
  DW_CFA_offset: reg23 -56
  DW_CFA_offset: reg24 -64
  DW_CFA_offset: reg25 -72
  DW_CFA_offset: reg26 -80
  DW_CFA_offset: reg27 -88
  DW_CFA_offset: reg28 -96
  DW_CFA_nop:
  DW_CFA_nop:
  DW_CFA_nop:

  0x1001216c4: CFA=reg31
  0x1001216e0: CFA=reg31+288: reg19=[CFA-24], reg20=[CFA-32], reg21=[CFA-40], reg22=[CFA-48], reg23=[CFA-56], reg24=[CFA-64], reg25=[CFA-72], reg26=[CFA-80], reg27=[CFA-88], reg28=[CFA-96], reg29=[CFA-16], reg30=[CFA-8]

00008a90 00000034 00008a94 FDE cie=00000000 pc=100121b34...100121fa4
  Format:       DWARF32
  DW_CFA_advance_loc: 28
  DW_CFA_def_cfa_offset: +288
  DW_CFA_offset: reg30 -8
  DW_CFA_offset: reg29 -16
  DW_CFA_offset: reg19 -24
  DW_CFA_offset: reg20 -32
  DW_CFA_offset: reg21 -40
  DW_CFA_offset: reg22 -48
  DW_CFA_offset: reg23 -56
  DW_CFA_offset: reg24 -64
  DW_CFA_offset: reg25 -72
  DW_CFA_offset: reg26 -80
  DW_CFA_offset: reg27 -88
  DW_CFA_offset: reg28 -96
  DW_CFA_nop:
  DW_CFA_nop:
  DW_CFA_nop:

  0x100121b34: CFA=reg31
  0x100121b50: CFA=reg31+288: reg19=[CFA-24], reg20=[CFA-32], reg21=[CFA-40], reg22=[CFA-48], reg23=[CFA-56], reg24=[CFA-64], reg25=[CFA-72], reg26=[CFA-80], reg27=[CFA-88], reg28=[CFA-96], reg29=[CFA-16], reg30=[CFA-8]

00008ac8 00000024 00008acc FDE cie=00000000 pc=100121fa4...1001226a0
  Format:       DWARF32
  DW_CFA_advance_loc: 12
  DW_CFA_def_cfa_offset: +48
  DW_CFA_offset: reg30 -8
  DW_CFA_offset: reg29 -16
  DW_CFA_offset: reg19 -24
  DW_CFA_offset: reg20 -32
  DW_CFA_offset: reg21 -40
  DW_CFA_offset: reg22 -48

  0x100121fa4: CFA=reg31
  0x100121fb0: CFA=reg31+48: reg19=[CFA-24], reg20=[CFA-32], reg21=[CFA-40], reg22=[CFA-48], reg29=[CFA-16], reg30=[CFA-8]

00008af0 00000024 00008af4 FDE cie=00000000 pc=1001226a0...100122794
  Format:       DWARF32
  DW_CFA_advance_loc: 8
  DW_CFA_def_cfa_offset: +32
  DW_CFA_offset: reg30 -8
  DW_CFA_offset: reg29 -16
  DW_CFA_offset: reg19 -24
  DW_CFA_offset: reg20 -32
  DW_CFA_nop:
  DW_CFA_nop:
  DW_CFA_nop:
  DW_CFA_nop:

  0x1001226a0: CFA=reg31
  0x1001226a8: CFA=reg31+32: reg19=[CFA-24], reg20=[CFA-32], reg29=[CFA-16], reg30=[CFA-8]

00008b18 00000024 00008b1c FDE cie=00000000 pc=100122794...100122cf0
  Format:       DWARF32
  DW_CFA_advance_loc: 12
  DW_CFA_def_cfa_offset: +32
  DW_CFA_offset: reg30 -8
  DW_CFA_offset: reg29 -16
  DW_CFA_offset: reg19 -24
  DW_CFA_offset: reg20 -32
  DW_CFA_nop:
  DW_CFA_nop:
  DW_CFA_nop:
  DW_CFA_nop:

  0x100122794: CFA=reg31
  0x1001227a0: CFA=reg31+32: reg19=[CFA-24], reg20=[CFA-32], reg29=[CFA-16], reg30=[CFA-8]

00008b40 00000024 00008b44 FDE cie=00000000 pc=100122cf0...100122de4
  Format:       DWARF32
  DW_CFA_advance_loc: 8
  DW_CFA_def_cfa_offset: +32
  DW_CFA_offset: reg30 -8
  DW_CFA_offset: reg29 -16
  DW_CFA_offset: reg19 -24
  DW_CFA_offset: reg20 -32
  DW_CFA_nop:
  DW_CFA_nop:
  DW_CFA_nop:
  DW_CFA_nop:

  0x100122cf0: CFA=reg31
  0x100122cf8: CFA=reg31+32: reg19=[CFA-24], reg20=[CFA-32], reg29=[CFA-16], reg30=[CFA-8]

00008b68 0000001c 00008b6c FDE cie=00000000 pc=100122de4...100122e34
  Format:       DWARF32
  DW_CFA_advance_loc: 4
  DW_CFA_def_cfa_offset: +16
  DW_CFA_offset: reg30 -8
  DW_CFA_offset: reg29 -16

  0x100122de4: CFA=reg31
  0x100122de8: CFA=reg31+16: reg29=[CFA-16], reg30=[CFA-8]

00008b88 00000024 00008b8c FDE cie=00000000 pc=100122ff8...10012307c
  Format:       DWARF32
  DW_CFA_advance_loc: 8
  DW_CFA_def_cfa_offset: +32
  DW_CFA_offset: reg30 -8
  DW_CFA_offset: reg29 -16
  DW_CFA_offset: reg19 -24
  DW_CFA_offset: reg20 -32
  DW_CFA_nop:
  DW_CFA_nop:
  DW_CFA_nop:
  DW_CFA_nop:

  0x100122ff8: CFA=reg31
  0x100123000: CFA=reg31+32: reg19=[CFA-24], reg20=[CFA-32], reg29=[CFA-16], reg30=[CFA-8]

00008bb0 00000024 00008bb4 FDE cie=00000000 pc=100123444...1001234d4
  Format:       DWARF32
  DW_CFA_advance_loc: 12
  DW_CFA_def_cfa_offset: +48
  DW_CFA_offset: reg30 -8
  DW_CFA_offset: reg29 -16
  DW_CFA_offset: reg19 -24
  DW_CFA_offset: reg20 -32
  DW_CFA_offset: reg21 -40
  DW_CFA_offset: reg22 -48

  0x100123444: CFA=reg31
  0x100123450: CFA=reg31+48: reg19=[CFA-24], reg20=[CFA-32], reg21=[CFA-40], reg22=[CFA-48], reg29=[CFA-16], reg30=[CFA-8]

00008bd8 0000001c 00008bdc FDE cie=00000000 pc=10040c760...10040c7a0
  Format:       DWARF32
  DW_CFA_advance_loc: 8
  DW_CFA_def_cfa_offset: +80
  DW_CFA_offset: reg30 -8
  DW_CFA_offset: reg29 -16

  0x10040c760: CFA=reg31
  0x10040c768: CFA=reg31+80: reg29=[CFA-16], reg30=[CFA-8]

00008bf8 0000001c 00008bfc FDE cie=00000000 pc=100123d3c...100123e70
  Format:       DWARF32
  DW_CFA_advance_loc: 8
  DW_CFA_def_cfa_offset: +32
  DW_CFA_offset: reg30 -8
  DW_CFA_offset: reg29 -16

  0x100123d3c: CFA=reg31
  0x100123d44: CFA=reg31+32: reg29=[CFA-16], reg30=[CFA-8]

00008c18 0000002c 00008c1c FDE cie=00000000 pc=100125224...1001253fc
  Format:       DWARF32
  DW_CFA_advance_loc: 16
  DW_CFA_def_cfa_offset: +64
  DW_CFA_offset: reg30 -8
  DW_CFA_offset: reg29 -16
  DW_CFA_offset: reg19 -24
  DW_CFA_offset: reg20 -32
  DW_CFA_offset: reg21 -40
  DW_CFA_offset: reg22 -48
  DW_CFA_offset: reg23 -56
  DW_CFA_offset: reg24 -64
  DW_CFA_nop:
  DW_CFA_nop:
  DW_CFA_nop:
  DW_CFA_nop:

  0x100125224: CFA=reg31
  0x100125234: CFA=reg31+64: reg19=[CFA-24], reg20=[CFA-32], reg21=[CFA-40], reg22=[CFA-48], reg23=[CFA-56], reg24=[CFA-64], reg29=[CFA-16], reg30=[CFA-8]

00008c48 00000034 00008c4c FDE cie=00000000 pc=1001253fc...100125ad4
  Format:       DWARF32
  DW_CFA_advance_loc: 28
  DW_CFA_def_cfa_offset: +512
  DW_CFA_offset: reg30 -8
  DW_CFA_offset: reg29 -16
  DW_CFA_offset: reg19 -24
  DW_CFA_offset: reg20 -32
  DW_CFA_offset: reg21 -40
  DW_CFA_offset: reg22 -48
  DW_CFA_offset: reg23 -56
  DW_CFA_offset: reg24 -64
  DW_CFA_offset: reg25 -72
  DW_CFA_offset: reg26 -80
  DW_CFA_offset: reg27 -88
  DW_CFA_offset: reg28 -96
  DW_CFA_nop:
  DW_CFA_nop:
  DW_CFA_nop:

  0x1001253fc: CFA=reg31
  0x100125418: CFA=reg31+512: reg19=[CFA-24], reg20=[CFA-32], reg21=[CFA-40], reg22=[CFA-48], reg23=[CFA-56], reg24=[CFA-64], reg25=[CFA-72], reg26=[CFA-80], reg27=[CFA-88], reg28=[CFA-96], reg29=[CFA-16], reg30=[CFA-8]

00008c80 00000024 00008c84 FDE cie=00000000 pc=100125ad4...100125b4c
  Format:       DWARF32
  DW_CFA_advance_loc: 8
  DW_CFA_def_cfa_offset: +32
  DW_CFA_offset: reg30 -8
  DW_CFA_offset: reg29 -16
  DW_CFA_offset: reg19 -24
  DW_CFA_offset: reg20 -32
  DW_CFA_nop:
  DW_CFA_nop:
  DW_CFA_nop:
  DW_CFA_nop:

  0x100125ad4: CFA=reg31
  0x100125adc: CFA=reg31+32: reg19=[CFA-24], reg20=[CFA-32], reg29=[CFA-16], reg30=[CFA-8]

00008ca8 00000024 00008cac FDE cie=00000000 pc=10040c7a0...10040c878
  Format:       DWARF32
  DW_CFA_advance_loc: 12
  DW_CFA_def_cfa_offset: +80
  DW_CFA_offset: reg30 -8
  DW_CFA_offset: reg29 -16
  DW_CFA_offset: reg19 -24
  DW_CFA_offset: reg20 -32
  DW_CFA_nop:
  DW_CFA_nop:
  DW_CFA_nop:
  DW_CFA_nop:

  0x10040c7a0: CFA=reg31
  0x10040c7ac: CFA=reg31+80: reg19=[CFA-24], reg20=[CFA-32], reg29=[CFA-16], reg30=[CFA-8]

00008cd0 0000001c 00008cd4 FDE cie=00000000 pc=10040c878...10040c8b8
  Format:       DWARF32
  DW_CFA_advance_loc: 8
  DW_CFA_def_cfa_offset: +80
  DW_CFA_offset: reg30 -8
  DW_CFA_offset: reg29 -16

  0x10040c878: CFA=reg31
  0x10040c880: CFA=reg31+80: reg29=[CFA-16], reg30=[CFA-8]

00008cf0 0000002c 00008cf4 FDE cie=00000000 pc=100129114...10012924c
  Format:       DWARF32
  DW_CFA_advance_loc: 20
  DW_CFA_def_cfa_offset: +112
  DW_CFA_offset: reg30 -8
  DW_CFA_offset: reg29 -16
  DW_CFA_offset: reg19 -24
  DW_CFA_offset: reg20 -32
  DW_CFA_offset: reg21 -40
  DW_CFA_offset: reg22 -48
  DW_CFA_offset: reg23 -56
  DW_CFA_offset: reg24 -64
  DW_CFA_nop:
  DW_CFA_nop:
  DW_CFA_nop:
  DW_CFA_nop:

  0x100129114: CFA=reg31
  0x100129128: CFA=reg31+112: reg19=[CFA-24], reg20=[CFA-32], reg21=[CFA-40], reg22=[CFA-48], reg23=[CFA-56], reg24=[CFA-64], reg29=[CFA-16], reg30=[CFA-8]

00008d20 00000024 00008d24 FDE cie=00000000 pc=10012a098...10012a22c
  Format:       DWARF32
  DW_CFA_advance_loc: 12
  DW_CFA_def_cfa_offset: +48
  DW_CFA_offset: reg30 -8
  DW_CFA_offset: reg29 -16
  DW_CFA_offset: reg19 -24
  DW_CFA_offset: reg20 -32
  DW_CFA_offset: reg21 -40
  DW_CFA_offset: reg22 -48

  0x10012a098: CFA=reg31
  0x10012a0a4: CFA=reg31+48: reg19=[CFA-24], reg20=[CFA-32], reg21=[CFA-40], reg22=[CFA-48], reg29=[CFA-16], reg30=[CFA-8]

00008d48 00000024 00008d4c FDE cie=00000000 pc=10040c8b8...10040c98c
  Format:       DWARF32
  DW_CFA_advance_loc: 12
  DW_CFA_def_cfa_offset: +80
  DW_CFA_offset: reg30 -8
  DW_CFA_offset: reg29 -16
  DW_CFA_offset: reg19 -24
  DW_CFA_offset: reg20 -32
  DW_CFA_nop:
  DW_CFA_nop:
  DW_CFA_nop:
  DW_CFA_nop:

  0x10040c8b8: CFA=reg31
  0x10040c8c4: CFA=reg31+80: reg19=[CFA-24], reg20=[CFA-32], reg29=[CFA-16], reg30=[CFA-8]

00008d70 0000002c 00008d74 FDE cie=00000000 pc=10012a678...10012aabc
  Format:       DWARF32
  DW_CFA_advance_loc: 20
  DW_CFA_def_cfa_offset: +144
  DW_CFA_offset: reg30 -8
  DW_CFA_offset: reg29 -16
  DW_CFA_offset: reg19 -24
  DW_CFA_offset: reg20 -32
  DW_CFA_offset: reg21 -40
  DW_CFA_offset: reg22 -48
  DW_CFA_offset: reg23 -56
  DW_CFA_offset: reg24 -64
  DW_CFA_nop:
  DW_CFA_nop:
  DW_CFA_nop:

  0x10012a678: CFA=reg31
  0x10012a68c: CFA=reg31+144: reg19=[CFA-24], reg20=[CFA-32], reg21=[CFA-40], reg22=[CFA-48], reg23=[CFA-56], reg24=[CFA-64], reg29=[CFA-16], reg30=[CFA-8]

00008da0 00000024 00008da4 FDE cie=00000000 pc=10040c98c...10040ca64
  Format:       DWARF32
  DW_CFA_advance_loc: 12
  DW_CFA_def_cfa_offset: +80
  DW_CFA_offset: reg30 -8
  DW_CFA_offset: reg29 -16
  DW_CFA_offset: reg19 -24
  DW_CFA_offset: reg20 -32
  DW_CFA_nop:
  DW_CFA_nop:
  DW_CFA_nop:
  DW_CFA_nop:

  0x10040c98c: CFA=reg31
  0x10040c998: CFA=reg31+80: reg19=[CFA-24], reg20=[CFA-32], reg29=[CFA-16], reg30=[CFA-8]

00008dc8 00000024 00008dcc FDE cie=00000000 pc=10040ca64...10040cb38
  Format:       DWARF32
  DW_CFA_advance_loc: 12
  DW_CFA_def_cfa_offset: +80
  DW_CFA_offset: reg30 -8
  DW_CFA_offset: reg29 -16
  DW_CFA_offset: reg19 -24
  DW_CFA_offset: reg20 -32
  DW_CFA_nop:
  DW_CFA_nop:
  DW_CFA_nop:
  DW_CFA_nop:

  0x10040ca64: CFA=reg31
  0x10040ca70: CFA=reg31+80: reg19=[CFA-24], reg20=[CFA-32], reg29=[CFA-16], reg30=[CFA-8]

00008df0 0000002c 00008df4 FDE cie=00000000 pc=10012c2f0...10012c3d4
  Format:       DWARF32
  DW_CFA_advance_loc: 16
  DW_CFA_def_cfa_offset: +224
  DW_CFA_offset: reg30 -8
  DW_CFA_offset: reg29 -16
  DW_CFA_offset: reg19 -24
  DW_CFA_offset: reg20 -32
  DW_CFA_offset: reg21 -40
  DW_CFA_offset: reg22 -48
  DW_CFA_nop:
  DW_CFA_nop:
  DW_CFA_nop:
  DW_CFA_nop:
  DW_CFA_nop:
  DW_CFA_nop:
  DW_CFA_nop:

  0x10012c2f0: CFA=reg31
  0x10012c300: CFA=reg31+224: reg19=[CFA-24], reg20=[CFA-32], reg21=[CFA-40], reg22=[CFA-48], reg29=[CFA-16], reg30=[CFA-8]

00008e20 0000001c 00008e24 FDE cie=00000000 pc=10040cb38...10040cb50
  Format:       DWARF32
  DW_CFA_advance_loc: 8
  DW_CFA_def_cfa_offset: +48
  DW_CFA_offset: reg30 -8
  DW_CFA_offset: reg29 -16

  0x10040cb38: CFA=reg31
  0x10040cb40: CFA=reg31+48: reg29=[CFA-16], reg30=[CFA-8]

00008e40 0000001c 00008e44 FDE cie=00000000 pc=10012c810...10012c830
  Format:       DWARF32
  DW_CFA_advance_loc: 8
  DW_CFA_def_cfa_offset: +48
  DW_CFA_offset: reg30 -8
  DW_CFA_offset: reg29 -16

  0x10012c810: CFA=reg31
  0x10012c818: CFA=reg31+48: reg29=[CFA-16], reg30=[CFA-8]

00008e60 0000001c 00008e64 FDE cie=00000000 pc=10012c830...10012c858
  Format:       DWARF32
  DW_CFA_advance_loc: 8
  DW_CFA_def_cfa_offset: +32
  DW_CFA_offset: reg30 -8
  DW_CFA_offset: reg29 -16

  0x10012c830: CFA=reg31
  0x10012c838: CFA=reg31+32: reg29=[CFA-16], reg30=[CFA-8]

00008e80 00000024 00008e84 FDE cie=00000000 pc=10012c858...10012c8a0
  Format:       DWARF32
  DW_CFA_advance_loc: 8
  DW_CFA_def_cfa_offset: +32
  DW_CFA_offset: reg30 -8
  DW_CFA_offset: reg29 -16
  DW_CFA_offset: reg19 -24
  DW_CFA_offset: reg20 -32
  DW_CFA_nop:
  DW_CFA_nop:
  DW_CFA_nop:
  DW_CFA_nop:

  0x10012c858: CFA=reg31
  0x10012c860: CFA=reg31+32: reg19=[CFA-24], reg20=[CFA-32], reg29=[CFA-16], reg30=[CFA-8]

00008ea8 0000001c 00008eac FDE cie=00000000 pc=10012c8a0...10012c8c0
  Format:       DWARF32
  DW_CFA_advance_loc: 4
  DW_CFA_def_cfa_offset: +16
  DW_CFA_offset: reg30 -8
  DW_CFA_offset: reg29 -16

  0x10012c8a0: CFA=reg31
  0x10012c8a4: CFA=reg31+16: reg29=[CFA-16], reg30=[CFA-8]

00008ec8 00000034 00008ecc FDE cie=00000000 pc=10012ca40...10012cd48
  Format:       DWARF32
  DW_CFA_advance_loc: 24
  DW_CFA_def_cfa_offset: +96
  DW_CFA_offset: reg30 -8
  DW_CFA_offset: reg29 -16
  DW_CFA_offset: reg19 -24
  DW_CFA_offset: reg20 -32
  DW_CFA_offset: reg21 -40
  DW_CFA_offset: reg22 -48
  DW_CFA_offset: reg23 -56
  DW_CFA_offset: reg24 -64
  DW_CFA_offset: reg25 -72
  DW_CFA_offset: reg26 -80
  DW_CFA_offset: reg27 -88
  DW_CFA_offset: reg28 -96
  DW_CFA_nop:
  DW_CFA_nop:
  DW_CFA_nop:
  DW_CFA_nop:

  0x10012ca40: CFA=reg31
  0x10012ca58: CFA=reg31+96: reg19=[CFA-24], reg20=[CFA-32], reg21=[CFA-40], reg22=[CFA-48], reg23=[CFA-56], reg24=[CFA-64], reg25=[CFA-72], reg26=[CFA-80], reg27=[CFA-88], reg28=[CFA-96], reg29=[CFA-16], reg30=[CFA-8]

00008f00 00000024 00008f04 FDE cie=00000000 pc=10040cb50...10040cc24
  Format:       DWARF32
  DW_CFA_advance_loc: 12
  DW_CFA_def_cfa_offset: +80
  DW_CFA_offset: reg30 -8
  DW_CFA_offset: reg29 -16
  DW_CFA_offset: reg19 -24
  DW_CFA_offset: reg20 -32
  DW_CFA_nop:
  DW_CFA_nop:
  DW_CFA_nop:
  DW_CFA_nop:

  0x10040cb50: CFA=reg31
  0x10040cb5c: CFA=reg31+80: reg19=[CFA-24], reg20=[CFA-32], reg29=[CFA-16], reg30=[CFA-8]

00008f28 0000002c 00008f2c FDE cie=00000000 pc=10012e900...10012eac8
  Format:       DWARF32
  DW_CFA_advance_loc: 24
  DW_CFA_def_cfa_offset: +112
  DW_CFA_offset: reg30 -8
  DW_CFA_offset: reg29 -16
  DW_CFA_offset: reg19 -24
  DW_CFA_offset: reg20 -32
  DW_CFA_offset: reg21 -40
  DW_CFA_offset: reg22 -48
  DW_CFA_offset: reg23 -56
  DW_CFA_offset: reg24 -64
  DW_CFA_offset: reg25 -72
  DW_CFA_offset: reg26 -80

  0x10012e900: CFA=reg31
  0x10012e918: CFA=reg31+112: reg19=[CFA-24], reg20=[CFA-32], reg21=[CFA-40], reg22=[CFA-48], reg23=[CFA-56], reg24=[CFA-64], reg25=[CFA-72], reg26=[CFA-80], reg29=[CFA-16], reg30=[CFA-8]

00008f58 00000024 00008f5c FDE cie=00000000 pc=10040cc24...10040ccf4
  Format:       DWARF32
  DW_CFA_advance_loc: 12
  DW_CFA_def_cfa_offset: +80
  DW_CFA_offset: reg30 -8
  DW_CFA_offset: reg29 -16
  DW_CFA_offset: reg19 -24
  DW_CFA_offset: reg20 -32
  DW_CFA_nop:
  DW_CFA_nop:
  DW_CFA_nop:
  DW_CFA_nop:

  0x10040cc24: CFA=reg31
  0x10040cc30: CFA=reg31+80: reg19=[CFA-24], reg20=[CFA-32], reg29=[CFA-16], reg30=[CFA-8]

00008f80 0000002c 00008f84 FDE cie=00000000 pc=10012ead8...10012ed0c
  Format:       DWARF32
  DW_CFA_advance_loc: 20
  DW_CFA_def_cfa_offset: +96
  DW_CFA_offset: reg30 -8
  DW_CFA_offset: reg29 -16
  DW_CFA_offset: reg19 -24
  DW_CFA_offset: reg20 -32
  DW_CFA_offset: reg21 -40
  DW_CFA_offset: reg22 -48
  DW_CFA_offset: reg23 -56
  DW_CFA_offset: reg24 -64
  DW_CFA_nop:
  DW_CFA_nop:
  DW_CFA_nop:
  DW_CFA_nop:

  0x10012ead8: CFA=reg31
  0x10012eaec: CFA=reg31+96: reg19=[CFA-24], reg20=[CFA-32], reg21=[CFA-40], reg22=[CFA-48], reg23=[CFA-56], reg24=[CFA-64], reg29=[CFA-16], reg30=[CFA-8]

00008fb0 0000002c 00008fb4 FDE cie=00000000 pc=10012ed0c...10012eec0
  Format:       DWARF32
  DW_CFA_advance_loc: 20
  DW_CFA_def_cfa_offset: +112
  DW_CFA_offset: reg30 -8
  DW_CFA_offset: reg29 -16
  DW_CFA_offset: reg19 -24
  DW_CFA_offset: reg20 -32
  DW_CFA_offset: reg21 -40
  DW_CFA_offset: reg22 -48
  DW_CFA_offset: reg23 -56
  DW_CFA_offset: reg24 -64
  DW_CFA_nop:
  DW_CFA_nop:
  DW_CFA_nop:
  DW_CFA_nop:

  0x10012ed0c: CFA=reg31
  0x10012ed20: CFA=reg31+112: reg19=[CFA-24], reg20=[CFA-32], reg21=[CFA-40], reg22=[CFA-48], reg23=[CFA-56], reg24=[CFA-64], reg29=[CFA-16], reg30=[CFA-8]

00008fe0 00000034 00008fe4 FDE cie=00000000 pc=10012fd7c...10012ff30
  Format:       DWARF32
  DW_CFA_advance_loc: 24
  DW_CFA_def_cfa_offset: +176
  DW_CFA_offset: reg30 -8
  DW_CFA_offset: reg29 -16
  DW_CFA_offset: reg19 -24
  DW_CFA_offset: reg20 -32
  DW_CFA_offset: reg21 -40
  DW_CFA_offset: reg22 -48
  DW_CFA_offset: reg23 -56
  DW_CFA_offset: reg24 -64
  DW_CFA_offset: reg25 -72
  DW_CFA_offset: reg26 -80
  DW_CFA_nop:
  DW_CFA_nop:
  DW_CFA_nop:
  DW_CFA_nop:
  DW_CFA_nop:
  DW_CFA_nop:
  DW_CFA_nop:

  0x10012fd7c: CFA=reg31
  0x10012fd94: CFA=reg31+176: reg19=[CFA-24], reg20=[CFA-32], reg21=[CFA-40], reg22=[CFA-48], reg23=[CFA-56], reg24=[CFA-64], reg25=[CFA-72], reg26=[CFA-80], reg29=[CFA-16], reg30=[CFA-8]

00009018 0000002c 0000901c FDE cie=00000000 pc=100131a0c...100131b50
  Format:       DWARF32
  DW_CFA_advance_loc: 16
  DW_CFA_def_cfa_offset: +544
  DW_CFA_offset: reg30 -8
  DW_CFA_offset: reg29 -16
  DW_CFA_offset: reg19 -24
  DW_CFA_offset: reg20 -32
  DW_CFA_offset: reg21 -40
  DW_CFA_offset: reg22 -48
  DW_CFA_nop:
  DW_CFA_nop:
  DW_CFA_nop:
  DW_CFA_nop:
  DW_CFA_nop:
  DW_CFA_nop:
  DW_CFA_nop:

  0x100131a0c: CFA=reg31
  0x100131a1c: CFA=reg31+544: reg19=[CFA-24], reg20=[CFA-32], reg21=[CFA-40], reg22=[CFA-48], reg29=[CFA-16], reg30=[CFA-8]

00009048 0000002c 0000904c FDE cie=00000000 pc=100131b50...100131cac
  Format:       DWARF32
  DW_CFA_advance_loc: 20
  DW_CFA_def_cfa_offset: +112
  DW_CFA_offset: reg30 -8
  DW_CFA_offset: reg29 -16
  DW_CFA_offset: reg19 -24
  DW_CFA_offset: reg20 -32
  DW_CFA_offset: reg21 -40
  DW_CFA_offset: reg22 -48
  DW_CFA_offset: reg23 -56
  DW_CFA_offset: reg24 -64
  DW_CFA_nop:
  DW_CFA_nop:
  DW_CFA_nop:
  DW_CFA_nop:

  0x100131b50: CFA=reg31
  0x100131b64: CFA=reg31+112: reg19=[CFA-24], reg20=[CFA-32], reg21=[CFA-40], reg22=[CFA-48], reg23=[CFA-56], reg24=[CFA-64], reg29=[CFA-16], reg30=[CFA-8]

00009078 00000024 0000907c FDE cie=00000000 pc=100131cac...100131d10
  Format:       DWARF32
  DW_CFA_advance_loc: 8
  DW_CFA_def_cfa_offset: +32
  DW_CFA_offset: reg30 -8
  DW_CFA_offset: reg29 -16
  DW_CFA_offset: reg19 -24
  DW_CFA_offset: reg20 -32
  DW_CFA_nop:
  DW_CFA_nop:
  DW_CFA_nop:
  DW_CFA_nop:

  0x100131cac: CFA=reg31
  0x100131cb4: CFA=reg31+32: reg19=[CFA-24], reg20=[CFA-32], reg29=[CFA-16], reg30=[CFA-8]

000090a0 0000001c 000090a4 FDE cie=00000000 pc=100131d3c...100131d7c
  Format:       DWARF32
  DW_CFA_advance_loc: 8
  DW_CFA_def_cfa_offset: +80
  DW_CFA_offset: reg30 -8
  DW_CFA_offset: reg29 -16

  0x100131d3c: CFA=reg31
  0x100131d44: CFA=reg31+80: reg29=[CFA-16], reg30=[CFA-8]

000090c0 00000024 000090c4 FDE cie=00000000 pc=100131d9c...100131e64
  Format:       DWARF32
  DW_CFA_advance_loc: 12
  DW_CFA_def_cfa_offset: +48
  DW_CFA_offset: reg30 -8
  DW_CFA_offset: reg29 -16
  DW_CFA_offset: reg19 -24
  DW_CFA_offset: reg20 -32
  DW_CFA_offset: reg21 -40
  DW_CFA_offset: reg22 -48

  0x100131d9c: CFA=reg31
  0x100131da8: CFA=reg31+48: reg19=[CFA-24], reg20=[CFA-32], reg21=[CFA-40], reg22=[CFA-48], reg29=[CFA-16], reg30=[CFA-8]

000090e8 0000001c 000090ec FDE cie=00000000 pc=100132874...100132b18
  Format:       DWARF32
  DW_CFA_advance_loc: 8
  DW_CFA_def_cfa_offset: +96
  DW_CFA_offset: reg30 -8
  DW_CFA_offset: reg29 -16

  0x100132874: CFA=reg31
  0x10013287c: CFA=reg31+96: reg29=[CFA-16], reg30=[CFA-8]

00009108 0000001c 0000910c FDE cie=00000000 pc=100132b18...100132b54
  Format:       DWARF32
  DW_CFA_advance_loc: 8
  DW_CFA_def_cfa_offset: +80
  DW_CFA_offset: reg30 -8
  DW_CFA_offset: reg29 -16

  0x100132b18: CFA=reg31
  0x100132b20: CFA=reg31+80: reg29=[CFA-16], reg30=[CFA-8]

00009128 0000001c 0000912c FDE cie=00000000 pc=100132b54...100132b94
  Format:       DWARF32
  DW_CFA_advance_loc: 8
  DW_CFA_def_cfa_offset: +80
  DW_CFA_offset: reg30 -8
  DW_CFA_offset: reg29 -16

  0x100132b54: CFA=reg31
  0x100132b5c: CFA=reg31+80: reg29=[CFA-16], reg30=[CFA-8]

00009148 00000024 0000914c FDE cie=00000000 pc=100132e68...100132f80
  Format:       DWARF32
  DW_CFA_advance_loc: 12
  DW_CFA_def_cfa_offset: +80
  DW_CFA_offset: reg30 -8
  DW_CFA_offset: reg29 -16
  DW_CFA_offset: reg19 -24
  DW_CFA_offset: reg20 -32
  DW_CFA_nop:
  DW_CFA_nop:
  DW_CFA_nop:
  DW_CFA_nop:

  0x100132e68: CFA=reg31
  0x100132e74: CFA=reg31+80: reg19=[CFA-24], reg20=[CFA-32], reg29=[CFA-16], reg30=[CFA-8]

00009170 00000024 00009174 FDE cie=00000000 pc=10040ccf4...10040cdbc
  Format:       DWARF32
  DW_CFA_advance_loc: 12
  DW_CFA_def_cfa_offset: +80
  DW_CFA_offset: reg30 -8
  DW_CFA_offset: reg29 -16
  DW_CFA_offset: reg19 -24
  DW_CFA_offset: reg20 -32
  DW_CFA_nop:
  DW_CFA_nop:
  DW_CFA_nop:
  DW_CFA_nop:

  0x10040ccf4: CFA=reg31
  0x10040cd00: CFA=reg31+80: reg19=[CFA-24], reg20=[CFA-32], reg29=[CFA-16], reg30=[CFA-8]

00009198 00000024 0000919c FDE cie=00000000 pc=100133934...1001339d0
  Format:       DWARF32
  DW_CFA_advance_loc: 12
  DW_CFA_def_cfa_offset: +48
  DW_CFA_offset: reg30 -8
  DW_CFA_offset: reg29 -16
  DW_CFA_offset: reg19 -24
  DW_CFA_offset: reg20 -32
  DW_CFA_offset: reg21 -40
  DW_CFA_offset: reg22 -48

  0x100133934: CFA=reg31
  0x100133940: CFA=reg31+48: reg19=[CFA-24], reg20=[CFA-32], reg21=[CFA-40], reg22=[CFA-48], reg29=[CFA-16], reg30=[CFA-8]

000091c0 0000001c 000091c4 FDE cie=00000000 pc=100133d1c...100133dd4
  Format:       DWARF32
  DW_CFA_advance_loc: 4
  DW_CFA_def_cfa_offset: +16
  DW_CFA_offset: reg30 -8
  DW_CFA_offset: reg29 -16

  0x100133d1c: CFA=reg31
  0x100133d20: CFA=reg31+16: reg29=[CFA-16], reg30=[CFA-8]

000091e0 00000024 000091e4 FDE cie=00000000 pc=100134f70...100134fe0
  Format:       DWARF32
  DW_CFA_advance_loc: 12
  DW_CFA_def_cfa_offset: +48
  DW_CFA_offset: reg30 -8
  DW_CFA_offset: reg29 -16
  DW_CFA_offset: reg19 -24
  DW_CFA_offset: reg20 -32
  DW_CFA_offset: reg21 -40
  DW_CFA_offset: reg22 -48

  0x100134f70: CFA=reg31
  0x100134f7c: CFA=reg31+48: reg19=[CFA-24], reg20=[CFA-32], reg21=[CFA-40], reg22=[CFA-48], reg29=[CFA-16], reg30=[CFA-8]

00009208 00000024 0000920c FDE cie=00000000 pc=100134fe0...100135068
  Format:       DWARF32
  DW_CFA_advance_loc: 12
  DW_CFA_def_cfa_offset: +48
  DW_CFA_offset: reg30 -8
  DW_CFA_offset: reg29 -16
  DW_CFA_offset: reg19 -24
  DW_CFA_offset: reg20 -32
  DW_CFA_offset: reg21 -40
  DW_CFA_offset: reg22 -48

  0x100134fe0: CFA=reg31
  0x100134fec: CFA=reg31+48: reg19=[CFA-24], reg20=[CFA-32], reg21=[CFA-40], reg22=[CFA-48], reg29=[CFA-16], reg30=[CFA-8]

00009230 00000024 00009234 FDE cie=00000000 pc=10040cdbc...10040ce90
  Format:       DWARF32
  DW_CFA_advance_loc: 12
  DW_CFA_def_cfa_offset: +80
  DW_CFA_offset: reg30 -8
  DW_CFA_offset: reg29 -16
  DW_CFA_offset: reg19 -24
  DW_CFA_offset: reg20 -32
  DW_CFA_nop:
  DW_CFA_nop:
  DW_CFA_nop:
  DW_CFA_nop:

  0x10040cdbc: CFA=reg31
  0x10040cdc8: CFA=reg31+80: reg19=[CFA-24], reg20=[CFA-32], reg29=[CFA-16], reg30=[CFA-8]

00009258 00000024 0000925c FDE cie=00000000 pc=10013c1e0...10013c4a8
  Format:       DWARF32
  DW_CFA_advance_loc: 12
  DW_CFA_def_cfa_offset: +64
  DW_CFA_offset: reg30 -8
  DW_CFA_offset: reg29 -16
  DW_CFA_offset: reg19 -24
  DW_CFA_offset: reg20 -32
  DW_CFA_nop:
  DW_CFA_nop:
  DW_CFA_nop:
  DW_CFA_nop:

  0x10013c1e0: CFA=reg31
  0x10013c1ec: CFA=reg31+64: reg19=[CFA-24], reg20=[CFA-32], reg29=[CFA-16], reg30=[CFA-8]

00009280 0000002c 00009284 FDE cie=00000000 pc=10013c4a8...10013c614
  Format:       DWARF32
  DW_CFA_advance_loc: 20
  DW_CFA_def_cfa_offset: +96
  DW_CFA_offset: reg30 -8
  DW_CFA_offset: reg29 -16
  DW_CFA_offset: reg19 -24
  DW_CFA_offset: reg20 -32
  DW_CFA_offset: reg21 -40
  DW_CFA_offset: reg22 -48
  DW_CFA_offset: reg23 -56
  DW_CFA_offset: reg24 -64
  DW_CFA_nop:
  DW_CFA_nop:
  DW_CFA_nop:
  DW_CFA_nop:

  0x10013c4a8: CFA=reg31
  0x10013c4bc: CFA=reg31+96: reg19=[CFA-24], reg20=[CFA-32], reg21=[CFA-40], reg22=[CFA-48], reg23=[CFA-56], reg24=[CFA-64], reg29=[CFA-16], reg30=[CFA-8]

000092b0 00000024 000092b4 FDE cie=00000000 pc=10013c614...10013c714
  Format:       DWARF32
  DW_CFA_advance_loc: 12
  DW_CFA_def_cfa_offset: +64
  DW_CFA_offset: reg30 -8
  DW_CFA_offset: reg29 -16
  DW_CFA_offset: reg19 -24
  DW_CFA_offset: reg20 -32
  DW_CFA_nop:
  DW_CFA_nop:
  DW_CFA_nop:
  DW_CFA_nop:

  0x10013c614: CFA=reg31
  0x10013c620: CFA=reg31+64: reg19=[CFA-24], reg20=[CFA-32], reg29=[CFA-16], reg30=[CFA-8]

000092d8 00000024 000092dc FDE cie=00000000 pc=10013c714...10013c7dc
  Format:       DWARF32
  DW_CFA_advance_loc: 12
  DW_CFA_def_cfa_offset: +64
  DW_CFA_offset: reg30 -8
  DW_CFA_offset: reg29 -16
  DW_CFA_offset: reg19 -24
  DW_CFA_offset: reg20 -32
  DW_CFA_nop:
  DW_CFA_nop:
  DW_CFA_nop:
  DW_CFA_nop:

  0x10013c714: CFA=reg31
  0x10013c720: CFA=reg31+64: reg19=[CFA-24], reg20=[CFA-32], reg29=[CFA-16], reg30=[CFA-8]

00009300 00000024 00009304 FDE cie=00000000 pc=10013c7dc...10013c8a4
  Format:       DWARF32
  DW_CFA_advance_loc: 12
  DW_CFA_def_cfa_offset: +64
  DW_CFA_offset: reg30 -8
  DW_CFA_offset: reg29 -16
  DW_CFA_offset: reg19 -24
  DW_CFA_offset: reg20 -32
  DW_CFA_nop:
  DW_CFA_nop:
  DW_CFA_nop:
  DW_CFA_nop:

  0x10013c7dc: CFA=reg31
  0x10013c7e8: CFA=reg31+64: reg19=[CFA-24], reg20=[CFA-32], reg29=[CFA-16], reg30=[CFA-8]

00009328 00000034 0000932c FDE cie=00000000 pc=10013c8a4...10013cad0
  Format:       DWARF32
  DW_CFA_advance_loc: 28
  DW_CFA_def_cfa_offset: +208
  DW_CFA_offset: reg30 -8
  DW_CFA_offset: reg29 -16
  DW_CFA_offset: reg19 -24
  DW_CFA_offset: reg20 -32
  DW_CFA_offset: reg21 -40
  DW_CFA_offset: reg22 -48
  DW_CFA_offset: reg23 -56
  DW_CFA_offset: reg24 -64
  DW_CFA_offset: reg25 -72
  DW_CFA_offset: reg26 -80
  DW_CFA_offset: reg27 -88
  DW_CFA_offset: reg28 -96
  DW_CFA_nop:
  DW_CFA_nop:
  DW_CFA_nop:

  0x10013c8a4: CFA=reg31
  0x10013c8c0: CFA=reg31+208: reg19=[CFA-24], reg20=[CFA-32], reg21=[CFA-40], reg22=[CFA-48], reg23=[CFA-56], reg24=[CFA-64], reg25=[CFA-72], reg26=[CFA-80], reg27=[CFA-88], reg28=[CFA-96], reg29=[CFA-16], reg30=[CFA-8]

00009360 00000024 00009364 FDE cie=00000000 pc=10013cad0...10013cc2c
  Format:       DWARF32
  DW_CFA_advance_loc: 12
  DW_CFA_def_cfa_offset: +64
  DW_CFA_offset: reg30 -8
  DW_CFA_offset: reg29 -16
  DW_CFA_offset: reg19 -24
  DW_CFA_offset: reg20 -32
  DW_CFA_nop:
  DW_CFA_nop:
  DW_CFA_nop:
  DW_CFA_nop:

  0x10013cad0: CFA=reg31
  0x10013cadc: CFA=reg31+64: reg19=[CFA-24], reg20=[CFA-32], reg29=[CFA-16], reg30=[CFA-8]

00009388 00000024 0000938c FDE cie=00000000 pc=10013cc2c...10013ccf4
  Format:       DWARF32
  DW_CFA_advance_loc: 12
  DW_CFA_def_cfa_offset: +64
  DW_CFA_offset: reg30 -8
  DW_CFA_offset: reg29 -16
  DW_CFA_offset: reg19 -24
  DW_CFA_offset: reg20 -32
  DW_CFA_nop:
  DW_CFA_nop:
  DW_CFA_nop:
  DW_CFA_nop:

  0x10013cc2c: CFA=reg31
  0x10013cc38: CFA=reg31+64: reg19=[CFA-24], reg20=[CFA-32], reg29=[CFA-16], reg30=[CFA-8]

000093b0 00000024 000093b4 FDE cie=00000000 pc=10013ccf4...10013cdbc
  Format:       DWARF32
  DW_CFA_advance_loc: 12
  DW_CFA_def_cfa_offset: +64
  DW_CFA_offset: reg30 -8
  DW_CFA_offset: reg29 -16
  DW_CFA_offset: reg19 -24
  DW_CFA_offset: reg20 -32
  DW_CFA_nop:
  DW_CFA_nop:
  DW_CFA_nop:
  DW_CFA_nop:

  0x10013ccf4: CFA=reg31
  0x10013cd00: CFA=reg31+64: reg19=[CFA-24], reg20=[CFA-32], reg29=[CFA-16], reg30=[CFA-8]

000093d8 00000034 000093dc FDE cie=00000000 pc=10013cdbc...10013cfe8
  Format:       DWARF32
  DW_CFA_advance_loc: 28
  DW_CFA_def_cfa_offset: +208
  DW_CFA_offset: reg30 -8
  DW_CFA_offset: reg29 -16
  DW_CFA_offset: reg19 -24
  DW_CFA_offset: reg20 -32
  DW_CFA_offset: reg21 -40
  DW_CFA_offset: reg22 -48
  DW_CFA_offset: reg23 -56
  DW_CFA_offset: reg24 -64
  DW_CFA_offset: reg25 -72
  DW_CFA_offset: reg26 -80
  DW_CFA_offset: reg27 -88
  DW_CFA_offset: reg28 -96
  DW_CFA_nop:
  DW_CFA_nop:
  DW_CFA_nop:

  0x10013cdbc: CFA=reg31
  0x10013cdd8: CFA=reg31+208: reg19=[CFA-24], reg20=[CFA-32], reg21=[CFA-40], reg22=[CFA-48], reg23=[CFA-56], reg24=[CFA-64], reg25=[CFA-72], reg26=[CFA-80], reg27=[CFA-88], reg28=[CFA-96], reg29=[CFA-16], reg30=[CFA-8]

00009410 00000024 00009414 FDE cie=00000000 pc=10013d3fc...10013d4f4
  Format:       DWARF32
  DW_CFA_advance_loc: 16
  DW_CFA_def_cfa_offset: +80
  DW_CFA_offset: reg30 -8
  DW_CFA_offset: reg29 -16
  DW_CFA_offset: reg19 -24
  DW_CFA_offset: reg20 -32
  DW_CFA_offset: reg21 -40
  DW_CFA_offset: reg22 -48

  0x10013d3fc: CFA=reg31
  0x10013d40c: CFA=reg31+80: reg19=[CFA-24], reg20=[CFA-32], reg21=[CFA-40], reg22=[CFA-48], reg29=[CFA-16], reg30=[CFA-8]

00009438 00000024 0000943c FDE cie=00000000 pc=10013d4f4...10013d5bc
  Format:       DWARF32
  DW_CFA_advance_loc: 12
  DW_CFA_def_cfa_offset: +64
  DW_CFA_offset: reg30 -8
  DW_CFA_offset: reg29 -16
  DW_CFA_offset: reg19 -24
  DW_CFA_offset: reg20 -32
  DW_CFA_nop:
  DW_CFA_nop:
  DW_CFA_nop:
  DW_CFA_nop:

  0x10013d4f4: CFA=reg31
  0x10013d500: CFA=reg31+64: reg19=[CFA-24], reg20=[CFA-32], reg29=[CFA-16], reg30=[CFA-8]

00009460 00000024 00009464 FDE cie=00000000 pc=10013d5bc...10013d8bc
  Format:       DWARF32
  DW_CFA_advance_loc: 12
  DW_CFA_def_cfa_offset: +64
  DW_CFA_offset: reg30 -8
  DW_CFA_offset: reg29 -16
  DW_CFA_offset: reg19 -24
  DW_CFA_offset: reg20 -32
  DW_CFA_nop:
  DW_CFA_nop:
  DW_CFA_nop:
  DW_CFA_nop:

  0x10013d5bc: CFA=reg31
  0x10013d5c8: CFA=reg31+64: reg19=[CFA-24], reg20=[CFA-32], reg29=[CFA-16], reg30=[CFA-8]

00009488 00000034 0000948c FDE cie=00000000 pc=10013d8bc...10013db00
  Format:       DWARF32
  DW_CFA_advance_loc: 28
  DW_CFA_def_cfa_offset: +208
  DW_CFA_offset: reg30 -8
  DW_CFA_offset: reg29 -16
  DW_CFA_offset: reg19 -24
  DW_CFA_offset: reg20 -32
  DW_CFA_offset: reg21 -40
  DW_CFA_offset: reg22 -48
  DW_CFA_offset: reg23 -56
  DW_CFA_offset: reg24 -64
  DW_CFA_offset: reg25 -72
  DW_CFA_offset: reg26 -80
  DW_CFA_offset: reg27 -88
  DW_CFA_offset: reg28 -96
  DW_CFA_nop:
  DW_CFA_nop:
  DW_CFA_nop:

  0x10013d8bc: CFA=reg31
  0x10013d8d8: CFA=reg31+208: reg19=[CFA-24], reg20=[CFA-32], reg21=[CFA-40], reg22=[CFA-48], reg23=[CFA-56], reg24=[CFA-64], reg25=[CFA-72], reg26=[CFA-80], reg27=[CFA-88], reg28=[CFA-96], reg29=[CFA-16], reg30=[CFA-8]

000094c0 00000024 000094c4 FDE cie=00000000 pc=10013db00...10013dbf8
  Format:       DWARF32
  DW_CFA_advance_loc: 16
  DW_CFA_def_cfa_offset: +80
  DW_CFA_offset: reg30 -8
  DW_CFA_offset: reg29 -16
  DW_CFA_offset: reg19 -24
  DW_CFA_offset: reg20 -32
  DW_CFA_offset: reg21 -40
  DW_CFA_offset: reg22 -48

  0x10013db00: CFA=reg31
  0x10013db10: CFA=reg31+80: reg19=[CFA-24], reg20=[CFA-32], reg21=[CFA-40], reg22=[CFA-48], reg29=[CFA-16], reg30=[CFA-8]

000094e8 00000024 000094ec FDE cie=00000000 pc=10013dbf8...10013dcf4
  Format:       DWARF32
  DW_CFA_advance_loc: 16
  DW_CFA_def_cfa_offset: +80
  DW_CFA_offset: reg30 -8
  DW_CFA_offset: reg29 -16
  DW_CFA_offset: reg19 -24
  DW_CFA_offset: reg20 -32
  DW_CFA_offset: reg21 -40
  DW_CFA_offset: reg22 -48

  0x10013dbf8: CFA=reg31
  0x10013dc08: CFA=reg31+80: reg19=[CFA-24], reg20=[CFA-32], reg21=[CFA-40], reg22=[CFA-48], reg29=[CFA-16], reg30=[CFA-8]

00009510 00000024 00009514 FDE cie=00000000 pc=10013dcf4...10013dec4
  Format:       DWARF32
  DW_CFA_advance_loc: 16
  DW_CFA_def_cfa_offset: +80
  DW_CFA_offset: reg30 -8
  DW_CFA_offset: reg29 -16
  DW_CFA_offset: reg19 -24
  DW_CFA_offset: reg20 -32
  DW_CFA_offset: reg21 -40
  DW_CFA_offset: reg22 -48

  0x10013dcf4: CFA=reg31
  0x10013dd04: CFA=reg31+80: reg19=[CFA-24], reg20=[CFA-32], reg21=[CFA-40], reg22=[CFA-48], reg29=[CFA-16], reg30=[CFA-8]

00009538 00000024 0000953c FDE cie=00000000 pc=10013dec4...10013dfe4
  Format:       DWARF32
  DW_CFA_advance_loc: 16
  DW_CFA_def_cfa_offset: +80
  DW_CFA_offset: reg30 -8
  DW_CFA_offset: reg29 -16
  DW_CFA_offset: reg19 -24
  DW_CFA_offset: reg20 -32
  DW_CFA_offset: reg21 -40
  DW_CFA_offset: reg22 -48

  0x10013dec4: CFA=reg31
  0x10013ded4: CFA=reg31+80: reg19=[CFA-24], reg20=[CFA-32], reg21=[CFA-40], reg22=[CFA-48], reg29=[CFA-16], reg30=[CFA-8]

00009560 00000024 00009564 FDE cie=00000000 pc=10013dfe4...10013e130
  Format:       DWARF32
  DW_CFA_advance_loc: 12
  DW_CFA_def_cfa_offset: +64
  DW_CFA_offset: reg30 -8
  DW_CFA_offset: reg29 -16
  DW_CFA_offset: reg19 -24
  DW_CFA_offset: reg20 -32
  DW_CFA_nop:
  DW_CFA_nop:
  DW_CFA_nop:
  DW_CFA_nop:

  0x10013dfe4: CFA=reg31
  0x10013dff0: CFA=reg31+64: reg19=[CFA-24], reg20=[CFA-32], reg29=[CFA-16], reg30=[CFA-8]

00009588 00000024 0000958c FDE cie=00000000 pc=10013e130...10013e34c
  Format:       DWARF32
  DW_CFA_advance_loc: 16
  DW_CFA_def_cfa_offset: +80
  DW_CFA_offset: reg30 -8
  DW_CFA_offset: reg29 -16
  DW_CFA_offset: reg19 -24
  DW_CFA_offset: reg20 -32
  DW_CFA_offset: reg21 -40
  DW_CFA_offset: reg22 -48

  0x10013e130: CFA=reg31
  0x10013e140: CFA=reg31+80: reg19=[CFA-24], reg20=[CFA-32], reg21=[CFA-40], reg22=[CFA-48], reg29=[CFA-16], reg30=[CFA-8]

000095b0 00000024 000095b4 FDE cie=00000000 pc=10013e44c...10013e5e8
  Format:       DWARF32
  DW_CFA_advance_loc: 12
  DW_CFA_def_cfa_offset: +64
  DW_CFA_offset: reg30 -8
  DW_CFA_offset: reg29 -16
  DW_CFA_offset: reg19 -24
  DW_CFA_offset: reg20 -32
  DW_CFA_nop:
  DW_CFA_nop:
  DW_CFA_nop:
  DW_CFA_nop:

  0x10013e44c: CFA=reg31
  0x10013e458: CFA=reg31+64: reg19=[CFA-24], reg20=[CFA-32], reg29=[CFA-16], reg30=[CFA-8]

000095d8 00000024 000095dc FDE cie=00000000 pc=10013e5e8...10013e78c
  Format:       DWARF32
  DW_CFA_advance_loc: 12
  DW_CFA_def_cfa_offset: +64
  DW_CFA_offset: reg30 -8
  DW_CFA_offset: reg29 -16
  DW_CFA_offset: reg19 -24
  DW_CFA_offset: reg20 -32
  DW_CFA_nop:
  DW_CFA_nop:
  DW_CFA_nop:
  DW_CFA_nop:

  0x10013e5e8: CFA=reg31
  0x10013e5f4: CFA=reg31+64: reg19=[CFA-24], reg20=[CFA-32], reg29=[CFA-16], reg30=[CFA-8]

00009600 00000034 00009604 FDE cie=00000000 pc=10013f3a4...10013f63c
  Format:       DWARF32
  DW_CFA_advance_loc: 28
  DW_CFA_def_cfa_offset: +112
  DW_CFA_offset: reg30 -8
  DW_CFA_offset: reg29 -16
  DW_CFA_offset: reg19 -24
  DW_CFA_offset: reg20 -32
  DW_CFA_offset: reg21 -40
  DW_CFA_offset: reg22 -48
  DW_CFA_offset: reg23 -56
  DW_CFA_offset: reg24 -64
  DW_CFA_offset: reg25 -72
  DW_CFA_offset: reg26 -80
  DW_CFA_offset: reg27 -88
  DW_CFA_offset: reg28 -96
  DW_CFA_nop:
  DW_CFA_nop:
  DW_CFA_nop:
  DW_CFA_nop:

  0x10013f3a4: CFA=reg31
  0x10013f3c0: CFA=reg31+112: reg19=[CFA-24], reg20=[CFA-32], reg21=[CFA-40], reg22=[CFA-48], reg23=[CFA-56], reg24=[CFA-64], reg25=[CFA-72], reg26=[CFA-80], reg27=[CFA-88], reg28=[CFA-96], reg29=[CFA-16], reg30=[CFA-8]

00009638 0000002c 0000963c FDE cie=00000000 pc=100140120...100140248
  Format:       DWARF32
  DW_CFA_advance_loc: 20
  DW_CFA_def_cfa_offset: +80
  DW_CFA_offset: reg30 -8
  DW_CFA_offset: reg29 -16
  DW_CFA_offset: reg19 -24
  DW_CFA_offset: reg20 -32
  DW_CFA_offset: reg21 -40
  DW_CFA_offset: reg22 -48
  DW_CFA_offset: reg23 -56
  DW_CFA_offset: reg24 -64
  DW_CFA_offset: reg25 -72
  DW_CFA_offset: reg26 -80

  0x100140120: CFA=reg31
  0x100140134: CFA=reg31+80: reg19=[CFA-24], reg20=[CFA-32], reg21=[CFA-40], reg22=[CFA-48], reg23=[CFA-56], reg24=[CFA-64], reg25=[CFA-72], reg26=[CFA-80], reg29=[CFA-16], reg30=[CFA-8]

00009668 00000034 0000966c FDE cie=00000000 pc=100141ad4...100141c5c
  Format:       DWARF32
  DW_CFA_advance_loc: 28
  DW_CFA_def_cfa_offset: +144
  DW_CFA_offset: reg30 -8
  DW_CFA_offset: reg29 -16
  DW_CFA_offset: reg19 -24
  DW_CFA_offset: reg20 -32
  DW_CFA_offset: reg21 -40
  DW_CFA_offset: reg22 -48
  DW_CFA_offset: reg23 -56
  DW_CFA_offset: reg24 -64
  DW_CFA_offset: reg25 -72
  DW_CFA_offset: reg26 -80
  DW_CFA_offset: reg27 -88
  DW_CFA_offset: reg28 -96
  DW_CFA_nop:
  DW_CFA_nop:
  DW_CFA_nop:

  0x100141ad4: CFA=reg31
  0x100141af0: CFA=reg31+144: reg19=[CFA-24], reg20=[CFA-32], reg21=[CFA-40], reg22=[CFA-48], reg23=[CFA-56], reg24=[CFA-64], reg25=[CFA-72], reg26=[CFA-80], reg27=[CFA-88], reg28=[CFA-96], reg29=[CFA-16], reg30=[CFA-8]

000096a0 0000002c 000096a4 FDE cie=00000000 pc=100141c5c...100141d34
  Format:       DWARF32
  DW_CFA_advance_loc: 16
  DW_CFA_def_cfa_offset: +64
  DW_CFA_offset: reg30 -8
  DW_CFA_offset: reg29 -16
  DW_CFA_offset: reg19 -24
  DW_CFA_offset: reg20 -32
  DW_CFA_offset: reg21 -40
  DW_CFA_offset: reg22 -48
  DW_CFA_offset: reg23 -56
  DW_CFA_offset: reg24 -64
  DW_CFA_nop:
  DW_CFA_nop:
  DW_CFA_nop:
  DW_CFA_nop:

  0x100141c5c: CFA=reg31
  0x100141c6c: CFA=reg31+64: reg19=[CFA-24], reg20=[CFA-32], reg21=[CFA-40], reg22=[CFA-48], reg23=[CFA-56], reg24=[CFA-64], reg29=[CFA-16], reg30=[CFA-8]

000096d0 0000002c 000096d4 FDE cie=00000000 pc=100142194...10014236c
  Format:       DWARF32
  DW_CFA_advance_loc: 20
  DW_CFA_def_cfa_offset: +192
  DW_CFA_offset: reg30 -8
  DW_CFA_offset: reg29 -16
  DW_CFA_offset: reg19 -24
  DW_CFA_offset: reg20 -32
  DW_CFA_offset: reg21 -40
  DW_CFA_offset: reg22 -48
  DW_CFA_offset: reg23 -56
  DW_CFA_offset: reg24 -64
  DW_CFA_nop:
  DW_CFA_nop:
  DW_CFA_nop:

  0x100142194: CFA=reg31
  0x1001421a8: CFA=reg31+192: reg19=[CFA-24], reg20=[CFA-32], reg21=[CFA-40], reg22=[CFA-48], reg23=[CFA-56], reg24=[CFA-64], reg29=[CFA-16], reg30=[CFA-8]

00009700 00000034 00009704 FDE cie=00000000 pc=10014236c...1001426d4
  Format:       DWARF32
  DW_CFA_advance_loc: 24
  DW_CFA_def_cfa_offset: +96
  DW_CFA_offset: reg30 -8
  DW_CFA_offset: reg29 -16
  DW_CFA_offset: reg19 -24
  DW_CFA_offset: reg20 -32
  DW_CFA_offset: reg21 -40
  DW_CFA_offset: reg22 -48
  DW_CFA_offset: reg23 -56
  DW_CFA_offset: reg24 -64
  DW_CFA_offset: reg25 -72
  DW_CFA_offset: reg26 -80
  DW_CFA_offset: reg27 -88
  DW_CFA_offset: reg28 -96
  DW_CFA_nop:
  DW_CFA_nop:
  DW_CFA_nop:
  DW_CFA_nop:

  0x10014236c: CFA=reg31
  0x100142384: CFA=reg31+96: reg19=[CFA-24], reg20=[CFA-32], reg21=[CFA-40], reg22=[CFA-48], reg23=[CFA-56], reg24=[CFA-64], reg25=[CFA-72], reg26=[CFA-80], reg27=[CFA-88], reg28=[CFA-96], reg29=[CFA-16], reg30=[CFA-8]

00009738 0000002c 0000973c FDE cie=00000000 pc=1001426d4...100142938
  Format:       DWARF32
  DW_CFA_advance_loc: 16
  DW_CFA_def_cfa_offset: +64
  DW_CFA_offset: reg30 -8
  DW_CFA_offset: reg29 -16
  DW_CFA_offset: reg19 -24
  DW_CFA_offset: reg20 -32
  DW_CFA_offset: reg21 -40
  DW_CFA_offset: reg22 -48
  DW_CFA_offset: reg23 -56
  DW_CFA_offset: reg24 -64
  DW_CFA_nop:
  DW_CFA_nop:
  DW_CFA_nop:
  DW_CFA_nop:

  0x1001426d4: CFA=reg31
  0x1001426e4: CFA=reg31+64: reg19=[CFA-24], reg20=[CFA-32], reg21=[CFA-40], reg22=[CFA-48], reg23=[CFA-56], reg24=[CFA-64], reg29=[CFA-16], reg30=[CFA-8]

00009768 00000024 0000976c FDE cie=00000000 pc=10040ce90...10040cf38
  Format:       DWARF32
  DW_CFA_advance_loc: 12
  DW_CFA_def_cfa_offset: +80
  DW_CFA_offset: reg30 -8
  DW_CFA_offset: reg29 -16
  DW_CFA_offset: reg19 -24
  DW_CFA_offset: reg20 -32
  DW_CFA_nop:
  DW_CFA_nop:
  DW_CFA_nop:
  DW_CFA_nop:

  0x10040ce90: CFA=reg31
  0x10040ce9c: CFA=reg31+80: reg19=[CFA-24], reg20=[CFA-32], reg29=[CFA-16], reg30=[CFA-8]

00009790 00000034 00009794 FDE cie=00000000 pc=100142e9c...100143094
  Format:       DWARF32
  DW_CFA_advance_loc: 24
  DW_CFA_def_cfa_offset: +96
  DW_CFA_offset: reg30 -8
  DW_CFA_offset: reg29 -16
  DW_CFA_offset: reg19 -24
  DW_CFA_offset: reg20 -32
  DW_CFA_offset: reg21 -40
  DW_CFA_offset: reg22 -48
  DW_CFA_offset: reg23 -56
  DW_CFA_offset: reg24 -64
  DW_CFA_offset: reg25 -72
  DW_CFA_offset: reg26 -80
  DW_CFA_offset: reg27 -88
  DW_CFA_offset: reg28 -96
  DW_CFA_nop:
  DW_CFA_nop:
  DW_CFA_nop:
  DW_CFA_nop:

  0x100142e9c: CFA=reg31
  0x100142eb4: CFA=reg31+96: reg19=[CFA-24], reg20=[CFA-32], reg21=[CFA-40], reg22=[CFA-48], reg23=[CFA-56], reg24=[CFA-64], reg25=[CFA-72], reg26=[CFA-80], reg27=[CFA-88], reg28=[CFA-96], reg29=[CFA-16], reg30=[CFA-8]

000097c8 00000034 000097cc FDE cie=00000000 pc=1001434bc...1001436c4
  Format:       DWARF32
  DW_CFA_advance_loc: 28
  DW_CFA_def_cfa_offset: +128
  DW_CFA_offset: reg30 -8
  DW_CFA_offset: reg29 -16
  DW_CFA_offset: reg19 -24
  DW_CFA_offset: reg20 -32
  DW_CFA_offset: reg21 -40
  DW_CFA_offset: reg22 -48
  DW_CFA_offset: reg23 -56
  DW_CFA_offset: reg24 -64
  DW_CFA_offset: reg25 -72
  DW_CFA_offset: reg26 -80
  DW_CFA_offset: reg27 -88
  DW_CFA_offset: reg28 -96
  DW_CFA_nop:
  DW_CFA_nop:
  DW_CFA_nop:

  0x1001434bc: CFA=reg31
  0x1001434d8: CFA=reg31+128: reg19=[CFA-24], reg20=[CFA-32], reg21=[CFA-40], reg22=[CFA-48], reg23=[CFA-56], reg24=[CFA-64], reg25=[CFA-72], reg26=[CFA-80], reg27=[CFA-88], reg28=[CFA-96], reg29=[CFA-16], reg30=[CFA-8]

00009800 0000003c 00009804 FDE cie=00000000 pc=1001436c4...100143b30
  Format:       DWARF32
  DW_CFA_advance_loc: 32
  DW_CFA_def_cfa_offset: +144
  DW_CFA_offset: reg30 -8
  DW_CFA_offset: reg29 -16
  DW_CFA_offset: reg19 -24
  DW_CFA_offset: reg20 -32
  DW_CFA_offset: reg21 -40
  DW_CFA_offset: reg22 -48
  DW_CFA_offset: reg23 -56
  DW_CFA_offset: reg24 -64
  DW_CFA_offset: reg25 -72
  DW_CFA_offset: reg26 -80
  DW_CFA_offset: reg27 -88
  DW_CFA_offset: reg28 -96
  DW_CFA_offset_extended: reg72 -104
  DW_CFA_offset_extended: reg73 -112
  DW_CFA_nop:
  DW_CFA_nop:
  DW_CFA_nop:
  DW_CFA_nop:
  DW_CFA_nop:

  0x1001436c4: CFA=reg31
  0x1001436e4: CFA=reg31+144: reg19=[CFA-24], reg20=[CFA-32], reg21=[CFA-40], reg22=[CFA-48], reg23=[CFA-56], reg24=[CFA-64], reg25=[CFA-72], reg26=[CFA-80], reg27=[CFA-88], reg28=[CFA-96], reg29=[CFA-16], reg30=[CFA-8], reg72=[CFA-104], reg73=[CFA-112]

00009840 00000034 00009844 FDE cie=00000000 pc=100143b30...100143cf4
  Format:       DWARF32
  DW_CFA_advance_loc: 28
  DW_CFA_def_cfa_offset: +128
  DW_CFA_offset: reg30 -8
  DW_CFA_offset: reg29 -16
  DW_CFA_offset: reg19 -24
  DW_CFA_offset: reg20 -32
  DW_CFA_offset: reg21 -40
  DW_CFA_offset: reg22 -48
  DW_CFA_offset: reg23 -56
  DW_CFA_offset: reg24 -64
  DW_CFA_offset: reg25 -72
  DW_CFA_offset: reg26 -80
  DW_CFA_offset: reg27 -88
  DW_CFA_offset: reg28 -96
  DW_CFA_nop:
  DW_CFA_nop:
  DW_CFA_nop:

  0x100143b30: CFA=reg31
  0x100143b4c: CFA=reg31+128: reg19=[CFA-24], reg20=[CFA-32], reg21=[CFA-40], reg22=[CFA-48], reg23=[CFA-56], reg24=[CFA-64], reg25=[CFA-72], reg26=[CFA-80], reg27=[CFA-88], reg28=[CFA-96], reg29=[CFA-16], reg30=[CFA-8]

00009878 00000034 0000987c FDE cie=00000000 pc=100143cf4...100144104
  Format:       DWARF32
  DW_CFA_advance_loc: 28
  DW_CFA_def_cfa_offset: +128
  DW_CFA_offset: reg30 -8
  DW_CFA_offset: reg29 -16
  DW_CFA_offset: reg19 -24
  DW_CFA_offset: reg20 -32
  DW_CFA_offset: reg21 -40
  DW_CFA_offset: reg22 -48
  DW_CFA_offset: reg23 -56
  DW_CFA_offset: reg24 -64
  DW_CFA_offset: reg25 -72
  DW_CFA_offset: reg26 -80
  DW_CFA_offset: reg27 -88
  DW_CFA_offset: reg28 -96
  DW_CFA_nop:
  DW_CFA_nop:
  DW_CFA_nop:

  0x100143cf4: CFA=reg31
  0x100143d10: CFA=reg31+128: reg19=[CFA-24], reg20=[CFA-32], reg21=[CFA-40], reg22=[CFA-48], reg23=[CFA-56], reg24=[CFA-64], reg25=[CFA-72], reg26=[CFA-80], reg27=[CFA-88], reg28=[CFA-96], reg29=[CFA-16], reg30=[CFA-8]

000098b0 0000002c 000098b4 FDE cie=00000000 pc=100144104...1001442e0
  Format:       DWARF32
  DW_CFA_advance_loc: 20
  DW_CFA_def_cfa_offset: +112
  DW_CFA_offset: reg30 -8
  DW_CFA_offset: reg29 -16
  DW_CFA_offset: reg19 -24
  DW_CFA_offset: reg20 -32
  DW_CFA_offset: reg21 -40
  DW_CFA_offset: reg22 -48
  DW_CFA_offset: reg23 -56
  DW_CFA_offset: reg24 -64
  DW_CFA_nop:
  DW_CFA_nop:
  DW_CFA_nop:
  DW_CFA_nop:

  0x100144104: CFA=reg31
  0x100144118: CFA=reg31+112: reg19=[CFA-24], reg20=[CFA-32], reg21=[CFA-40], reg22=[CFA-48], reg23=[CFA-56], reg24=[CFA-64], reg29=[CFA-16], reg30=[CFA-8]

000098e0 00000034 000098e4 FDE cie=00000000 pc=100146d84...100147484
  Format:       DWARF32
  DW_CFA_advance_loc: 28
  DW_CFA_def_cfa_offset: +176
  DW_CFA_offset: reg30 -8
  DW_CFA_offset: reg29 -16
  DW_CFA_offset: reg19 -24
  DW_CFA_offset: reg20 -32
  DW_CFA_offset: reg21 -40
  DW_CFA_offset: reg22 -48
  DW_CFA_offset: reg23 -56
  DW_CFA_offset: reg24 -64
  DW_CFA_offset: reg25 -72
  DW_CFA_offset: reg26 -80
  DW_CFA_offset: reg27 -88
  DW_CFA_offset: reg28 -96
  DW_CFA_nop:
  DW_CFA_nop:
  DW_CFA_nop:

  0x100146d84: CFA=reg31
  0x100146da0: CFA=reg31+176: reg19=[CFA-24], reg20=[CFA-32], reg21=[CFA-40], reg22=[CFA-48], reg23=[CFA-56], reg24=[CFA-64], reg25=[CFA-72], reg26=[CFA-80], reg27=[CFA-88], reg28=[CFA-96], reg29=[CFA-16], reg30=[CFA-8]

00009918 00000024 0000991c FDE cie=00000000 pc=100147484...1001475a0
  Format:       DWARF32
  DW_CFA_advance_loc: 12
  DW_CFA_def_cfa_offset: +48
  DW_CFA_offset: reg30 -8
  DW_CFA_offset: reg29 -16
  DW_CFA_offset: reg19 -24
  DW_CFA_offset: reg20 -32
  DW_CFA_nop:
  DW_CFA_nop:
  DW_CFA_nop:
  DW_CFA_nop:

  0x100147484: CFA=reg31
  0x100147490: CFA=reg31+48: reg19=[CFA-24], reg20=[CFA-32], reg29=[CFA-16], reg30=[CFA-8]

00009940 0000002c 00009944 FDE cie=00000000 pc=1001475a0...1001478e0
  Format:       DWARF32
  DW_CFA_advance_loc: 16
  DW_CFA_def_cfa_offset: +192
  DW_CFA_offset: reg30 -8
  DW_CFA_offset: reg29 -16
  DW_CFA_offset: reg19 -24
  DW_CFA_offset: reg20 -32
  DW_CFA_offset: reg21 -40
  DW_CFA_offset: reg22 -48
  DW_CFA_nop:
  DW_CFA_nop:
  DW_CFA_nop:
  DW_CFA_nop:
  DW_CFA_nop:
  DW_CFA_nop:
  DW_CFA_nop:

  0x1001475a0: CFA=reg31
  0x1001475b0: CFA=reg31+192: reg19=[CFA-24], reg20=[CFA-32], reg21=[CFA-40], reg22=[CFA-48], reg29=[CFA-16], reg30=[CFA-8]

00009970 00000024 00009974 FDE cie=00000000 pc=1001478e0...1001479e0
  Format:       DWARF32
  DW_CFA_advance_loc: 12
  DW_CFA_def_cfa_offset: +64
  DW_CFA_offset: reg30 -8
  DW_CFA_offset: reg29 -16
  DW_CFA_offset: reg19 -24
  DW_CFA_offset: reg20 -32
  DW_CFA_nop:
  DW_CFA_nop:
  DW_CFA_nop:
  DW_CFA_nop:

  0x1001478e0: CFA=reg31
  0x1001478ec: CFA=reg31+64: reg19=[CFA-24], reg20=[CFA-32], reg29=[CFA-16], reg30=[CFA-8]

00009998 00000024 0000999c FDE cie=00000000 pc=1001479e0...100147ae0
  Format:       DWARF32
  DW_CFA_advance_loc: 12
  DW_CFA_def_cfa_offset: +64
  DW_CFA_offset: reg30 -8
  DW_CFA_offset: reg29 -16
  DW_CFA_offset: reg19 -24
  DW_CFA_offset: reg20 -32
  DW_CFA_nop:
  DW_CFA_nop:
  DW_CFA_nop:
  DW_CFA_nop:

  0x1001479e0: CFA=reg31
  0x1001479ec: CFA=reg31+64: reg19=[CFA-24], reg20=[CFA-32], reg29=[CFA-16], reg30=[CFA-8]

000099c0 00000024 000099c4 FDE cie=00000000 pc=100147ae0...100147cd4
  Format:       DWARF32
  DW_CFA_advance_loc: 12
  DW_CFA_def_cfa_offset: +64
  DW_CFA_offset: reg30 -8
  DW_CFA_offset: reg29 -16
  DW_CFA_offset: reg19 -24
  DW_CFA_offset: reg20 -32
  DW_CFA_nop:
  DW_CFA_nop:
  DW_CFA_nop:
  DW_CFA_nop:

  0x100147ae0: CFA=reg31
  0x100147aec: CFA=reg31+64: reg19=[CFA-24], reg20=[CFA-32], reg29=[CFA-16], reg30=[CFA-8]

000099e8 00000024 000099ec FDE cie=00000000 pc=100147ce4...100147de0
  Format:       DWARF32
  DW_CFA_advance_loc: 12
  DW_CFA_def_cfa_offset: +64
  DW_CFA_offset: reg30 -8
  DW_CFA_offset: reg29 -16
  DW_CFA_offset: reg19 -24
  DW_CFA_offset: reg20 -32
  DW_CFA_nop:
  DW_CFA_nop:
  DW_CFA_nop:
  DW_CFA_nop:

  0x100147ce4: CFA=reg31
  0x100147cf0: CFA=reg31+64: reg19=[CFA-24], reg20=[CFA-32], reg29=[CFA-16], reg30=[CFA-8]

00009a10 00000024 00009a14 FDE cie=00000000 pc=100147de0...100147f50
  Format:       DWARF32
  DW_CFA_advance_loc: 12
  DW_CFA_def_cfa_offset: +64
  DW_CFA_offset: reg30 -8
  DW_CFA_offset: reg29 -16
  DW_CFA_offset: reg19 -24
  DW_CFA_offset: reg20 -32
  DW_CFA_nop:
  DW_CFA_nop:
  DW_CFA_nop:
  DW_CFA_nop:

  0x100147de0: CFA=reg31
  0x100147dec: CFA=reg31+64: reg19=[CFA-24], reg20=[CFA-32], reg29=[CFA-16], reg30=[CFA-8]

00009a38 00000024 00009a3c FDE cie=00000000 pc=100147f50...100148178
  Format:       DWARF32
  DW_CFA_advance_loc: 8
  DW_CFA_def_cfa_offset: +144
  DW_CFA_offset: reg30 -8
  DW_CFA_offset: reg29 -16
  DW_CFA_nop:
  DW_CFA_nop:
  DW_CFA_nop:
  DW_CFA_nop:
  DW_CFA_nop:
  DW_CFA_nop:
  DW_CFA_nop:

  0x100147f50: CFA=reg31
  0x100147f58: CFA=reg31+144: reg29=[CFA-16], reg30=[CFA-8]

00009a60 0000002c 00009a64 FDE cie=00000000 pc=100148178...1001483b8
  Format:       DWARF32
  DW_CFA_advance_loc: 16
  DW_CFA_def_cfa_offset: +160
  DW_CFA_offset: reg30 -8
  DW_CFA_offset: reg29 -16
  DW_CFA_offset: reg19 -24
  DW_CFA_offset: reg20 -32
  DW_CFA_offset: reg21 -40
  DW_CFA_offset: reg22 -48
  DW_CFA_nop:
  DW_CFA_nop:
  DW_CFA_nop:
  DW_CFA_nop:
  DW_CFA_nop:
  DW_CFA_nop:
  DW_CFA_nop:

  0x100148178: CFA=reg31
  0x100148188: CFA=reg31+160: reg19=[CFA-24], reg20=[CFA-32], reg21=[CFA-40], reg22=[CFA-48], reg29=[CFA-16], reg30=[CFA-8]

00009a90 0000002c 00009a94 FDE cie=00000000 pc=10014854c...100148748
  Format:       DWARF32
  DW_CFA_advance_loc: 20
  DW_CFA_def_cfa_offset: +288
  DW_CFA_offset: reg30 -8
  DW_CFA_offset: reg29 -16
  DW_CFA_offset: reg19 -24
  DW_CFA_offset: reg20 -32
  DW_CFA_offset: reg21 -40
  DW_CFA_offset: reg22 -48
  DW_CFA_offset: reg27 -56
  DW_CFA_offset: reg28 -64
  DW_CFA_nop:
  DW_CFA_nop:
  DW_CFA_nop:

  0x10014854c: CFA=reg31
  0x100148560: CFA=reg31+288: reg19=[CFA-24], reg20=[CFA-32], reg21=[CFA-40], reg22=[CFA-48], reg27=[CFA-56], reg28=[CFA-64], reg29=[CFA-16], reg30=[CFA-8]

00009ac0 0000002c 00009ac4 FDE cie=00000000 pc=100148748...100148904
  Format:       DWARF32
  DW_CFA_advance_loc: 16
  DW_CFA_def_cfa_offset: +128
  DW_CFA_offset: reg30 -8
  DW_CFA_offset: reg29 -16
  DW_CFA_offset: reg19 -24
  DW_CFA_offset: reg20 -32
  DW_CFA_offset: reg21 -40
  DW_CFA_offset: reg22 -48
  DW_CFA_nop:
  DW_CFA_nop:
  DW_CFA_nop:
  DW_CFA_nop:
  DW_CFA_nop:
  DW_CFA_nop:
  DW_CFA_nop:

  0x100148748: CFA=reg31
  0x100148758: CFA=reg31+128: reg19=[CFA-24], reg20=[CFA-32], reg21=[CFA-40], reg22=[CFA-48], reg29=[CFA-16], reg30=[CFA-8]

00009af0 0000001c 00009af4 FDE cie=00000000 pc=10040cf38...10040cf50
  Format:       DWARF32
  DW_CFA_advance_loc: 8
  DW_CFA_def_cfa_offset: +48
  DW_CFA_offset: reg30 -8
  DW_CFA_offset: reg29 -16

  0x10040cf38: CFA=reg31
  0x10040cf40: CFA=reg31+48: reg29=[CFA-16], reg30=[CFA-8]

00009b10 00000024 00009b14 FDE cie=00000000 pc=10040cf50...10040cffc
  Format:       DWARF32
  DW_CFA_advance_loc: 12
  DW_CFA_def_cfa_offset: +80
  DW_CFA_offset: reg30 -8
  DW_CFA_offset: reg29 -16
  DW_CFA_offset: reg19 -24
  DW_CFA_offset: reg20 -32
  DW_CFA_nop:
  DW_CFA_nop:
  DW_CFA_nop:
  DW_CFA_nop:

  0x10040cf50: CFA=reg31
  0x10040cf5c: CFA=reg31+80: reg19=[CFA-24], reg20=[CFA-32], reg29=[CFA-16], reg30=[CFA-8]

00009b38 0000001c 00009b3c FDE cie=00000000 pc=10014a7e0...10014a800
  Format:       DWARF32
  DW_CFA_advance_loc: 8
  DW_CFA_def_cfa_offset: +48
  DW_CFA_offset: reg30 -8
  DW_CFA_offset: reg29 -16

  0x10014a7e0: CFA=reg31
  0x10014a7e8: CFA=reg31+48: reg29=[CFA-16], reg30=[CFA-8]

00009b58 0000001c 00009b5c FDE cie=00000000 pc=10014a800...10014a828
  Format:       DWARF32
  DW_CFA_advance_loc: 8
  DW_CFA_def_cfa_offset: +32
  DW_CFA_offset: reg30 -8
  DW_CFA_offset: reg29 -16

  0x10014a800: CFA=reg31
  0x10014a808: CFA=reg31+32: reg29=[CFA-16], reg30=[CFA-8]

00009b78 00000024 00009b7c FDE cie=00000000 pc=10014a828...10014a870
  Format:       DWARF32
  DW_CFA_advance_loc: 8
  DW_CFA_def_cfa_offset: +32
  DW_CFA_offset: reg30 -8
  DW_CFA_offset: reg29 -16
  DW_CFA_offset: reg19 -24
  DW_CFA_offset: reg20 -32
  DW_CFA_nop:
  DW_CFA_nop:
  DW_CFA_nop:
  DW_CFA_nop:

  0x10014a828: CFA=reg31
  0x10014a830: CFA=reg31+32: reg19=[CFA-24], reg20=[CFA-32], reg29=[CFA-16], reg30=[CFA-8]

00009ba0 0000001c 00009ba4 FDE cie=00000000 pc=10014a870...10014a890
  Format:       DWARF32
  DW_CFA_advance_loc: 4
  DW_CFA_def_cfa_offset: +16
  DW_CFA_offset: reg30 -8
  DW_CFA_offset: reg29 -16

  0x10014a870: CFA=reg31
  0x10014a874: CFA=reg31+16: reg29=[CFA-16], reg30=[CFA-8]

00009bc0 00000024 00009bc4 FDE cie=00000000 pc=10040cffc...10040d0d0
  Format:       DWARF32
  DW_CFA_advance_loc: 12
  DW_CFA_def_cfa_offset: +80
  DW_CFA_offset: reg30 -8
  DW_CFA_offset: reg29 -16
  DW_CFA_offset: reg19 -24
  DW_CFA_offset: reg20 -32
  DW_CFA_nop:
  DW_CFA_nop:
  DW_CFA_nop:
  DW_CFA_nop:

  0x10040cffc: CFA=reg31
  0x10040d008: CFA=reg31+80: reg19=[CFA-24], reg20=[CFA-32], reg29=[CFA-16], reg30=[CFA-8]

00009be8 00000024 00009bec FDE cie=00000000 pc=10040d0d0...10040d1a8
  Format:       DWARF32
  DW_CFA_advance_loc: 12
  DW_CFA_def_cfa_offset: +80
  DW_CFA_offset: reg30 -8
  DW_CFA_offset: reg29 -16
  DW_CFA_offset: reg19 -24
  DW_CFA_offset: reg20 -32
  DW_CFA_nop:
  DW_CFA_nop:
  DW_CFA_nop:
  DW_CFA_nop:

  0x10040d0d0: CFA=reg31
  0x10040d0dc: CFA=reg31+80: reg19=[CFA-24], reg20=[CFA-32], reg29=[CFA-16], reg30=[CFA-8]

00009c10 00000024 00009c14 FDE cie=00000000 pc=100151224...100151270
  Format:       DWARF32
  DW_CFA_advance_loc: 8
  DW_CFA_def_cfa_offset: +32
  DW_CFA_offset: reg30 -8
  DW_CFA_offset: reg29 -16
  DW_CFA_offset: reg19 -24
  DW_CFA_offset: reg20 -32
  DW_CFA_nop:
  DW_CFA_nop:
  DW_CFA_nop:
  DW_CFA_nop:

  0x100151224: CFA=reg31
  0x10015122c: CFA=reg31+32: reg19=[CFA-24], reg20=[CFA-32], reg29=[CFA-16], reg30=[CFA-8]

00009c38 00000024 00009c3c FDE cie=00000000 pc=10040d1a8...10040d280
  Format:       DWARF32
  DW_CFA_advance_loc: 12
  DW_CFA_def_cfa_offset: +80
  DW_CFA_offset: reg30 -8
  DW_CFA_offset: reg29 -16
  DW_CFA_offset: reg19 -24
  DW_CFA_offset: reg20 -32
  DW_CFA_nop:
  DW_CFA_nop:
  DW_CFA_nop:
  DW_CFA_nop:

  0x10040d1a8: CFA=reg31
  0x10040d1b4: CFA=reg31+80: reg19=[CFA-24], reg20=[CFA-32], reg29=[CFA-16], reg30=[CFA-8]

00009c60 00000024 00009c64 FDE cie=00000000 pc=100151270...100151304
  Format:       DWARF32
  DW_CFA_advance_loc: 12
  DW_CFA_def_cfa_offset: +48
  DW_CFA_offset: reg30 -8
  DW_CFA_offset: reg29 -16
  DW_CFA_offset: reg19 -24
  DW_CFA_offset: reg20 -32
  DW_CFA_offset: reg21 -40
  DW_CFA_offset: reg22 -48

  0x100151270: CFA=reg31
  0x10015127c: CFA=reg31+48: reg19=[CFA-24], reg20=[CFA-32], reg21=[CFA-40], reg22=[CFA-48], reg29=[CFA-16], reg30=[CFA-8]

00009c88 00000024 00009c8c FDE cie=00000000 pc=100151330...100151380
  Format:       DWARF32
  DW_CFA_advance_loc: 8
  DW_CFA_def_cfa_offset: +32
  DW_CFA_offset: reg30 -8
  DW_CFA_offset: reg29 -16
  DW_CFA_offset: reg19 -24
  DW_CFA_offset: reg20 -32
  DW_CFA_nop:
  DW_CFA_nop:
  DW_CFA_nop:
  DW_CFA_nop:

  0x100151330: CFA=reg31
  0x100151338: CFA=reg31+32: reg19=[CFA-24], reg20=[CFA-32], reg29=[CFA-16], reg30=[CFA-8]

00009cb0 00000024 00009cb4 FDE cie=00000000 pc=100151380...100151434
  Format:       DWARF32
  DW_CFA_advance_loc: 12
  DW_CFA_def_cfa_offset: +48
  DW_CFA_offset: reg30 -8
  DW_CFA_offset: reg29 -16
  DW_CFA_offset: reg19 -24
  DW_CFA_offset: reg20 -32
  DW_CFA_offset: reg21 -40
  DW_CFA_offset: reg22 -48

  0x100151380: CFA=reg31
  0x10015138c: CFA=reg31+48: reg19=[CFA-24], reg20=[CFA-32], reg21=[CFA-40], reg22=[CFA-48], reg29=[CFA-16], reg30=[CFA-8]

00009cd8 00000024 00009cdc FDE cie=00000000 pc=100151434...100151600
  Format:       DWARF32
  DW_CFA_advance_loc: 12
  DW_CFA_def_cfa_offset: +48
  DW_CFA_offset: reg30 -8
  DW_CFA_offset: reg29 -16
  DW_CFA_offset: reg19 -24
  DW_CFA_offset: reg20 -32
  DW_CFA_offset: reg21 -40
  DW_CFA_offset: reg22 -48

  0x100151434: CFA=reg31
  0x100151440: CFA=reg31+48: reg19=[CFA-24], reg20=[CFA-32], reg21=[CFA-40], reg22=[CFA-48], reg29=[CFA-16], reg30=[CFA-8]

00009d00 00000034 00009d04 FDE cie=00000000 pc=100151868...100151960
  Format:       DWARF32
  DW_CFA_advance_loc: 24
  DW_CFA_def_cfa_offset: +96
  DW_CFA_offset: reg30 -8
  DW_CFA_offset: reg29 -16
  DW_CFA_offset: reg19 -24
  DW_CFA_offset: reg20 -32
  DW_CFA_offset: reg21 -40
  DW_CFA_offset: reg22 -48
  DW_CFA_offset: reg23 -56
  DW_CFA_offset: reg24 -64
  DW_CFA_offset: reg25 -72
  DW_CFA_offset: reg26 -80
  DW_CFA_offset: reg27 -88
  DW_CFA_offset: reg28 -96
  DW_CFA_nop:
  DW_CFA_nop:
  DW_CFA_nop:
  DW_CFA_nop:

  0x100151868: CFA=reg31
  0x100151880: CFA=reg31+96: reg19=[CFA-24], reg20=[CFA-32], reg21=[CFA-40], reg22=[CFA-48], reg23=[CFA-56], reg24=[CFA-64], reg25=[CFA-72], reg26=[CFA-80], reg27=[CFA-88], reg28=[CFA-96], reg29=[CFA-16], reg30=[CFA-8]

00009d38 00000034 00009d3c FDE cie=00000000 pc=100151d80...100151fe0
  Format:       DWARF32
  DW_CFA_advance_loc: 28
  DW_CFA_def_cfa_offset: +176
  DW_CFA_offset: reg30 -8
  DW_CFA_offset: reg29 -16
  DW_CFA_offset: reg19 -24
  DW_CFA_offset: reg20 -32
  DW_CFA_offset: reg21 -40
  DW_CFA_offset: reg22 -48
  DW_CFA_offset: reg23 -56
  DW_CFA_offset: reg24 -64
  DW_CFA_offset: reg25 -72
  DW_CFA_offset: reg26 -80
  DW_CFA_offset: reg27 -88
  DW_CFA_offset: reg28 -96
  DW_CFA_nop:
  DW_CFA_nop:
  DW_CFA_nop:

  0x100151d80: CFA=reg31
  0x100151d9c: CFA=reg31+176: reg19=[CFA-24], reg20=[CFA-32], reg21=[CFA-40], reg22=[CFA-48], reg23=[CFA-56], reg24=[CFA-64], reg25=[CFA-72], reg26=[CFA-80], reg27=[CFA-88], reg28=[CFA-96], reg29=[CFA-16], reg30=[CFA-8]

00009d70 00000024 00009d74 FDE cie=00000000 pc=100152160...100152208
  Format:       DWARF32
  DW_CFA_advance_loc: 12
  DW_CFA_def_cfa_offset: +48
  DW_CFA_offset: reg30 -8
  DW_CFA_offset: reg29 -16
  DW_CFA_offset: reg19 -24
  DW_CFA_offset: reg20 -32
  DW_CFA_offset: reg21 -40
  DW_CFA_offset: reg22 -48

  0x100152160: CFA=reg31
  0x10015216c: CFA=reg31+48: reg19=[CFA-24], reg20=[CFA-32], reg21=[CFA-40], reg22=[CFA-48], reg29=[CFA-16], reg30=[CFA-8]

00009d98 00000024 00009d9c FDE cie=00000000 pc=10015226c...100152314
  Format:       DWARF32
  DW_CFA_advance_loc: 12
  DW_CFA_def_cfa_offset: +48
  DW_CFA_offset: reg30 -8
  DW_CFA_offset: reg29 -16
  DW_CFA_offset: reg19 -24
  DW_CFA_offset: reg20 -32
  DW_CFA_offset: reg21 -40
  DW_CFA_offset: reg22 -48

  0x10015226c: CFA=reg31
  0x100152278: CFA=reg31+48: reg19=[CFA-24], reg20=[CFA-32], reg21=[CFA-40], reg22=[CFA-48], reg29=[CFA-16], reg30=[CFA-8]

00009dc0 00000024 00009dc4 FDE cie=00000000 pc=100152420...1001524d4
  Format:       DWARF32
  DW_CFA_advance_loc: 12
  DW_CFA_def_cfa_offset: +48
  DW_CFA_offset: reg30 -8
  DW_CFA_offset: reg29 -16
  DW_CFA_offset: reg19 -24
  DW_CFA_offset: reg20 -32
  DW_CFA_offset: reg21 -40
  DW_CFA_offset: reg22 -48

  0x100152420: CFA=reg31
  0x10015242c: CFA=reg31+48: reg19=[CFA-24], reg20=[CFA-32], reg21=[CFA-40], reg22=[CFA-48], reg29=[CFA-16], reg30=[CFA-8]

00009de8 00000024 00009dec FDE cie=00000000 pc=1001525c0...100152610
  Format:       DWARF32
  DW_CFA_advance_loc: 8
  DW_CFA_def_cfa_offset: +32
  DW_CFA_offset: reg30 -8
  DW_CFA_offset: reg29 -16
  DW_CFA_offset: reg19 -24
  DW_CFA_offset: reg20 -32
  DW_CFA_nop:
  DW_CFA_nop:
  DW_CFA_nop:
  DW_CFA_nop:

  0x1001525c0: CFA=reg31
  0x1001525c8: CFA=reg31+32: reg19=[CFA-24], reg20=[CFA-32], reg29=[CFA-16], reg30=[CFA-8]

00009e10 00000034 00009e14 FDE cie=00000000 pc=100152610...10015273c
  Format:       DWARF32
  DW_CFA_advance_loc: 28
  DW_CFA_def_cfa_offset: +112
  DW_CFA_offset: reg30 -8
  DW_CFA_offset: reg29 -16
  DW_CFA_offset: reg19 -24
  DW_CFA_offset: reg20 -32
  DW_CFA_offset: reg21 -40
  DW_CFA_offset: reg22 -48
  DW_CFA_offset: reg23 -56
  DW_CFA_offset: reg24 -64
  DW_CFA_offset: reg25 -72
  DW_CFA_offset: reg26 -80
  DW_CFA_offset: reg27 -88
  DW_CFA_offset: reg28 -96
  DW_CFA_nop:
  DW_CFA_nop:
  DW_CFA_nop:
  DW_CFA_nop:

  0x100152610: CFA=reg31
  0x10015262c: CFA=reg31+112: reg19=[CFA-24], reg20=[CFA-32], reg21=[CFA-40], reg22=[CFA-48], reg23=[CFA-56], reg24=[CFA-64], reg25=[CFA-72], reg26=[CFA-80], reg27=[CFA-88], reg28=[CFA-96], reg29=[CFA-16], reg30=[CFA-8]

00009e48 00000024 00009e4c FDE cie=00000000 pc=100152804...100152854
  Format:       DWARF32
  DW_CFA_advance_loc: 8
  DW_CFA_def_cfa_offset: +32
  DW_CFA_offset: reg30 -8
  DW_CFA_offset: reg29 -16
  DW_CFA_offset: reg19 -24
  DW_CFA_offset: reg20 -32
  DW_CFA_nop:
  DW_CFA_nop:
  DW_CFA_nop:
  DW_CFA_nop:

  0x100152804: CFA=reg31
  0x10015280c: CFA=reg31+32: reg19=[CFA-24], reg20=[CFA-32], reg29=[CFA-16], reg30=[CFA-8]

00009e70 00000024 00009e74 FDE cie=00000000 pc=100152854...100152908
  Format:       DWARF32
  DW_CFA_advance_loc: 12
  DW_CFA_def_cfa_offset: +48
  DW_CFA_offset: reg30 -8
  DW_CFA_offset: reg29 -16
  DW_CFA_offset: reg19 -24
  DW_CFA_offset: reg20 -32
  DW_CFA_offset: reg21 -40
  DW_CFA_offset: reg22 -48

  0x100152854: CFA=reg31
  0x100152860: CFA=reg31+48: reg19=[CFA-24], reg20=[CFA-32], reg21=[CFA-40], reg22=[CFA-48], reg29=[CFA-16], reg30=[CFA-8]

00009e98 00000024 00009e9c FDE cie=00000000 pc=100153340...10015339c
  Format:       DWARF32
  DW_CFA_advance_loc: 8
  DW_CFA_def_cfa_offset: +32
  DW_CFA_offset: reg30 -8
  DW_CFA_offset: reg29 -16
  DW_CFA_offset: reg19 -24
  DW_CFA_offset: reg20 -32
  DW_CFA_nop:
  DW_CFA_nop:
  DW_CFA_nop:
  DW_CFA_nop:

  0x100153340: CFA=reg31
  0x100153348: CFA=reg31+32: reg19=[CFA-24], reg20=[CFA-32], reg29=[CFA-16], reg30=[CFA-8]

00009ec0 0000002c 00009ec4 FDE cie=00000000 pc=10015357c...1001537e8
  Format:       DWARF32
  DW_CFA_advance_loc: 20
  DW_CFA_def_cfa_offset: +336
  DW_CFA_offset: reg30 -8
  DW_CFA_offset: reg29 -16
  DW_CFA_offset: reg19 -24
  DW_CFA_offset: reg20 -32
  DW_CFA_offset: reg21 -40
  DW_CFA_offset: reg22 -48
  DW_CFA_offset: reg23 -56
  DW_CFA_offset: reg24 -64
  DW_CFA_nop:
  DW_CFA_nop:
  DW_CFA_nop:

  0x10015357c: CFA=reg31
  0x100153590: CFA=reg31+336: reg19=[CFA-24], reg20=[CFA-32], reg21=[CFA-40], reg22=[CFA-48], reg23=[CFA-56], reg24=[CFA-64], reg29=[CFA-16], reg30=[CFA-8]

00009ef0 00000024 00009ef4 FDE cie=00000000 pc=100154938...1001549b4
  Format:       DWARF32
  DW_CFA_advance_loc: 8
  DW_CFA_def_cfa_offset: +32
  DW_CFA_offset: reg30 -8
  DW_CFA_offset: reg29 -16
  DW_CFA_offset: reg19 -24
  DW_CFA_offset: reg20 -32
  DW_CFA_nop:
  DW_CFA_nop:
  DW_CFA_nop:
  DW_CFA_nop:

  0x100154938: CFA=reg31
  0x100154940: CFA=reg31+32: reg19=[CFA-24], reg20=[CFA-32], reg29=[CFA-16], reg30=[CFA-8]

00009f18 0000001c 00009f1c FDE cie=00000000 pc=10015604c...10015605c
  Format:       DWARF32
  DW_CFA_advance_loc: 4
  DW_CFA_def_cfa_offset: +16
  DW_CFA_offset: reg30 -8
  DW_CFA_offset: reg29 -16

  0x10015604c: CFA=reg31
  0x100156050: CFA=reg31+16: reg29=[CFA-16], reg30=[CFA-8]

00009f38 00000034 00009f3c FDE cie=00000000 pc=100156100...100156264
  Format:       DWARF32
  DW_CFA_advance_loc: 28
  DW_CFA_def_cfa_offset: +112
  DW_CFA_offset: reg30 -8
  DW_CFA_offset: reg29 -16
  DW_CFA_offset: reg19 -24
  DW_CFA_offset: reg20 -32
  DW_CFA_offset: reg21 -40
  DW_CFA_offset: reg22 -48
  DW_CFA_offset: reg23 -56
  DW_CFA_offset: reg24 -64
  DW_CFA_offset: reg25 -72
  DW_CFA_offset: reg26 -80
  DW_CFA_offset: reg27 -88
  DW_CFA_offset: reg28 -96
  DW_CFA_nop:
  DW_CFA_nop:
  DW_CFA_nop:
  DW_CFA_nop:

  0x100156100: CFA=reg31
  0x10015611c: CFA=reg31+112: reg19=[CFA-24], reg20=[CFA-32], reg21=[CFA-40], reg22=[CFA-48], reg23=[CFA-56], reg24=[CFA-64], reg25=[CFA-72], reg26=[CFA-80], reg27=[CFA-88], reg28=[CFA-96], reg29=[CFA-16], reg30=[CFA-8]

00009f70 00000024 00009f74 FDE cie=00000000 pc=100156288...10015630c
  Format:       DWARF32
  DW_CFA_advance_loc: 8
  DW_CFA_def_cfa_offset: +32
  DW_CFA_offset: reg30 -8
  DW_CFA_offset: reg29 -16
  DW_CFA_offset: reg19 -24
  DW_CFA_offset: reg20 -32
  DW_CFA_nop:
  DW_CFA_nop:
  DW_CFA_nop:
  DW_CFA_nop:

  0x100156288: CFA=reg31
  0x100156290: CFA=reg31+32: reg19=[CFA-24], reg20=[CFA-32], reg29=[CFA-16], reg30=[CFA-8]

00009f98 00000024 00009f9c FDE cie=00000000 pc=10015630c...1001563e0
  Format:       DWARF32
  DW_CFA_advance_loc: 12
  DW_CFA_def_cfa_offset: +48
  DW_CFA_offset: reg30 -8
  DW_CFA_offset: reg29 -16
  DW_CFA_offset: reg19 -24
  DW_CFA_offset: reg20 -32
  DW_CFA_offset: reg21 -40
  DW_CFA_offset: reg22 -48

  0x10015630c: CFA=reg31
  0x100156318: CFA=reg31+48: reg19=[CFA-24], reg20=[CFA-32], reg21=[CFA-40], reg22=[CFA-48], reg29=[CFA-16], reg30=[CFA-8]

00009fc0 00000024 00009fc4 FDE cie=00000000 pc=1001563e0...100156470
  Format:       DWARF32
  DW_CFA_advance_loc: 12
  DW_CFA_def_cfa_offset: +48
  DW_CFA_offset: reg30 -8
  DW_CFA_offset: reg29 -16
  DW_CFA_offset: reg19 -24
  DW_CFA_offset: reg20 -32
  DW_CFA_offset: reg21 -40
  DW_CFA_offset: reg22 -48

  0x1001563e0: CFA=reg31
  0x1001563ec: CFA=reg31+48: reg19=[CFA-24], reg20=[CFA-32], reg21=[CFA-40], reg22=[CFA-48], reg29=[CFA-16], reg30=[CFA-8]

00009fe8 00000034 00009fec FDE cie=00000000 pc=100156474...1001567ec
  Format:       DWARF32
  DW_CFA_advance_loc: 28
  DW_CFA_def_cfa_offset: +224
  DW_CFA_offset: reg30 -8
  DW_CFA_offset: reg29 -16
  DW_CFA_offset: reg19 -24
  DW_CFA_offset: reg20 -32
  DW_CFA_offset: reg21 -40
  DW_CFA_offset: reg22 -48
  DW_CFA_offset: reg23 -56
  DW_CFA_offset: reg24 -64
  DW_CFA_offset: reg25 -72
  DW_CFA_offset: reg26 -80
  DW_CFA_offset: reg27 -88
  DW_CFA_offset: reg28 -96
  DW_CFA_nop:
  DW_CFA_nop:
  DW_CFA_nop:

  0x100156474: CFA=reg31
  0x100156490: CFA=reg31+224: reg19=[CFA-24], reg20=[CFA-32], reg21=[CFA-40], reg22=[CFA-48], reg23=[CFA-56], reg24=[CFA-64], reg25=[CFA-72], reg26=[CFA-80], reg27=[CFA-88], reg28=[CFA-96], reg29=[CFA-16], reg30=[CFA-8]

0000a020 00000034 0000a024 FDE cie=00000000 pc=10040d280...10040daac
  Format:       DWARF32
  DW_CFA_advance_loc: 28
  DW_CFA_def_cfa_offset: +304
  DW_CFA_offset: reg30 -8
  DW_CFA_offset: reg29 -16
  DW_CFA_offset: reg19 -24
  DW_CFA_offset: reg20 -32
  DW_CFA_offset: reg21 -40
  DW_CFA_offset: reg22 -48
  DW_CFA_offset: reg23 -56
  DW_CFA_offset: reg24 -64
  DW_CFA_offset: reg25 -72
  DW_CFA_offset: reg26 -80
  DW_CFA_offset: reg27 -88
  DW_CFA_offset: reg28 -96
  DW_CFA_nop:
  DW_CFA_nop:
  DW_CFA_nop:

  0x10040d280: CFA=reg31
  0x10040d29c: CFA=reg31+304: reg19=[CFA-24], reg20=[CFA-32], reg21=[CFA-40], reg22=[CFA-48], reg23=[CFA-56], reg24=[CFA-64], reg25=[CFA-72], reg26=[CFA-80], reg27=[CFA-88], reg28=[CFA-96], reg29=[CFA-16], reg30=[CFA-8]

0000a058 00000024 0000a05c FDE cie=00000000 pc=100157b44...100157b78
  Format:       DWARF32
  DW_CFA_advance_loc: 8
  DW_CFA_def_cfa_offset: +32
  DW_CFA_offset: reg30 -8
  DW_CFA_offset: reg29 -16
  DW_CFA_offset: reg19 -24
  DW_CFA_offset: reg20 -32
  DW_CFA_nop:
  DW_CFA_nop:
  DW_CFA_nop:
  DW_CFA_nop:

  0x100157b44: CFA=reg31
  0x100157b4c: CFA=reg31+32: reg19=[CFA-24], reg20=[CFA-32], reg29=[CFA-16], reg30=[CFA-8]

0000a080 00000024 0000a084 FDE cie=00000000 pc=10040daac...10040db5c
  Format:       DWARF32
  DW_CFA_advance_loc: 12
  DW_CFA_def_cfa_offset: +80
  DW_CFA_offset: reg30 -8
  DW_CFA_offset: reg29 -16
  DW_CFA_offset: reg19 -24
  DW_CFA_offset: reg20 -32
  DW_CFA_nop:
  DW_CFA_nop:
  DW_CFA_nop:
  DW_CFA_nop:

  0x10040daac: CFA=reg31
  0x10040dab8: CFA=reg31+80: reg19=[CFA-24], reg20=[CFA-32], reg29=[CFA-16], reg30=[CFA-8]

0000a0a8 00000024 0000a0ac FDE cie=00000000 pc=100158c44...100158ce8
  Format:       DWARF32
  DW_CFA_advance_loc: 12
  DW_CFA_def_cfa_offset: +48
  DW_CFA_offset: reg30 -8
  DW_CFA_offset: reg29 -16
  DW_CFA_offset: reg19 -24
  DW_CFA_offset: reg20 -32
  DW_CFA_offset: reg21 -40
  DW_CFA_offset: reg22 -48

  0x100158c44: CFA=reg31
  0x100158c50: CFA=reg31+48: reg19=[CFA-24], reg20=[CFA-32], reg21=[CFA-40], reg22=[CFA-48], reg29=[CFA-16], reg30=[CFA-8]

0000a0d0 00000024 0000a0d4 FDE cie=00000000 pc=10015ff5c...10015ffbc
  Format:       DWARF32
  DW_CFA_advance_loc: 8
  DW_CFA_def_cfa_offset: +32
  DW_CFA_offset: reg30 -8
  DW_CFA_offset: reg29 -16
  DW_CFA_offset: reg19 -24
  DW_CFA_offset: reg20 -32
  DW_CFA_nop:
  DW_CFA_nop:
  DW_CFA_nop:
  DW_CFA_nop:

  0x10015ff5c: CFA=reg31
  0x10015ff64: CFA=reg31+32: reg19=[CFA-24], reg20=[CFA-32], reg29=[CFA-16], reg30=[CFA-8]

0000a0f8 0000001c 0000a0fc FDE cie=00000000 pc=100163d28...100163e6c
  Format:       DWARF32
  DW_CFA_advance_loc: 8
  DW_CFA_def_cfa_offset: +64
  DW_CFA_offset: reg30 -8
  DW_CFA_offset: reg29 -16

  0x100163d28: CFA=reg31
  0x100163d30: CFA=reg31+64: reg29=[CFA-16], reg30=[CFA-8]

0000a118 0000001c 0000a11c FDE cie=00000000 pc=10016551c...10016553c
  Format:       DWARF32
  DW_CFA_advance_loc: 8
  DW_CFA_def_cfa_offset: +32
  DW_CFA_offset: reg30 -8
  DW_CFA_offset: reg29 -16

  0x10016551c: CFA=reg31
  0x100165524: CFA=reg31+32: reg29=[CFA-16], reg30=[CFA-8]

0000a138 0000001c 0000a13c FDE cie=00000000 pc=100166074...10016609c
  Format:       DWARF32
  DW_CFA_advance_loc: 8
  DW_CFA_def_cfa_offset: +32
  DW_CFA_offset: reg30 -8
  DW_CFA_offset: reg29 -16

  0x100166074: CFA=reg31
  0x10016607c: CFA=reg31+32: reg29=[CFA-16], reg30=[CFA-8]

0000a158 00000024 0000a15c FDE cie=00000000 pc=100166268...1001662f4
  Format:       DWARF32
  DW_CFA_advance_loc: 8
  DW_CFA_def_cfa_offset: +32
  DW_CFA_offset: reg30 -8
  DW_CFA_offset: reg29 -16
  DW_CFA_offset: reg19 -24
  DW_CFA_offset: reg20 -32
  DW_CFA_nop:
  DW_CFA_nop:
  DW_CFA_nop:
  DW_CFA_nop:

  0x100166268: CFA=reg31
  0x100166270: CFA=reg31+32: reg19=[CFA-24], reg20=[CFA-32], reg29=[CFA-16], reg30=[CFA-8]

0000a180 00000024 0000a184 FDE cie=00000000 pc=100166430...100166498
  Format:       DWARF32
  DW_CFA_advance_loc: 8
  DW_CFA_def_cfa_offset: +32
  DW_CFA_offset: reg30 -8
  DW_CFA_offset: reg29 -16
  DW_CFA_offset: reg19 -24
  DW_CFA_offset: reg20 -32
  DW_CFA_nop:
  DW_CFA_nop:
  DW_CFA_nop:
  DW_CFA_nop:

  0x100166430: CFA=reg31
  0x100166438: CFA=reg31+32: reg19=[CFA-24], reg20=[CFA-32], reg29=[CFA-16], reg30=[CFA-8]

0000a1a8 00000024 0000a1ac FDE cie=00000000 pc=10016697c...1001669bc
  Format:       DWARF32
  DW_CFA_advance_loc: 8
  DW_CFA_def_cfa_offset: +32
  DW_CFA_offset: reg30 -8
  DW_CFA_offset: reg29 -16
  DW_CFA_offset: reg19 -24
  DW_CFA_offset: reg20 -32
  DW_CFA_nop:
  DW_CFA_nop:
  DW_CFA_nop:
  DW_CFA_nop:

  0x10016697c: CFA=reg31
  0x100166984: CFA=reg31+32: reg19=[CFA-24], reg20=[CFA-32], reg29=[CFA-16], reg30=[CFA-8]

0000a1d0 0000001c 0000a1d4 FDE cie=00000000 pc=10040db5c...10040dba0
  Format:       DWARF32
  DW_CFA_advance_loc: 8
  DW_CFA_def_cfa_offset: +80
  DW_CFA_offset: reg30 -8
  DW_CFA_offset: reg29 -16

  0x10040db5c: CFA=reg31
  0x10040db64: CFA=reg31+80: reg29=[CFA-16], reg30=[CFA-8]

0000a1f0 0000001c 0000a1f4 FDE cie=00000000 pc=100167210...100167234
  Format:       DWARF32
  DW_CFA_advance_loc: 4
  DW_CFA_def_cfa_offset: +16
  DW_CFA_offset: reg30 -8
  DW_CFA_offset: reg29 -16

  0x100167210: CFA=reg31
  0x100167214: CFA=reg31+16: reg29=[CFA-16], reg30=[CFA-8]

0000a210 0000001c 0000a214 FDE cie=00000000 pc=1001672d4...100167308
  Format:       DWARF32
  DW_CFA_advance_loc: 8
  DW_CFA_def_cfa_offset: +32
  DW_CFA_offset: reg30 -8
  DW_CFA_offset: reg29 -16

  0x1001672d4: CFA=reg31
  0x1001672dc: CFA=reg31+32: reg29=[CFA-16], reg30=[CFA-8]

0000a230 0000001c 0000a234 FDE cie=00000000 pc=10016753c...10016755c
  Format:       DWARF32
  DW_CFA_advance_loc: 8
  DW_CFA_def_cfa_offset: +32
  DW_CFA_offset: reg30 -8
  DW_CFA_offset: reg29 -16

  0x10016753c: CFA=reg31
  0x100167544: CFA=reg31+32: reg29=[CFA-16], reg30=[CFA-8]

0000a250 0000001c 0000a254 FDE cie=00000000 pc=100167d88...100167dac
  Format:       DWARF32
  DW_CFA_advance_loc: 4
  DW_CFA_def_cfa_offset: +16
  DW_CFA_offset: reg30 -8
  DW_CFA_offset: reg29 -16

  0x100167d88: CFA=reg31
  0x100167d8c: CFA=reg31+16: reg29=[CFA-16], reg30=[CFA-8]

0000a270 0000001c 0000a274 FDE cie=00000000 pc=100167e84...100167eb8
  Format:       DWARF32
  DW_CFA_advance_loc: 8
  DW_CFA_def_cfa_offset: +32
  DW_CFA_offset: reg30 -8
  DW_CFA_offset: reg29 -16

  0x100167e84: CFA=reg31
  0x100167e8c: CFA=reg31+32: reg29=[CFA-16], reg30=[CFA-8]

0000a290 0000001c 0000a294 FDE cie=00000000 pc=100168e8c...100168eb0
  Format:       DWARF32
  DW_CFA_advance_loc: 4
  DW_CFA_def_cfa_offset: +16
  DW_CFA_offset: reg30 -8
  DW_CFA_offset: reg29 -16

  0x100168e8c: CFA=reg31
  0x100168e90: CFA=reg31+16: reg29=[CFA-16], reg30=[CFA-8]

0000a2b0 0000001c 0000a2b4 FDE cie=00000000 pc=1001699e8...100169a0c
  Format:       DWARF32
  DW_CFA_advance_loc: 4
  DW_CFA_def_cfa_offset: +16
  DW_CFA_offset: reg30 -8
  DW_CFA_offset: reg29 -16

  0x1001699e8: CFA=reg31
  0x1001699ec: CFA=reg31+16: reg29=[CFA-16], reg30=[CFA-8]

0000a2d0 00000024 0000a2d4 FDE cie=00000000 pc=10016a1cc...10016a2c4
  Format:       DWARF32
  DW_CFA_advance_loc: 12
  DW_CFA_def_cfa_offset: +80
  DW_CFA_offset: reg30 -8
  DW_CFA_offset: reg29 -16
  DW_CFA_offset: reg19 -24
  DW_CFA_offset: reg20 -32
  DW_CFA_nop:
  DW_CFA_nop:
  DW_CFA_nop:
  DW_CFA_nop:

  0x10016a1cc: CFA=reg31
  0x10016a1d8: CFA=reg31+80: reg19=[CFA-24], reg20=[CFA-32], reg29=[CFA-16], reg30=[CFA-8]

0000a2f8 00000024 0000a2fc FDE cie=00000000 pc=10016bf7c...10016c098
  Format:       DWARF32
  DW_CFA_advance_loc: 16
  DW_CFA_def_cfa_offset: +64
  DW_CFA_offset: reg30 -8
  DW_CFA_offset: reg29 -16
  DW_CFA_offset: reg19 -24
  DW_CFA_offset: reg20 -32
  DW_CFA_offset: reg21 -40
  DW_CFA_offset: reg22 -48

  0x10016bf7c: CFA=reg31
  0x10016bf8c: CFA=reg31+64: reg19=[CFA-24], reg20=[CFA-32], reg21=[CFA-40], reg22=[CFA-48], reg29=[CFA-16], reg30=[CFA-8]

0000a320 0000002c 0000a324 FDE cie=00000000 pc=10016c098...10016c438
  Format:       DWARF32
  DW_CFA_advance_loc: 16
  DW_CFA_def_cfa_offset: +128
  DW_CFA_offset: reg30 -8
  DW_CFA_offset: reg29 -16
  DW_CFA_offset: reg19 -24
  DW_CFA_offset: reg20 -32
  DW_CFA_offset: reg21 -40
  DW_CFA_offset: reg22 -48
  DW_CFA_nop:
  DW_CFA_nop:
  DW_CFA_nop:
  DW_CFA_nop:
  DW_CFA_nop:
  DW_CFA_nop:
  DW_CFA_nop:

  0x10016c098: CFA=reg31
  0x10016c0a8: CFA=reg31+128: reg19=[CFA-24], reg20=[CFA-32], reg21=[CFA-40], reg22=[CFA-48], reg29=[CFA-16], reg30=[CFA-8]

0000a350 00000034 0000a354 FDE cie=00000000 pc=10040dba0...10040e384
  Format:       DWARF32
  DW_CFA_advance_loc: 28
  DW_CFA_def_cfa_offset: +288
  DW_CFA_offset: reg30 -8
  DW_CFA_offset: reg29 -16
  DW_CFA_offset: reg19 -24
  DW_CFA_offset: reg20 -32
  DW_CFA_offset: reg21 -40
  DW_CFA_offset: reg22 -48
  DW_CFA_offset: reg23 -56
  DW_CFA_offset: reg24 -64
  DW_CFA_offset: reg25 -72
  DW_CFA_offset: reg26 -80
  DW_CFA_offset: reg27 -88
  DW_CFA_offset: reg28 -96
  DW_CFA_nop:
  DW_CFA_nop:
  DW_CFA_nop:

  0x10040dba0: CFA=reg31
  0x10040dbbc: CFA=reg31+288: reg19=[CFA-24], reg20=[CFA-32], reg21=[CFA-40], reg22=[CFA-48], reg23=[CFA-56], reg24=[CFA-64], reg25=[CFA-72], reg26=[CFA-80], reg27=[CFA-88], reg28=[CFA-96], reg29=[CFA-16], reg30=[CFA-8]

0000a388 00000024 0000a38c FDE cie=00000000 pc=10040e384...10040e438
  Format:       DWARF32
  DW_CFA_advance_loc: 12
  DW_CFA_def_cfa_offset: +80
  DW_CFA_offset: reg30 -8
  DW_CFA_offset: reg29 -16
  DW_CFA_offset: reg19 -24
  DW_CFA_offset: reg20 -32
  DW_CFA_nop:
  DW_CFA_nop:
  DW_CFA_nop:
  DW_CFA_nop:

  0x10040e384: CFA=reg31
  0x10040e390: CFA=reg31+80: reg19=[CFA-24], reg20=[CFA-32], reg29=[CFA-16], reg30=[CFA-8]

0000a3b0 00000024 0000a3b4 FDE cie=00000000 pc=10016d598...10016d690
  Format:       DWARF32
  DW_CFA_advance_loc: 12
  DW_CFA_def_cfa_offset: +80
  DW_CFA_offset: reg30 -8
  DW_CFA_offset: reg29 -16
  DW_CFA_offset: reg19 -24
  DW_CFA_offset: reg20 -32
  DW_CFA_nop:
  DW_CFA_nop:
  DW_CFA_nop:
  DW_CFA_nop:

  0x10016d598: CFA=reg31
  0x10016d5a4: CFA=reg31+80: reg19=[CFA-24], reg20=[CFA-32], reg29=[CFA-16], reg30=[CFA-8]

0000a3d8 00000024 0000a3dc FDE cie=00000000 pc=10016d690...10016d6f0
  Format:       DWARF32
  DW_CFA_advance_loc: 12
  DW_CFA_def_cfa_offset: +48
  DW_CFA_offset: reg30 -8
  DW_CFA_offset: reg29 -16
  DW_CFA_offset: reg19 -24
  DW_CFA_offset: reg20 -32
  DW_CFA_offset: reg21 -40
  DW_CFA_offset: reg22 -48

  0x10016d690: CFA=reg31
  0x10016d69c: CFA=reg31+48: reg19=[CFA-24], reg20=[CFA-32], reg21=[CFA-40], reg22=[CFA-48], reg29=[CFA-16], reg30=[CFA-8]

0000a400 00000024 0000a404 FDE cie=00000000 pc=10016d6f0...10016d744
  Format:       DWARF32
  DW_CFA_advance_loc: 8
  DW_CFA_def_cfa_offset: +32
  DW_CFA_offset: reg30 -8
  DW_CFA_offset: reg29 -16
  DW_CFA_offset: reg19 -24
  DW_CFA_offset: reg20 -32
  DW_CFA_nop:
  DW_CFA_nop:
  DW_CFA_nop:
  DW_CFA_nop:

  0x10016d6f0: CFA=reg31
  0x10016d6f8: CFA=reg31+32: reg19=[CFA-24], reg20=[CFA-32], reg29=[CFA-16], reg30=[CFA-8]

0000a428 0000001c 0000a42c FDE cie=00000000 pc=10016d75c...10016d7d0
  Format:       DWARF32
  DW_CFA_advance_loc: 4
  DW_CFA_def_cfa_offset: +16
  DW_CFA_offset: reg30 -8
  DW_CFA_offset: reg29 -16

  0x10016d75c: CFA=reg31
  0x10016d760: CFA=reg31+16: reg29=[CFA-16], reg30=[CFA-8]

0000a448 0000001c 0000a44c FDE cie=00000000 pc=10016e694...10016e6b8
  Format:       DWARF32
  DW_CFA_advance_loc: 4
  DW_CFA_def_cfa_offset: +16
  DW_CFA_offset: reg30 -8
  DW_CFA_offset: reg29 -16

  0x10016e694: CFA=reg31
  0x10016e698: CFA=reg31+16: reg29=[CFA-16], reg30=[CFA-8]

0000a468 0000001c 0000a46c FDE cie=00000000 pc=10016f078...10016f09c
  Format:       DWARF32
  DW_CFA_advance_loc: 4
  DW_CFA_def_cfa_offset: +16
  DW_CFA_offset: reg30 -8
  DW_CFA_offset: reg29 -16

  0x10016f078: CFA=reg31
  0x10016f07c: CFA=reg31+16: reg29=[CFA-16], reg30=[CFA-8]

0000a488 00000024 0000a48c FDE cie=00000000 pc=10016f858...10016f8b4
  Format:       DWARF32
  DW_CFA_advance_loc: 8
  DW_CFA_def_cfa_offset: +32
  DW_CFA_offset: reg30 -8
  DW_CFA_offset: reg29 -16
  DW_CFA_offset: reg19 -24
  DW_CFA_offset: reg20 -32
  DW_CFA_nop:
  DW_CFA_nop:
  DW_CFA_nop:
  DW_CFA_nop:

  0x10016f858: CFA=reg31
  0x10016f860: CFA=reg31+32: reg19=[CFA-24], reg20=[CFA-32], reg29=[CFA-16], reg30=[CFA-8]

0000a4b0 00000024 0000a4b4 FDE cie=00000000 pc=10016fa5c...10016faa8
  Format:       DWARF32
  DW_CFA_advance_loc: 8
  DW_CFA_def_cfa_offset: +32
  DW_CFA_offset: reg30 -8
  DW_CFA_offset: reg29 -16
  DW_CFA_offset: reg19 -24
  DW_CFA_offset: reg20 -32
  DW_CFA_nop:
  DW_CFA_nop:
  DW_CFA_nop:
  DW_CFA_nop:

  0x10016fa5c: CFA=reg31
  0x10016fa64: CFA=reg31+32: reg19=[CFA-24], reg20=[CFA-32], reg29=[CFA-16], reg30=[CFA-8]

0000a4d8 0000001c 0000a4dc FDE cie=00000000 pc=10016ff80...10016ffa0
  Format:       DWARF32
  DW_CFA_advance_loc: 8
  DW_CFA_def_cfa_offset: +32
  DW_CFA_offset: reg30 -8
  DW_CFA_offset: reg29 -16

  0x10016ff80: CFA=reg31
  0x10016ff88: CFA=reg31+32: reg29=[CFA-16], reg30=[CFA-8]

0000a4f8 0000001c 0000a4fc FDE cie=00000000 pc=100170bfc...100170c20
  Format:       DWARF32
  DW_CFA_advance_loc: 4
  DW_CFA_def_cfa_offset: +16
  DW_CFA_offset: reg30 -8
  DW_CFA_offset: reg29 -16

  0x100170bfc: CFA=reg31
  0x100170c00: CFA=reg31+16: reg29=[CFA-16], reg30=[CFA-8]

0000a518 0000001c 0000a51c FDE cie=00000000 pc=100170d4c...100170d80
  Format:       DWARF32
  DW_CFA_advance_loc: 8
  DW_CFA_def_cfa_offset: +32
  DW_CFA_offset: reg30 -8
  DW_CFA_offset: reg29 -16

  0x100170d4c: CFA=reg31
  0x100170d54: CFA=reg31+32: reg29=[CFA-16], reg30=[CFA-8]

0000a538 0000001c 0000a53c FDE cie=00000000 pc=100170fb4...100170fd4
  Format:       DWARF32
  DW_CFA_advance_loc: 8
  DW_CFA_def_cfa_offset: +32
  DW_CFA_offset: reg30 -8
  DW_CFA_offset: reg29 -16

  0x100170fb4: CFA=reg31
  0x100170fbc: CFA=reg31+32: reg29=[CFA-16], reg30=[CFA-8]

0000a558 0000001c 0000a55c FDE cie=00000000 pc=100171834...100171858
  Format:       DWARF32
  DW_CFA_advance_loc: 4
  DW_CFA_def_cfa_offset: +16
  DW_CFA_offset: reg30 -8
  DW_CFA_offset: reg29 -16

  0x100171834: CFA=reg31
  0x100171838: CFA=reg31+16: reg29=[CFA-16], reg30=[CFA-8]

0000a578 0000001c 0000a57c FDE cie=00000000 pc=100171930...100171964
  Format:       DWARF32
  DW_CFA_advance_loc: 8
  DW_CFA_def_cfa_offset: +32
  DW_CFA_offset: reg30 -8
  DW_CFA_offset: reg29 -16

  0x100171930: CFA=reg31
  0x100171938: CFA=reg31+32: reg29=[CFA-16], reg30=[CFA-8]

0000a598 00000034 0000a59c FDE cie=00000000 pc=10040e438...10040ebd4
  Format:       DWARF32
  DW_CFA_advance_loc: 28
  DW_CFA_def_cfa_offset: +288
  DW_CFA_offset: reg30 -8
  DW_CFA_offset: reg29 -16
  DW_CFA_offset: reg19 -24
  DW_CFA_offset: reg20 -32
  DW_CFA_offset: reg21 -40
  DW_CFA_offset: reg22 -48
  DW_CFA_offset: reg23 -56
  DW_CFA_offset: reg24 -64
  DW_CFA_offset: reg25 -72
  DW_CFA_offset: reg26 -80
  DW_CFA_offset: reg27 -88
  DW_CFA_offset: reg28 -96
  DW_CFA_nop:
  DW_CFA_nop:
  DW_CFA_nop:

  0x10040e438: CFA=reg31
  0x10040e454: CFA=reg31+288: reg19=[CFA-24], reg20=[CFA-32], reg21=[CFA-40], reg22=[CFA-48], reg23=[CFA-56], reg24=[CFA-64], reg25=[CFA-72], reg26=[CFA-80], reg27=[CFA-88], reg28=[CFA-96], reg29=[CFA-16], reg30=[CFA-8]

0000a5d0 0000001c 0000a5d4 FDE cie=00000000 pc=100189fc4...10018a144
  Format:       DWARF32
  DW_CFA_advance_loc: 4
  DW_CFA_def_cfa_offset: +16
  DW_CFA_offset: reg30 -8
  DW_CFA_offset: reg29 -16

  0x100189fc4: CFA=reg31
  0x100189fc8: CFA=reg31+16: reg29=[CFA-16], reg30=[CFA-8]

0000a5f0 00000024 0000a5f4 FDE cie=00000000 pc=10018d800...10018d86c
  Format:       DWARF32
  DW_CFA_advance_loc: 8
  DW_CFA_def_cfa_offset: +32
  DW_CFA_offset: reg30 -8
  DW_CFA_offset: reg29 -16
  DW_CFA_offset: reg19 -24
  DW_CFA_offset: reg20 -32
  DW_CFA_nop:
  DW_CFA_nop:
  DW_CFA_nop:
  DW_CFA_nop:

  0x10018d800: CFA=reg31
  0x10018d808: CFA=reg31+32: reg19=[CFA-24], reg20=[CFA-32], reg29=[CFA-16], reg30=[CFA-8]

0000a618 00000024 0000a61c FDE cie=00000000 pc=10018dc38...10018dd8c
  Format:       DWARF32
  DW_CFA_advance_loc: 16
  DW_CFA_def_cfa_offset: +96
  DW_CFA_offset: reg30 -8
  DW_CFA_offset: reg29 -16
  DW_CFA_offset: reg19 -24
  DW_CFA_offset: reg20 -32
  DW_CFA_offset: reg21 -40
  DW_CFA_offset: reg22 -48

  0x10018dc38: CFA=reg31
  0x10018dc48: CFA=reg31+96: reg19=[CFA-24], reg20=[CFA-32], reg21=[CFA-40], reg22=[CFA-48], reg29=[CFA-16], reg30=[CFA-8]

0000a640 0000002c 0000a644 FDE cie=00000000 pc=10018e02c...10018e108
  Format:       DWARF32
  DW_CFA_advance_loc: 16
  DW_CFA_def_cfa_offset: +176
  DW_CFA_offset: reg30 -8
  DW_CFA_offset: reg29 -16
  DW_CFA_offset: reg19 -24
  DW_CFA_offset: reg20 -32
  DW_CFA_offset: reg21 -40
  DW_CFA_offset: reg22 -48
  DW_CFA_nop:
  DW_CFA_nop:
  DW_CFA_nop:
  DW_CFA_nop:
  DW_CFA_nop:
  DW_CFA_nop:
  DW_CFA_nop:

  0x10018e02c: CFA=reg31
  0x10018e03c: CFA=reg31+176: reg19=[CFA-24], reg20=[CFA-32], reg21=[CFA-40], reg22=[CFA-48], reg29=[CFA-16], reg30=[CFA-8]

0000a670 0000001c 0000a674 FDE cie=00000000 pc=100192bf4...100192c18
  Format:       DWARF32
  DW_CFA_advance_loc: 4
  DW_CFA_def_cfa_offset: +16
  DW_CFA_offset: reg30 -8
  DW_CFA_offset: reg29 -16

  0x100192bf4: CFA=reg31
  0x100192bf8: CFA=reg31+16: reg29=[CFA-16], reg30=[CFA-8]

0000a690 0000001c 0000a694 FDE cie=00000000 pc=1001937fc...100193820
  Format:       DWARF32
  DW_CFA_advance_loc: 4
  DW_CFA_def_cfa_offset: +16
  DW_CFA_offset: reg30 -8
  DW_CFA_offset: reg29 -16

  0x1001937fc: CFA=reg31
  0x100193800: CFA=reg31+16: reg29=[CFA-16], reg30=[CFA-8]

0000a6b0 0000001c 0000a6b4 FDE cie=00000000 pc=10019485c...100194880
  Format:       DWARF32
  DW_CFA_advance_loc: 4
  DW_CFA_def_cfa_offset: +16
  DW_CFA_offset: reg30 -8
  DW_CFA_offset: reg29 -16

  0x10019485c: CFA=reg31
  0x100194860: CFA=reg31+16: reg29=[CFA-16], reg30=[CFA-8]

0000a6d0 0000001c 0000a6d4 FDE cie=00000000 pc=100195390...1001953b4
  Format:       DWARF32
  DW_CFA_advance_loc: 4
  DW_CFA_def_cfa_offset: +16
  DW_CFA_offset: reg30 -8
  DW_CFA_offset: reg29 -16

  0x100195390: CFA=reg31
  0x100195394: CFA=reg31+16: reg29=[CFA-16], reg30=[CFA-8]

0000a6f0 00000024 0000a6f4 FDE cie=00000000 pc=10019590c...100195978
  Format:       DWARF32
  DW_CFA_advance_loc: 8
  DW_CFA_def_cfa_offset: +32
  DW_CFA_offset: reg30 -8
  DW_CFA_offset: reg29 -16
  DW_CFA_offset: reg19 -24
  DW_CFA_offset: reg20 -32
  DW_CFA_nop:
  DW_CFA_nop:
  DW_CFA_nop:
  DW_CFA_nop:

  0x10019590c: CFA=reg31
  0x100195914: CFA=reg31+32: reg19=[CFA-24], reg20=[CFA-32], reg29=[CFA-16], reg30=[CFA-8]

0000a718 00000034 0000a71c FDE cie=00000000 pc=100195978...100196138
  Format:       DWARF32
  DW_CFA_advance_loc: 28
  DW_CFA_def_cfa_offset: +512
  DW_CFA_offset: reg30 -8
  DW_CFA_offset: reg29 -16
  DW_CFA_offset: reg19 -24
  DW_CFA_offset: reg20 -32
  DW_CFA_offset: reg21 -40
  DW_CFA_offset: reg22 -48
  DW_CFA_offset: reg23 -56
  DW_CFA_offset: reg24 -64
  DW_CFA_offset: reg25 -72
  DW_CFA_offset: reg26 -80
  DW_CFA_offset: reg27 -88
  DW_CFA_offset: reg28 -96
  DW_CFA_nop:
  DW_CFA_nop:
  DW_CFA_nop:

  0x100195978: CFA=reg31
  0x100195994: CFA=reg31+512: reg19=[CFA-24], reg20=[CFA-32], reg21=[CFA-40], reg22=[CFA-48], reg23=[CFA-56], reg24=[CFA-64], reg25=[CFA-72], reg26=[CFA-80], reg27=[CFA-88], reg28=[CFA-96], reg29=[CFA-16], reg30=[CFA-8]

0000a750 00000024 0000a754 FDE cie=00000000 pc=100197304...100197468
  Format:       DWARF32
  DW_CFA_advance_loc: 12
  DW_CFA_def_cfa_offset: +176
  DW_CFA_offset: reg30 -8
  DW_CFA_offset: reg29 -16
  DW_CFA_offset: reg19 -24
  DW_CFA_offset: reg20 -32
  DW_CFA_nop:
  DW_CFA_nop:
  DW_CFA_nop:

  0x100197304: CFA=reg31
  0x100197310: CFA=reg31+176: reg19=[CFA-24], reg20=[CFA-32], reg29=[CFA-16], reg30=[CFA-8]

0000a778 00000024 0000a77c FDE cie=00000000 pc=100197a48...100197b24
  Format:       DWARF32
  DW_CFA_advance_loc: 12
  DW_CFA_def_cfa_offset: +64
  DW_CFA_offset: reg30 -8
  DW_CFA_offset: reg29 -16
  DW_CFA_offset: reg19 -24
  DW_CFA_offset: reg20 -32
  DW_CFA_nop:
  DW_CFA_nop:
  DW_CFA_nop:
  DW_CFA_nop:

  0x100197a48: CFA=reg31
  0x100197a54: CFA=reg31+64: reg19=[CFA-24], reg20=[CFA-32], reg29=[CFA-16], reg30=[CFA-8]

0000a7a0 0000001c 0000a7a4 FDE cie=00000000 pc=100197b24...100197b7c
  Format:       DWARF32
  DW_CFA_advance_loc: 8
  DW_CFA_def_cfa_offset: +80
  DW_CFA_offset: reg30 -8
  DW_CFA_offset: reg29 -16

  0x100197b24: CFA=reg31
  0x100197b2c: CFA=reg31+80: reg29=[CFA-16], reg30=[CFA-8]

0000a7c0 0000001c 0000a7c4 FDE cie=00000000 pc=100197b7c...100197cdc
  Format:       DWARF32
  DW_CFA_advance_loc: 8
  DW_CFA_def_cfa_offset: +64
  DW_CFA_offset: reg30 -8
  DW_CFA_offset: reg29 -16

  0x100197b7c: CFA=reg31
  0x100197b84: CFA=reg31+64: reg29=[CFA-16], reg30=[CFA-8]

0000a7e0 0000001c 0000a7e4 FDE cie=00000000 pc=10019883c...100198a14
  Format:       DWARF32
  DW_CFA_advance_loc: 8
  DW_CFA_def_cfa_offset: +112
  DW_CFA_offset: reg30 -8
  DW_CFA_offset: reg29 -16

  0x10019883c: CFA=reg31
  0x100198844: CFA=reg31+112: reg29=[CFA-16], reg30=[CFA-8]

0000a800 0000002c 0000a804 FDE cie=00000000 pc=10019906c...100199268
  Format:       DWARF32
  DW_CFA_advance_loc: 20
  DW_CFA_def_cfa_offset: +192
  DW_CFA_offset: reg30 -8
  DW_CFA_offset: reg29 -16
  DW_CFA_offset: reg19 -24
  DW_CFA_offset: reg20 -32
  DW_CFA_offset: reg21 -40
  DW_CFA_offset: reg22 -48
  DW_CFA_offset: reg23 -56
  DW_CFA_offset: reg24 -64
  DW_CFA_nop:
  DW_CFA_nop:
  DW_CFA_nop:

  0x10019906c: CFA=reg31
  0x100199080: CFA=reg31+192: reg19=[CFA-24], reg20=[CFA-32], reg21=[CFA-40], reg22=[CFA-48], reg23=[CFA-56], reg24=[CFA-64], reg29=[CFA-16], reg30=[CFA-8]

0000a830 0000002c 0000a834 FDE cie=00000000 pc=10040ebd4...10040f098
  Format:       DWARF32
  DW_CFA_advance_loc: 24
  DW_CFA_def_cfa_offset: +112
  DW_CFA_offset: reg30 -8
  DW_CFA_offset: reg29 -16
  DW_CFA_offset: reg19 -24
  DW_CFA_offset: reg20 -32
  DW_CFA_offset: reg21 -40
  DW_CFA_offset: reg22 -48
  DW_CFA_offset: reg23 -56
  DW_CFA_offset: reg24 -64
  DW_CFA_offset: reg25 -72
  DW_CFA_offset: reg26 -80

  0x10040ebd4: CFA=reg31
  0x10040ebec: CFA=reg31+112: reg19=[CFA-24], reg20=[CFA-32], reg21=[CFA-40], reg22=[CFA-48], reg23=[CFA-56], reg24=[CFA-64], reg25=[CFA-72], reg26=[CFA-80], reg29=[CFA-16], reg30=[CFA-8]

0000a860 0000001c 0000a864 FDE cie=00000000 pc=10019e6e0...10019e704
  Format:       DWARF32
  DW_CFA_advance_loc: 4
  DW_CFA_def_cfa_offset: +16
  DW_CFA_offset: reg30 -8
  DW_CFA_offset: reg29 -16

  0x10019e6e0: CFA=reg31
  0x10019e6e4: CFA=reg31+16: reg29=[CFA-16], reg30=[CFA-8]

0000a880 0000001c 0000a884 FDE cie=00000000 pc=10019f144...10019f168
  Format:       DWARF32
  DW_CFA_advance_loc: 4
  DW_CFA_def_cfa_offset: +16
  DW_CFA_offset: reg30 -8
  DW_CFA_offset: reg29 -16

  0x10019f144: CFA=reg31
  0x10019f148: CFA=reg31+16: reg29=[CFA-16], reg30=[CFA-8]

0000a8a0 0000002c 0000a8a4 FDE cie=00000000 pc=1001ac170...1001ac674
  Format:       DWARF32
  DW_CFA_advance_loc: 20
  DW_CFA_def_cfa_offset: +208
  DW_CFA_offset: reg30 -8
  DW_CFA_offset: reg29 -16
  DW_CFA_offset: reg19 -24
  DW_CFA_offset: reg20 -32
  DW_CFA_offset: reg21 -40
  DW_CFA_offset: reg22 -48
  DW_CFA_offset: reg23 -56
  DW_CFA_offset: reg24 -64
  DW_CFA_nop:
  DW_CFA_nop:
  DW_CFA_nop:

  0x1001ac170: CFA=reg31
  0x1001ac184: CFA=reg31+208: reg19=[CFA-24], reg20=[CFA-32], reg21=[CFA-40], reg22=[CFA-48], reg23=[CFA-56], reg24=[CFA-64], reg29=[CFA-16], reg30=[CFA-8]

0000a8d0 00000024 0000a8d4 FDE cie=00000000 pc=1001ac710...1001ac984
  Format:       DWARF32
  DW_CFA_advance_loc: 12
  DW_CFA_def_cfa_offset: +48
  DW_CFA_offset: reg30 -8
  DW_CFA_offset: reg29 -16
  DW_CFA_offset: reg19 -24
  DW_CFA_offset: reg20 -32
  DW_CFA_nop:
  DW_CFA_nop:
  DW_CFA_nop:
  DW_CFA_nop:

  0x1001ac710: CFA=reg31
  0x1001ac71c: CFA=reg31+48: reg19=[CFA-24], reg20=[CFA-32], reg29=[CFA-16], reg30=[CFA-8]

0000a8f8 00000024 0000a8fc FDE cie=00000000 pc=1001ac9c4...1001aca8c
  Format:       DWARF32
  DW_CFA_advance_loc: 12
  DW_CFA_def_cfa_offset: +64
  DW_CFA_offset: reg30 -8
  DW_CFA_offset: reg29 -16
  DW_CFA_offset: reg19 -24
  DW_CFA_offset: reg20 -32
  DW_CFA_nop:
  DW_CFA_nop:
  DW_CFA_nop:
  DW_CFA_nop:

  0x1001ac9c4: CFA=reg31
  0x1001ac9d0: CFA=reg31+64: reg19=[CFA-24], reg20=[CFA-32], reg29=[CFA-16], reg30=[CFA-8]

0000a920 00000024 0000a924 FDE cie=00000000 pc=1001acaa8...1001acbbc
  Format:       DWARF32
  DW_CFA_advance_loc: 12
  DW_CFA_def_cfa_offset: +48
  DW_CFA_offset: reg30 -8
  DW_CFA_offset: reg29 -16
  DW_CFA_offset: reg19 -24
  DW_CFA_offset: reg20 -32
  DW_CFA_nop:
  DW_CFA_nop:
  DW_CFA_nop:
  DW_CFA_nop:

  0x1001acaa8: CFA=reg31
  0x1001acab4: CFA=reg31+48: reg19=[CFA-24], reg20=[CFA-32], reg29=[CFA-16], reg30=[CFA-8]

0000a948 0000001c 0000a94c FDE cie=00000000 pc=10040f098...10040f0dc
  Format:       DWARF32
  DW_CFA_advance_loc: 8
  DW_CFA_def_cfa_offset: +80
  DW_CFA_offset: reg30 -8
  DW_CFA_offset: reg29 -16

  0x10040f098: CFA=reg31
  0x10040f0a0: CFA=reg31+80: reg29=[CFA-16], reg30=[CFA-8]

0000a968 00000024 0000a96c FDE cie=00000000 pc=1001b8b68...1001b8c7c
  Format:       DWARF32
  DW_CFA_advance_loc: 12
  DW_CFA_def_cfa_offset: +48
  DW_CFA_offset: reg30 -8
  DW_CFA_offset: reg29 -16
  DW_CFA_offset: reg19 -24
  DW_CFA_offset: reg20 -32
  DW_CFA_nop:
  DW_CFA_nop:
  DW_CFA_nop:
  DW_CFA_nop:

  0x1001b8b68: CFA=reg31
  0x1001b8b74: CFA=reg31+48: reg19=[CFA-24], reg20=[CFA-32], reg29=[CFA-16], reg30=[CFA-8]

0000a990 00000024 0000a994 FDE cie=00000000 pc=1001b8d44...1001b8e50
  Format:       DWARF32
  DW_CFA_advance_loc: 12
  DW_CFA_def_cfa_offset: +48
  DW_CFA_offset: reg30 -8
  DW_CFA_offset: reg29 -16
  DW_CFA_offset: reg19 -24
  DW_CFA_offset: reg20 -32
  DW_CFA_nop:
  DW_CFA_nop:
  DW_CFA_nop:
  DW_CFA_nop:

  0x1001b8d44: CFA=reg31
  0x1001b8d50: CFA=reg31+48: reg19=[CFA-24], reg20=[CFA-32], reg29=[CFA-16], reg30=[CFA-8]

0000a9b8 00000024 0000a9bc FDE cie=00000000 pc=1001b8eb4...1001b9128
  Format:       DWARF32
  DW_CFA_advance_loc: 12
  DW_CFA_def_cfa_offset: +48
  DW_CFA_offset: reg30 -8
  DW_CFA_offset: reg29 -16
  DW_CFA_offset: reg19 -24
  DW_CFA_offset: reg20 -32
  DW_CFA_nop:
  DW_CFA_nop:
  DW_CFA_nop:
  DW_CFA_nop:

  0x1001b8eb4: CFA=reg31
  0x1001b8ec0: CFA=reg31+48: reg19=[CFA-24], reg20=[CFA-32], reg29=[CFA-16], reg30=[CFA-8]

0000a9e0 0000002c 0000a9e4 FDE cie=00000000 pc=1001b9128...1001b9208
  Format:       DWARF32
  DW_CFA_advance_loc: 16
  DW_CFA_def_cfa_offset: +176
  DW_CFA_offset: reg30 -8
  DW_CFA_offset: reg29 -16
  DW_CFA_offset: reg19 -24
  DW_CFA_offset: reg20 -32
  DW_CFA_offset: reg21 -40
  DW_CFA_offset: reg22 -48
  DW_CFA_nop:
  DW_CFA_nop:
  DW_CFA_nop:
  DW_CFA_nop:
  DW_CFA_nop:
  DW_CFA_nop:
  DW_CFA_nop:

  0x1001b9128: CFA=reg31
  0x1001b9138: CFA=reg31+176: reg19=[CFA-24], reg20=[CFA-32], reg21=[CFA-40], reg22=[CFA-48], reg29=[CFA-16], reg30=[CFA-8]

0000aa10 00000024 0000aa14 FDE cie=00000000 pc=1001b9224...1001b93e0
  Format:       DWARF32
  DW_CFA_advance_loc: 12
  DW_CFA_def_cfa_offset: +64
  DW_CFA_offset: reg30 -8
  DW_CFA_offset: reg29 -16
  DW_CFA_offset: reg19 -24
  DW_CFA_offset: reg20 -32
  DW_CFA_nop:
  DW_CFA_nop:
  DW_CFA_nop:
  DW_CFA_nop:

  0x1001b9224: CFA=reg31
  0x1001b9230: CFA=reg31+64: reg19=[CFA-24], reg20=[CFA-32], reg29=[CFA-16], reg30=[CFA-8]

0000aa38 0000001c 0000aa3c FDE cie=00000000 pc=1001ba310...1001ba334
  Format:       DWARF32
  DW_CFA_advance_loc: 4
  DW_CFA_def_cfa_offset: +16
  DW_CFA_offset: reg30 -8
  DW_CFA_offset: reg29 -16

  0x1001ba310: CFA=reg31
  0x1001ba314: CFA=reg31+16: reg29=[CFA-16], reg30=[CFA-8]

0000aa58 0000001c 0000aa5c FDE cie=00000000 pc=1001bad3c...1001bad60
  Format:       DWARF32
  DW_CFA_advance_loc: 4
  DW_CFA_def_cfa_offset: +16
  DW_CFA_offset: reg30 -8
  DW_CFA_offset: reg29 -16

  0x1001bad3c: CFA=reg31
  0x1001bad40: CFA=reg31+16: reg29=[CFA-16], reg30=[CFA-8]

0000aa78 0000001c 0000aa7c FDE cie=00000000 pc=1001bb630...1001bb688
  Format:       DWARF32
  DW_CFA_advance_loc: 8
  DW_CFA_def_cfa_offset: +80
  DW_CFA_offset: reg30 -8
  DW_CFA_offset: reg29 -16

  0x1001bb630: CFA=reg31
  0x1001bb638: CFA=reg31+80: reg29=[CFA-16], reg30=[CFA-8]

0000aa98 0000001c 0000aa9c FDE cie=00000000 pc=10040f0dc...10040f128
  Format:       DWARF32
  DW_CFA_advance_loc: 8
  DW_CFA_def_cfa_offset: +80
  DW_CFA_offset: reg30 -8
  DW_CFA_offset: reg29 -16

  0x10040f0dc: CFA=reg31
  0x10040f0e4: CFA=reg31+80: reg29=[CFA-16], reg30=[CFA-8]

0000aab8 00000024 0000aabc FDE cie=00000000 pc=1001c3cf0...1001c3d60
  Format:       DWARF32
  DW_CFA_advance_loc: 8
  DW_CFA_def_cfa_offset: +32
  DW_CFA_offset: reg30 -8
  DW_CFA_offset: reg29 -16
  DW_CFA_offset: reg19 -24
  DW_CFA_offset: reg20 -32
  DW_CFA_nop:
  DW_CFA_nop:
  DW_CFA_nop:
  DW_CFA_nop:

  0x1001c3cf0: CFA=reg31
  0x1001c3cf8: CFA=reg31+32: reg19=[CFA-24], reg20=[CFA-32], reg29=[CFA-16], reg30=[CFA-8]

0000aae0 00000024 0000aae4 FDE cie=00000000 pc=1001c5228...1001c5284
  Format:       DWARF32
  DW_CFA_advance_loc: 8
  DW_CFA_def_cfa_offset: +32
  DW_CFA_offset: reg30 -8
  DW_CFA_offset: reg29 -16
  DW_CFA_offset: reg19 -24
  DW_CFA_offset: reg20 -32
  DW_CFA_nop:
  DW_CFA_nop:
  DW_CFA_nop:
  DW_CFA_nop:

  0x1001c5228: CFA=reg31
  0x1001c5230: CFA=reg31+32: reg19=[CFA-24], reg20=[CFA-32], reg29=[CFA-16], reg30=[CFA-8]

0000ab08 00000034 0000ab0c FDE cie=00000000 pc=1001c54e0...1001c5604
  Format:       DWARF32
  DW_CFA_advance_loc: 24
  DW_CFA_def_cfa_offset: +128
  DW_CFA_offset: reg30 -8
  DW_CFA_offset: reg29 -16
  DW_CFA_offset: reg19 -24
  DW_CFA_offset: reg20 -32
  DW_CFA_offset: reg21 -40
  DW_CFA_offset: reg22 -48
  DW_CFA_offset: reg23 -56
  DW_CFA_offset: reg24 -64
  DW_CFA_offset: reg25 -72
  DW_CFA_offset: reg26 -80
  DW_CFA_nop:
  DW_CFA_nop:
  DW_CFA_nop:
  DW_CFA_nop:
  DW_CFA_nop:
  DW_CFA_nop:
  DW_CFA_nop:

  0x1001c54e0: CFA=reg31
  0x1001c54f8: CFA=reg31+128: reg19=[CFA-24], reg20=[CFA-32], reg21=[CFA-40], reg22=[CFA-48], reg23=[CFA-56], reg24=[CFA-64], reg25=[CFA-72], reg26=[CFA-80], reg29=[CFA-16], reg30=[CFA-8]

0000ab40 00000024 0000ab44 FDE cie=00000000 pc=1001c63fc...1001c6438
  Format:       DWARF32
  DW_CFA_advance_loc: 8
  DW_CFA_def_cfa_offset: +32
  DW_CFA_offset: reg30 -8
  DW_CFA_offset: reg29 -16
  DW_CFA_offset: reg19 -24
  DW_CFA_offset: reg20 -32
  DW_CFA_nop:
  DW_CFA_nop:
  DW_CFA_nop:
  DW_CFA_nop:

  0x1001c63fc: CFA=reg31
  0x1001c6404: CFA=reg31+32: reg19=[CFA-24], reg20=[CFA-32], reg29=[CFA-16], reg30=[CFA-8]

0000ab68 00000024 0000ab6c FDE cie=00000000 pc=1001c6cbc...1001c6e1c
  Format:       DWARF32
  DW_CFA_advance_loc: 12
  DW_CFA_def_cfa_offset: +48
  DW_CFA_offset: reg30 -8
  DW_CFA_offset: reg29 -16
  DW_CFA_offset: reg19 -24
  DW_CFA_offset: reg20 -32
  DW_CFA_offset: reg21 -40
  DW_CFA_offset: reg22 -48

  0x1001c6cbc: CFA=reg31
  0x1001c6cc8: CFA=reg31+48: reg19=[CFA-24], reg20=[CFA-32], reg21=[CFA-40], reg22=[CFA-48], reg29=[CFA-16], reg30=[CFA-8]

0000ab90 0000001c 0000ab94 FDE cie=00000000 pc=10040f128...10040f17c
  Format:       DWARF32
  DW_CFA_advance_loc: 8
  DW_CFA_def_cfa_offset: +32
  DW_CFA_offset: reg30 -8
  DW_CFA_offset: reg29 -16

  0x10040f128: CFA=reg31
  0x10040f130: CFA=reg31+32: reg29=[CFA-16], reg30=[CFA-8]

0000abb0 00000024 0000abb4 FDE cie=00000000 pc=1001c8ed4...1001c8f4c
  Format:       DWARF32
  DW_CFA_advance_loc: 12
  DW_CFA_def_cfa_offset: +48
  DW_CFA_offset: reg30 -8
  DW_CFA_offset: reg29 -16
  DW_CFA_offset: reg19 -24
  DW_CFA_offset: reg20 -32
  DW_CFA_nop:
  DW_CFA_nop:
  DW_CFA_nop:
  DW_CFA_nop:

  0x1001c8ed4: CFA=reg31
  0x1001c8ee0: CFA=reg31+48: reg19=[CFA-24], reg20=[CFA-32], reg29=[CFA-16], reg30=[CFA-8]

0000abd8 0000001c 0000abdc FDE cie=00000000 pc=1001c8f4c...1001c8f9c
  Format:       DWARF32
  DW_CFA_advance_loc: 8
  DW_CFA_def_cfa_offset: +32
  DW_CFA_offset: reg30 -8
  DW_CFA_offset: reg29 -16

  0x1001c8f4c: CFA=reg31
  0x1001c8f54: CFA=reg31+32: reg29=[CFA-16], reg30=[CFA-8]

0000abf8 0000001c 0000abfc FDE cie=00000000 pc=1001c8f9c...1001c8fc4
  Format:       DWARF32
  DW_CFA_advance_loc: 4
  DW_CFA_def_cfa_offset: +16
  DW_CFA_offset: reg30 -8
  DW_CFA_offset: reg29 -16

  0x1001c8f9c: CFA=reg31
  0x1001c8fa0: CFA=reg31+16: reg29=[CFA-16], reg30=[CFA-8]

0000ac18 00000024 0000ac1c FDE cie=00000000 pc=1001c8fc4...1001c906c
  Format:       DWARF32
  DW_CFA_advance_loc: 8
  DW_CFA_def_cfa_offset: +32
  DW_CFA_offset: reg30 -8
  DW_CFA_offset: reg29 -16
  DW_CFA_offset: reg19 -24
  DW_CFA_offset: reg20 -32
  DW_CFA_nop:
  DW_CFA_nop:
  DW_CFA_nop:
  DW_CFA_nop:

  0x1001c8fc4: CFA=reg31
  0x1001c8fcc: CFA=reg31+32: reg19=[CFA-24], reg20=[CFA-32], reg29=[CFA-16], reg30=[CFA-8]

0000ac40 0000001c 0000ac44 FDE cie=00000000 pc=1001c906c...1001c90f0
  Format:       DWARF32
  DW_CFA_advance_loc: 8
  DW_CFA_def_cfa_offset: +32
  DW_CFA_offset: reg30 -8
  DW_CFA_offset: reg29 -16

  0x1001c906c: CFA=reg31
  0x1001c9074: CFA=reg31+32: reg29=[CFA-16], reg30=[CFA-8]

0000ac60 0000001c 0000ac64 FDE cie=00000000 pc=1001c9100...1001c9138
  Format:       DWARF32
  DW_CFA_advance_loc: 8
  DW_CFA_def_cfa_offset: +32
  DW_CFA_offset: reg30 -8
  DW_CFA_offset: reg29 -16

  0x1001c9100: CFA=reg31
  0x1001c9108: CFA=reg31+32: reg29=[CFA-16], reg30=[CFA-8]

0000ac80 00000024 0000ac84 FDE cie=00000000 pc=10040f17c...10040f248
  Format:       DWARF32
  DW_CFA_advance_loc: 12
  DW_CFA_def_cfa_offset: +48
  DW_CFA_offset: reg30 -8
  DW_CFA_offset: reg29 -16
  DW_CFA_offset: reg19 -24
  DW_CFA_offset: reg20 -32
  DW_CFA_nop:
  DW_CFA_nop:
  DW_CFA_nop:
  DW_CFA_nop:

  0x10040f17c: CFA=reg31
  0x10040f188: CFA=reg31+48: reg19=[CFA-24], reg20=[CFA-32], reg29=[CFA-16], reg30=[CFA-8]

0000aca8 0000001c 0000acac FDE cie=00000000 pc=1001c935c...1001c93a8
  Format:       DWARF32
  DW_CFA_advance_loc: 8
  DW_CFA_def_cfa_offset: +32
  DW_CFA_offset: reg30 -8
  DW_CFA_offset: reg29 -16

  0x1001c935c: CFA=reg31
  0x1001c9364: CFA=reg31+32: reg29=[CFA-16], reg30=[CFA-8]

0000acc8 0000001c 0000accc FDE cie=00000000 pc=10040f248...10040f29c
  Format:       DWARF32
  DW_CFA_advance_loc: 8
  DW_CFA_def_cfa_offset: +32
  DW_CFA_offset: reg30 -8
  DW_CFA_offset: reg29 -16

  0x10040f248: CFA=reg31
  0x10040f250: CFA=reg31+32: reg29=[CFA-16], reg30=[CFA-8]

0000ace8 00000024 0000acec FDE cie=00000000 pc=1001c9510...1001c95a0
  Format:       DWARF32
  DW_CFA_advance_loc: 12
  DW_CFA_def_cfa_offset: +64
  DW_CFA_offset: reg30 -8
  DW_CFA_offset: reg29 -16
  DW_CFA_offset: reg19 -24
  DW_CFA_offset: reg20 -32
  DW_CFA_nop:
  DW_CFA_nop:
  DW_CFA_nop:
  DW_CFA_nop:

  0x1001c9510: CFA=reg31
  0x1001c951c: CFA=reg31+64: reg19=[CFA-24], reg20=[CFA-32], reg29=[CFA-16], reg30=[CFA-8]

0000ad10 00000024 0000ad14 FDE cie=00000000 pc=1001c95d8...1001c96ac
  Format:       DWARF32
  DW_CFA_advance_loc: 12
  DW_CFA_def_cfa_offset: +80
  DW_CFA_offset: reg30 -8
  DW_CFA_offset: reg29 -16
  DW_CFA_offset: reg19 -24
  DW_CFA_offset: reg20 -32
  DW_CFA_nop:
  DW_CFA_nop:
  DW_CFA_nop:
  DW_CFA_nop:

  0x1001c95d8: CFA=reg31
  0x1001c95e4: CFA=reg31+80: reg19=[CFA-24], reg20=[CFA-32], reg29=[CFA-16], reg30=[CFA-8]

0000ad38 00000024 0000ad3c FDE cie=00000000 pc=1001c96ac...1001c9754
  Format:       DWARF32
  DW_CFA_advance_loc: 8
  DW_CFA_def_cfa_offset: +32
  DW_CFA_offset: reg30 -8
  DW_CFA_offset: reg29 -16
  DW_CFA_offset: reg19 -24
  DW_CFA_offset: reg20 -32
  DW_CFA_nop:
  DW_CFA_nop:
  DW_CFA_nop:
  DW_CFA_nop:

  0x1001c96ac: CFA=reg31
  0x1001c96b4: CFA=reg31+32: reg19=[CFA-24], reg20=[CFA-32], reg29=[CFA-16], reg30=[CFA-8]

0000ad60 00000024 0000ad64 FDE cie=00000000 pc=1001c97e0...1001c9968
  Format:       DWARF32
  DW_CFA_advance_loc: 12
  DW_CFA_def_cfa_offset: +240
  DW_CFA_offset: reg30 -8
  DW_CFA_offset: reg29 -16
  DW_CFA_offset: reg19 -24
  DW_CFA_offset: reg20 -32
  DW_CFA_nop:
  DW_CFA_nop:
  DW_CFA_nop:

  0x1001c97e0: CFA=reg31
  0x1001c97ec: CFA=reg31+240: reg19=[CFA-24], reg20=[CFA-32], reg29=[CFA-16], reg30=[CFA-8]

0000ad88 00000024 0000ad8c FDE cie=00000000 pc=1001c9a88...1001c9afc
  Format:       DWARF32
  DW_CFA_advance_loc: 12
  DW_CFA_def_cfa_offset: +64
  DW_CFA_offset: reg30 -8
  DW_CFA_offset: reg29 -16
  DW_CFA_offset: reg19 -24
  DW_CFA_offset: reg20 -32
  DW_CFA_nop:
  DW_CFA_nop:
  DW_CFA_nop:
  DW_CFA_nop:

  0x1001c9a88: CFA=reg31
  0x1001c9a94: CFA=reg31+64: reg19=[CFA-24], reg20=[CFA-32], reg29=[CFA-16], reg30=[CFA-8]

0000adb0 00000024 0000adb4 FDE cie=00000000 pc=1001c9afc...1001c9b70
  Format:       DWARF32
  DW_CFA_advance_loc: 12
  DW_CFA_def_cfa_offset: +64
  DW_CFA_offset: reg30 -8
  DW_CFA_offset: reg29 -16
  DW_CFA_offset: reg19 -24
  DW_CFA_offset: reg20 -32
  DW_CFA_nop:
  DW_CFA_nop:
  DW_CFA_nop:
  DW_CFA_nop:

  0x1001c9afc: CFA=reg31
  0x1001c9b08: CFA=reg31+64: reg19=[CFA-24], reg20=[CFA-32], reg29=[CFA-16], reg30=[CFA-8]

0000add8 0000001c 0000addc FDE cie=00000000 pc=1001ca1dc...1001ca2a0
  Format:       DWARF32
  DW_CFA_advance_loc: 8
  DW_CFA_def_cfa_offset: +32
  DW_CFA_offset: reg30 -8
  DW_CFA_offset: reg29 -16

  0x1001ca1dc: CFA=reg31
  0x1001ca1e4: CFA=reg31+32: reg29=[CFA-16], reg30=[CFA-8]

0000adf8 0000001c 0000adfc FDE cie=00000000 pc=1001ca2a0...1001ca2dc
  Format:       DWARF32
  DW_CFA_advance_loc: 8
  DW_CFA_def_cfa_offset: +80
  DW_CFA_offset: reg30 -8
  DW_CFA_offset: reg29 -16

  0x1001ca2a0: CFA=reg31
  0x1001ca2a8: CFA=reg31+80: reg29=[CFA-16], reg30=[CFA-8]

0000ae18 0000001c 0000ae1c FDE cie=00000000 pc=1001ca2e4...1001ca3ac
  Format:       DWARF32
  DW_CFA_advance_loc: 8
  DW_CFA_def_cfa_offset: +32
  DW_CFA_offset: reg30 -8
  DW_CFA_offset: reg29 -16

  0x1001ca2e4: CFA=reg31
  0x1001ca2ec: CFA=reg31+32: reg29=[CFA-16], reg30=[CFA-8]

0000ae38 0000001c 0000ae3c FDE cie=00000000 pc=1001ca3ac...1001ca3ec
  Format:       DWARF32
  DW_CFA_advance_loc: 8
  DW_CFA_def_cfa_offset: +80
  DW_CFA_offset: reg30 -8
  DW_CFA_offset: reg29 -16

  0x1001ca3ac: CFA=reg31
  0x1001ca3b4: CFA=reg31+80: reg29=[CFA-16], reg30=[CFA-8]

0000ae58 00000024 0000ae5c FDE cie=00000000 pc=1001ca3ec...1001ca468
  Format:       DWARF32
  DW_CFA_advance_loc: 12
  DW_CFA_def_cfa_offset: +48
  DW_CFA_offset: reg30 -8
  DW_CFA_offset: reg29 -16
  DW_CFA_offset: reg19 -24
  DW_CFA_offset: reg20 -32
  DW_CFA_nop:
  DW_CFA_nop:
  DW_CFA_nop:
  DW_CFA_nop:

  0x1001ca3ec: CFA=reg31
  0x1001ca3f8: CFA=reg31+48: reg19=[CFA-24], reg20=[CFA-32], reg29=[CFA-16], reg30=[CFA-8]

0000ae80 00000024 0000ae84 FDE cie=00000000 pc=10040f29c...10040f368
  Format:       DWARF32
  DW_CFA_advance_loc: 12
  DW_CFA_def_cfa_offset: +48
  DW_CFA_offset: reg30 -8
  DW_CFA_offset: reg29 -16
  DW_CFA_offset: reg19 -24
  DW_CFA_offset: reg20 -32
  DW_CFA_nop:
  DW_CFA_nop:
  DW_CFA_nop:
  DW_CFA_nop:

  0x10040f29c: CFA=reg31
  0x10040f2a8: CFA=reg31+48: reg19=[CFA-24], reg20=[CFA-32], reg29=[CFA-16], reg30=[CFA-8]

0000aea8 0000001c 0000aeac FDE cie=00000000 pc=1001cab00...1001cab4c
  Format:       DWARF32
  DW_CFA_advance_loc: 8
  DW_CFA_def_cfa_offset: +32
  DW_CFA_offset: reg30 -8
  DW_CFA_offset: reg29 -16

  0x1001cab00: CFA=reg31
  0x1001cab08: CFA=reg31+32: reg29=[CFA-16], reg30=[CFA-8]

0000aec8 0000001c 0000aecc FDE cie=00000000 pc=1001cef90...1001cf09c
  Format:       DWARF32
  DW_CFA_advance_loc: 8
  DW_CFA_def_cfa_offset: +80
  DW_CFA_offset: reg30 -8
  DW_CFA_offset: reg29 -16

  0x1001cef90: CFA=reg31
  0x1001cef98: CFA=reg31+80: reg29=[CFA-16], reg30=[CFA-8]

0000aee8 0000001c 0000aeec FDE cie=00000000 pc=1001cf09c...1001cf134
  Format:       DWARF32
  DW_CFA_advance_loc: 8
  DW_CFA_def_cfa_offset: +80
  DW_CFA_offset: reg30 -8
  DW_CFA_offset: reg29 -16

  0x1001cf09c: CFA=reg31
  0x1001cf0a4: CFA=reg31+80: reg29=[CFA-16], reg30=[CFA-8]

0000af08 0000001c 0000af0c FDE cie=00000000 pc=1001d04b4...1001d0514
  Format:       DWARF32
  DW_CFA_advance_loc: 4
  DW_CFA_def_cfa_offset: +16
  DW_CFA_offset: reg30 -8
  DW_CFA_offset: reg29 -16

  0x1001d04b4: CFA=reg31
  0x1001d04b8: CFA=reg31+16: reg29=[CFA-16], reg30=[CFA-8]

0000af28 00000024 0000af2c FDE cie=00000000 pc=1001d0538...1001d0684
  Format:       DWARF32
  DW_CFA_advance_loc: 12
  DW_CFA_def_cfa_offset: +80
  DW_CFA_offset: reg30 -8
  DW_CFA_offset: reg29 -16
  DW_CFA_offset: reg19 -24
  DW_CFA_offset: reg20 -32
  DW_CFA_nop:
  DW_CFA_nop:
  DW_CFA_nop:
  DW_CFA_nop:

  0x1001d0538: CFA=reg31
  0x1001d0544: CFA=reg31+80: reg19=[CFA-24], reg20=[CFA-32], reg29=[CFA-16], reg30=[CFA-8]

